SF:/app/crates/tsuzulint_ast/src/arena.rs
FN:40,_RNvMNtCs9bJaZoOZVf6_13tsuzulint_ast5arenaNtB2_8AstArena3newCsBJS9GT0NqI_13tsuzulint_lsp
FN:40,_RNvMNtCs9bJaZoOZVf6_13tsuzulint_ast5arenaNtB2_8AstArena3newCsdHNy3eV5zAX_14tsuzulint_core
FN:60,_RNvMNtCs9bJaZoOZVf6_13tsuzulint_ast5arenaNtB2_8AstArena9alloc_strCs6rVTX6UnG69_16tsuzulint_parser
FN:66,_RINvMNtCs9bJaZoOZVf6_13tsuzulint_ast5arenaNtB3_8AstArena16alloc_slice_copyNtNtB5_4node7TxtNodeECs6rVTX6UnG69_16tsuzulint_parser
FN:72,_RINvMNtCs9bJaZoOZVf6_13tsuzulint_ast5arenaNtB3_8AstArena17alloc_slice_cloneNtNtB5_4node7TxtNodeECs6rVTX6UnG69_16tsuzulint_parser
FN:78,_RINvMNtCs9bJaZoOZVf6_13tsuzulint_ast5arenaNtB3_8AstArena21alloc_slice_fill_iterNtNtB5_4node7TxtNodeINtNtNtNtCs4kUJL3MZFFz_4core4iter8adapters3map3MapINtNtNtB1I_5slice4iter4IterNtNtCsjOWsk9qhkUz_8markdown5mdast4NodeENCNvMNtCs6rVTX6UnG69_16tsuzulint_parser8markdownNtB3w_14MarkdownParser16convert_children0EEB3y_
FN:54,_RINvMNtCs9bJaZoOZVf6_13tsuzulint_ast5arenaNtB3_8AstArena5allocNtNtB5_4node7TxtNodeECs6rVTX6UnG69_16tsuzulint_parser
FN:66,_RINvMNtCs9bJaZoOZVf6_13tsuzulint_ast5arenaNtB3_8AstArena16alloc_slice_copypEB5_
FN:72,_RINvMNtCs9bJaZoOZVf6_13tsuzulint_ast5arenaNtB3_8AstArena17alloc_slice_clonepEB5_
FN:78,_RINvMNtCs9bJaZoOZVf6_13tsuzulint_ast5arenaNtB3_8AstArena21alloc_slice_fill_iterppEB5_
FN:54,_RINvMNtCs9bJaZoOZVf6_13tsuzulint_ast5arenaNtB3_8AstArena5allocpEB5_
FN:46,_RNvMNtCs9bJaZoOZVf6_13tsuzulint_ast5arenaNtB2_8AstArena13with_capacityB4_
FN:88,_RNvMNtCs9bJaZoOZVf6_13tsuzulint_ast5arenaNtB2_8AstArena15allocated_bytesB4_
FN:96,_RNvMNtCs9bJaZoOZVf6_13tsuzulint_ast5arenaNtB2_8AstArena5resetB4_
FN:60,_RNvMNtCs9bJaZoOZVf6_13tsuzulint_ast5arenaNtB2_8AstArena9alloc_strB4_
FN:112,_RNvNtNtCscCfipWx6sdZ_13tsuzulint_ast5arena5testss_16test_arena_alloc
FN:140,_RNvNtNtCscCfipWx6sdZ_13tsuzulint_ast5arena5testss_16test_arena_reset
FN:119,_RNvNtNtCscCfipWx6sdZ_13tsuzulint_ast5arena5testss_20test_arena_alloc_str
FN:126,_RNvNtNtCscCfipWx6sdZ_13tsuzulint_ast5arena5testss_22test_arena_alloc_slice
FN:133,_RNvNtNtCscCfipWx6sdZ_13tsuzulint_ast5arena5testss_32test_arena_alloc_slice_fill_iter
FN:46,_RNvMNtCscCfipWx6sdZ_13tsuzulint_ast5arenaNtB2_8AstArena13with_capacityB4_
FN:102,_RNvXs_NtCscCfipWx6sdZ_13tsuzulint_ast5arenaNtB4_8AstArenaNtNtCs4kUJL3MZFFz_4core7default7Default7default
FN:88,_RNvMNtCscCfipWx6sdZ_13tsuzulint_ast5arenaNtB2_8AstArena15allocated_bytesB4_
FN:40,_RNvMNtCscCfipWx6sdZ_13tsuzulint_ast5arenaNtB2_8AstArena3newB4_
FN:96,_RNvMNtCscCfipWx6sdZ_13tsuzulint_ast5arenaNtB2_8AstArena5resetB4_
FN:60,_RNvMNtCscCfipWx6sdZ_13tsuzulint_ast5arenaNtB2_8AstArena9alloc_strB4_
FN:135,_RNCNvNtNtCscCfipWx6sdZ_13tsuzulint_ast5arena5testss_32test_arena_alloc_slice_fill_iter0B7_
FN:66,_RINvMNtCscCfipWx6sdZ_13tsuzulint_ast5arenaNtB3_8AstArena16alloc_slice_copyNtNtB5_4node7TxtNodeEB5_
FN:66,_RINvMNtCscCfipWx6sdZ_13tsuzulint_ast5arenaNtB3_8AstArena16alloc_slice_copylEB5_
FN:72,_RINvMNtCscCfipWx6sdZ_13tsuzulint_ast5arenaNtB3_8AstArena17alloc_slice_cloneNtNtB5_4node7TxtNodeEB5_
FN:78,_RINvMNtCscCfipWx6sdZ_13tsuzulint_ast5arenaNtB3_8AstArena21alloc_slice_fill_iterlINtNtNtNtCs4kUJL3MZFFz_4core4iter8adapters3map3MapINtNtNtB1p_3ops5range5RangelENCNvNtB3_5testss_32test_arena_alloc_slice_fill_iter0EEB5_
FN:54,_RINvMNtCscCfipWx6sdZ_13tsuzulint_ast5arenaNtB3_8AstArena5allocNtNtB5_4node7TxtNodeEB5_
FN:54,_RINvMNtCscCfipWx6sdZ_13tsuzulint_ast5arenaNtB3_8AstArena5allocmEB5_
FN:40,_RNvMNtCs9bJaZoOZVf6_13tsuzulint_ast5arenaNtB2_8AstArena3newCs47f85yxqTTa_14tsuzulint_core
FN:40,_RNvMNtCs9bJaZoOZVf6_13tsuzulint_ast5arenaNtB2_8AstArena3newCslSoYyaIRsdV_13tsuzulint_lsp
FN:40,_RNvMNtCs9bJaZoOZVf6_13tsuzulint_ast5arenaNtB2_8AstArena3newCskrHlX1vBtOp_16tsuzulint_parser
FN:60,_RNvMNtCs9bJaZoOZVf6_13tsuzulint_ast5arenaNtB2_8AstArena9alloc_strCskrHlX1vBtOp_16tsuzulint_parser
FN:66,_RINvMNtCs9bJaZoOZVf6_13tsuzulint_ast5arenaNtB3_8AstArena16alloc_slice_copyNtNtB5_4node7TxtNodeECskrHlX1vBtOp_16tsuzulint_parser
FN:72,_RINvMNtCs9bJaZoOZVf6_13tsuzulint_ast5arenaNtB3_8AstArena17alloc_slice_cloneNtNtB5_4node7TxtNodeECskrHlX1vBtOp_16tsuzulint_parser
FN:78,_RINvMNtCs9bJaZoOZVf6_13tsuzulint_ast5arenaNtB3_8AstArena21alloc_slice_fill_iterNtNtB5_4node7TxtNodeINtNtNtNtCs4kUJL3MZFFz_4core4iter8adapters3map3MapINtNtNtB1I_5slice4iter4IterNtNtCsjOWsk9qhkUz_8markdown5mdast4NodeENCNvMNtCskrHlX1vBtOp_16tsuzulint_parser8markdownNtB3w_14MarkdownParser16convert_children0EEB3y_
FN:54,_RINvMNtCs9bJaZoOZVf6_13tsuzulint_ast5arenaNtB3_8AstArena5allocNtNtB5_4node7TxtNodeECskrHlX1vBtOp_16tsuzulint_parser
FN:40,_RNvMNtCs9bJaZoOZVf6_13tsuzulint_ast5arenaNtB2_8AstArena3newCsjpSJrqRQcuS_14tsuzulint_wasm
FN:60,_RNvMNtCs9bJaZoOZVf6_13tsuzulint_ast5arenaNtB2_8AstArena9alloc_strCsjpSJrqRQcuS_14tsuzulint_wasm
FNDA:0,_RNvMNtCs9bJaZoOZVf6_13tsuzulint_ast5arenaNtB2_8AstArena3newCsBJS9GT0NqI_13tsuzulint_lsp
FNDA:16,_RNvMNtCs9bJaZoOZVf6_13tsuzulint_ast5arenaNtB2_8AstArena3newCsdHNy3eV5zAX_14tsuzulint_core
FNDA:225,_RNvMNtCs9bJaZoOZVf6_13tsuzulint_ast5arenaNtB2_8AstArena9alloc_strCs6rVTX6UnG69_16tsuzulint_parser
FNDA:218,_RINvMNtCs9bJaZoOZVf6_13tsuzulint_ast5arenaNtB3_8AstArena16alloc_slice_copyNtNtB5_4node7TxtNodeECs6rVTX6UnG69_16tsuzulint_parser
FNDA:5,_RINvMNtCs9bJaZoOZVf6_13tsuzulint_ast5arenaNtB3_8AstArena17alloc_slice_cloneNtNtB5_4node7TxtNodeECs6rVTX6UnG69_16tsuzulint_parser
FNDA:265,_RINvMNtCs9bJaZoOZVf6_13tsuzulint_ast5arenaNtB3_8AstArena21alloc_slice_fill_iterNtNtB5_4node7TxtNodeINtNtNtNtCs4kUJL3MZFFz_4core4iter8adapters3map3MapINtNtNtB1I_5slice4iter4IterNtNtCsjOWsk9qhkUz_8markdown5mdast4NodeENCNvMNtCs6rVTX6UnG69_16tsuzulint_parser8markdownNtB3w_14MarkdownParser16convert_children0EEB3y_
FNDA:240,_RINvMNtCs9bJaZoOZVf6_13tsuzulint_ast5arenaNtB3_8AstArena5allocNtNtB5_4node7TxtNodeECs6rVTX6UnG69_16tsuzulint_parser
FNDA:0,_RINvMNtCs9bJaZoOZVf6_13tsuzulint_ast5arenaNtB3_8AstArena16alloc_slice_copypEB5_
FNDA:0,_RINvMNtCs9bJaZoOZVf6_13tsuzulint_ast5arenaNtB3_8AstArena17alloc_slice_clonepEB5_
FNDA:0,_RINvMNtCs9bJaZoOZVf6_13tsuzulint_ast5arenaNtB3_8AstArena21alloc_slice_fill_iterppEB5_
FNDA:0,_RINvMNtCs9bJaZoOZVf6_13tsuzulint_ast5arenaNtB3_8AstArena5allocpEB5_
FNDA:0,_RNvMNtCs9bJaZoOZVf6_13tsuzulint_ast5arenaNtB2_8AstArena13with_capacityB4_
FNDA:0,_RNvMNtCs9bJaZoOZVf6_13tsuzulint_ast5arenaNtB2_8AstArena15allocated_bytesB4_
FNDA:0,_RNvMNtCs9bJaZoOZVf6_13tsuzulint_ast5arenaNtB2_8AstArena5resetB4_
FNDA:0,_RNvMNtCs9bJaZoOZVf6_13tsuzulint_ast5arenaNtB2_8AstArena9alloc_strB4_
FNDA:1,_RNvNtNtCscCfipWx6sdZ_13tsuzulint_ast5arena5testss_16test_arena_alloc
FNDA:1,_RNvNtNtCscCfipWx6sdZ_13tsuzulint_ast5arena5testss_16test_arena_reset
FNDA:1,_RNvNtNtCscCfipWx6sdZ_13tsuzulint_ast5arena5testss_20test_arena_alloc_str
FNDA:1,_RNvNtNtCscCfipWx6sdZ_13tsuzulint_ast5arena5testss_22test_arena_alloc_slice
FNDA:1,_RNvNtNtCscCfipWx6sdZ_13tsuzulint_ast5arena5testss_32test_arena_alloc_slice_fill_iter
FNDA:0,_RNvMNtCscCfipWx6sdZ_13tsuzulint_ast5arenaNtB2_8AstArena13with_capacityB4_
FNDA:0,_RNvXs_NtCscCfipWx6sdZ_13tsuzulint_ast5arenaNtB4_8AstArenaNtNtCs4kUJL3MZFFz_4core7default7Default7default
FNDA:2,_RNvMNtCscCfipWx6sdZ_13tsuzulint_ast5arenaNtB2_8AstArena15allocated_bytesB4_
FNDA:25,_RNvMNtCscCfipWx6sdZ_13tsuzulint_ast5arenaNtB2_8AstArena3newB4_
FNDA:1,_RNvMNtCscCfipWx6sdZ_13tsuzulint_ast5arenaNtB2_8AstArena5resetB4_
FNDA:14,_RNvMNtCscCfipWx6sdZ_13tsuzulint_ast5arenaNtB2_8AstArena9alloc_strB4_
FNDA:5,_RNCNvNtNtCscCfipWx6sdZ_13tsuzulint_ast5arena5testss_32test_arena_alloc_slice_fill_iter0B7_
FNDA:15,_RINvMNtCscCfipWx6sdZ_13tsuzulint_ast5arenaNtB3_8AstArena16alloc_slice_copyNtNtB5_4node7TxtNodeEB5_
FNDA:1,_RINvMNtCscCfipWx6sdZ_13tsuzulint_ast5arenaNtB3_8AstArena16alloc_slice_copylEB5_
FNDA:1,_RINvMNtCscCfipWx6sdZ_13tsuzulint_ast5arenaNtB3_8AstArena17alloc_slice_cloneNtNtB5_4node7TxtNodeEB5_
FNDA:1,_RINvMNtCscCfipWx6sdZ_13tsuzulint_ast5arenaNtB3_8AstArena21alloc_slice_fill_iterlINtNtNtNtCs4kUJL3MZFFz_4core4iter8adapters3map3MapINtNtNtB1p_3ops5range5RangelENCNvNtB3_5testss_32test_arena_alloc_slice_fill_iter0EEB5_
FNDA:36,_RINvMNtCscCfipWx6sdZ_13tsuzulint_ast5arenaNtB3_8AstArena5allocNtNtB5_4node7TxtNodeEB5_
FNDA:3,_RINvMNtCscCfipWx6sdZ_13tsuzulint_ast5arenaNtB3_8AstArena5allocmEB5_
FNDA:77,_RNvMNtCs9bJaZoOZVf6_13tsuzulint_ast5arenaNtB2_8AstArena3newCs47f85yxqTTa_14tsuzulint_core
FNDA:1,_RNvMNtCs9bJaZoOZVf6_13tsuzulint_ast5arenaNtB2_8AstArena3newCslSoYyaIRsdV_13tsuzulint_lsp
FNDA:41,_RNvMNtCs9bJaZoOZVf6_13tsuzulint_ast5arenaNtB2_8AstArena3newCskrHlX1vBtOp_16tsuzulint_parser
FNDA:84,_RNvMNtCs9bJaZoOZVf6_13tsuzulint_ast5arenaNtB2_8AstArena9alloc_strCskrHlX1vBtOp_16tsuzulint_parser
FNDA:14,_RINvMNtCs9bJaZoOZVf6_13tsuzulint_ast5arenaNtB3_8AstArena16alloc_slice_copyNtNtB5_4node7TxtNodeECskrHlX1vBtOp_16tsuzulint_parser
FNDA:13,_RINvMNtCs9bJaZoOZVf6_13tsuzulint_ast5arenaNtB3_8AstArena17alloc_slice_cloneNtNtB5_4node7TxtNodeECskrHlX1vBtOp_16tsuzulint_parser
FNDA:109,_RINvMNtCs9bJaZoOZVf6_13tsuzulint_ast5arenaNtB3_8AstArena21alloc_slice_fill_iterNtNtB5_4node7TxtNodeINtNtNtNtCs4kUJL3MZFFz_4core4iter8adapters3map3MapINtNtNtB1I_5slice4iter4IterNtNtCsjOWsk9qhkUz_8markdown5mdast4NodeENCNvMNtCskrHlX1vBtOp_16tsuzulint_parser8markdownNtB3w_14MarkdownParser16convert_children0EEB3y_
FNDA:14,_RINvMNtCs9bJaZoOZVf6_13tsuzulint_ast5arenaNtB3_8AstArena5allocNtNtB5_4node7TxtNodeECskrHlX1vBtOp_16tsuzulint_parser
FNDA:3,_RNvMNtCs9bJaZoOZVf6_13tsuzulint_ast5arenaNtB2_8AstArena3newCsjpSJrqRQcuS_14tsuzulint_wasm
FNDA:4,_RNvMNtCs9bJaZoOZVf6_13tsuzulint_ast5arenaNtB2_8AstArena9alloc_strCsjpSJrqRQcuS_14tsuzulint_wasm
FNF:16
FNH:14
DA:40,163
DA:41,163
DA:42,163
DA:46,0
DA:47,0
DA:48,0
DA:49,0
DA:50,0
DA:54,293
DA:55,293
DA:56,293
DA:60,327
DA:61,327
DA:62,327
DA:66,248
DA:67,248
DA:68,248
DA:72,19
DA:73,19
DA:74,19
DA:78,375
DA:79,375
DA:80,375
DA:81,375
DA:83,375
DA:84,375
DA:88,2
DA:89,2
DA:90,2
DA:96,1
DA:97,1
DA:98,1
DA:102,0
DA:103,0
DA:104,0
DA:112,1
DA:113,1
DA:114,1
DA:115,1
DA:116,1
DA:119,1
DA:120,1
DA:121,1
DA:122,1
DA:123,1
DA:126,1
DA:127,1
DA:128,1
DA:129,1
DA:130,1
DA:133,1
DA:134,1
DA:135,5
DA:136,1
DA:137,1
DA:140,1
DA:141,1
DA:142,1
DA:143,1
DA:144,1
DA:146,1
DA:149,1
DA:150,1
BRF:0
BRH:0
LF:64
LH:56
end_of_record
SF:/app/crates/tsuzulint_ast/src/node.rs
FN:295,_RINvMs0_NtCs9bJaZoOZVf6_13tsuzulint_ast4nodeNtB6_8NodeData16serialize_fieldsINtNtCs7QBYx3CHZnw_10serde_json3ser8CompoundQINtNtCsauO83Ko6oyK_5alloc3vec3VechENtB1f_16CompactFormatterEECsdHNy3eV5zAX_14tsuzulint_core
FN:295,_RINvMs0_NtCs9bJaZoOZVf6_13tsuzulint_ast4nodeNtB6_8NodeData16serialize_fieldsNtNtNtCs7QBYx3CHZnw_10serde_json5value3ser12SerializeMapECsdHNy3eV5zAX_14tsuzulint_core
FN:93,_RINvXNtCs9bJaZoOZVf6_13tsuzulint_ast4nodeNtB3_7TxtNodeNtNtCsdBCzScGN83d_10serde_core3ser9Serialize9serializeNtNtNtCs7QBYx3CHZnw_10serde_json5value3ser10SerializerECsdHNy3eV5zAX_14tsuzulint_core
FN:93,_RINvXNtCs9bJaZoOZVf6_13tsuzulint_ast4nodeNtB3_7TxtNodeNtNtCsdBCzScGN83d_10serde_core3ser9Serialize9serializeQINtNtCs7QBYx3CHZnw_10serde_json3ser10SerializerQINtNtCsauO83Ko6oyK_5alloc3vec3VechEEECsdHNy3eV5zAX_14tsuzulint_core
FN:196,_RNvMs_NtCs9bJaZoOZVf6_13tsuzulint_ast4nodeNtB4_7TxtNode3urlCsdHNy3eV5zAX_14tsuzulint_core
FN:225,_RNvMs_NtCs9bJaZoOZVf6_13tsuzulint_ast4nodeNtB4_7TxtNode4langCsdHNy3eV5zAX_14tsuzulint_core
FN:187,_RNvMs_NtCs9bJaZoOZVf6_13tsuzulint_ast4nodeNtB4_7TxtNode5depthCsdHNy3eV5zAX_14tsuzulint_core
FN:206,_RNvMs_NtCs9bJaZoOZVf6_13tsuzulint_ast4nodeNtB4_7TxtNode5titleCsdHNy3eV5zAX_14tsuzulint_core
FN:364,_RNvMs0_NtCs9bJaZoOZVf6_13tsuzulint_ast4nodeNtB5_8NodeData10code_blockCs6rVTX6UnG69_16tsuzulint_parser
FN:382,_RNvMs0_NtCs9bJaZoOZVf6_13tsuzulint_ast4nodeNtB5_8NodeData10definitionCs6rVTX6UnG69_16tsuzulint_parser
FN:340,_RNvMs0_NtCs9bJaZoOZVf6_13tsuzulint_ast4nodeNtB5_8NodeData3newCs6rVTX6UnG69_16tsuzulint_parser
FN:352,_RNvMs0_NtCs9bJaZoOZVf6_13tsuzulint_ast4nodeNtB5_8NodeData4linkCs6rVTX6UnG69_16tsuzulint_parser
FN:370,_RNvMs0_NtCs9bJaZoOZVf6_13tsuzulint_ast4nodeNtB5_8NodeData4listCs6rVTX6UnG69_16tsuzulint_parser
FN:358,_RNvMs0_NtCs9bJaZoOZVf6_13tsuzulint_ast4nodeNtB5_8NodeData5imageCs6rVTX6UnG69_16tsuzulint_parser
FN:346,_RNvMs0_NtCs9bJaZoOZVf6_13tsuzulint_ast4nodeNtB5_8NodeData6headerCs6rVTX6UnG69_16tsuzulint_parser
FN:376,_RNvMs0_NtCs9bJaZoOZVf6_13tsuzulint_ast4nodeNtB5_8NodeData9referenceCs6rVTX6UnG69_16tsuzulint_parser
FN:130,_RNvMs_NtCs9bJaZoOZVf6_13tsuzulint_ast4nodeNtB4_7TxtNode10new_parentCs6rVTX6UnG69_16tsuzulint_parser
FN:154,_RNvMs_NtCs9bJaZoOZVf6_13tsuzulint_ast4nodeNtB4_7TxtNode8new_leafCs6rVTX6UnG69_16tsuzulint_parser
FN:142,_RNvMs_NtCs9bJaZoOZVf6_13tsuzulint_ast4nodeNtB4_7TxtNode8new_textCs6rVTX6UnG69_16tsuzulint_parser
FN:255,_RNvMs0_NtCs9bJaZoOZVf6_13tsuzulint_ast4nodeNtB5_8NodeData19present_field_count
FN:295,_RINvMs0_NtCs9bJaZoOZVf6_13tsuzulint_ast4nodeNtB6_8NodeData16serialize_fieldspEB8_
FN:93,_RINvXNtCs9bJaZoOZVf6_13tsuzulint_ast4nodeNtB3_7TxtNodeNtNtCsdBCzScGN83d_10serde_core3ser9Serialize9serializepEB5_
FN:364,_RNvMs0_NtCs9bJaZoOZVf6_13tsuzulint_ast4nodeNtB5_8NodeData10code_blockB7_
FN:382,_RNvMs0_NtCs9bJaZoOZVf6_13tsuzulint_ast4nodeNtB5_8NodeData10definitionB7_
FN:340,_RNvMs0_NtCs9bJaZoOZVf6_13tsuzulint_ast4nodeNtB5_8NodeData3newB7_
FN:352,_RNvMs0_NtCs9bJaZoOZVf6_13tsuzulint_ast4nodeNtB5_8NodeData4linkB7_
FN:370,_RNvMs0_NtCs9bJaZoOZVf6_13tsuzulint_ast4nodeNtB5_8NodeData4listB7_
FN:358,_RNvMs0_NtCs9bJaZoOZVf6_13tsuzulint_ast4nodeNtB5_8NodeData5imageB7_
FN:346,_RNvMs0_NtCs9bJaZoOZVf6_13tsuzulint_ast4nodeNtB5_8NodeData6headerB7_
FN:376,_RNvMs0_NtCs9bJaZoOZVf6_13tsuzulint_ast4nodeNtB5_8NodeData9referenceB7_
FN:234,_RNvMs_NtCs9bJaZoOZVf6_13tsuzulint_ast4nodeNtB4_7TxtNode10identifierB6_
FN:130,_RNvMs_NtCs9bJaZoOZVf6_13tsuzulint_ast4nodeNtB4_7TxtNode10new_parentB6_
FN:166,_RNvMs_NtCs9bJaZoOZVf6_13tsuzulint_ast4nodeNtB4_7TxtNode12has_childrenB6_
FN:196,_RNvMs_NtCs9bJaZoOZVf6_13tsuzulint_ast4nodeNtB4_7TxtNode3urlB6_
FN:225,_RNvMs_NtCs9bJaZoOZVf6_13tsuzulint_ast4nodeNtB4_7TxtNode4langB6_
FN:181,_RNvMs_NtCs9bJaZoOZVf6_13tsuzulint_ast4nodeNtB4_7TxtNode4textB6_
FN:187,_RNvMs_NtCs9bJaZoOZVf6_13tsuzulint_ast4nodeNtB4_7TxtNode5depthB6_
FN:244,_RNvMs_NtCs9bJaZoOZVf6_13tsuzulint_ast4nodeNtB4_7TxtNode5labelB6_
FN:206,_RNvMs_NtCs9bJaZoOZVf6_13tsuzulint_ast4nodeNtB4_7TxtNode5titleB6_
FN:172,_RNvMs_NtCs9bJaZoOZVf6_13tsuzulint_ast4nodeNtB4_7TxtNode7is_textB6_
FN:216,_RNvMs_NtCs9bJaZoOZVf6_13tsuzulint_ast4nodeNtB4_7TxtNode7orderedB6_
FN:154,_RNvMs_NtCs9bJaZoOZVf6_13tsuzulint_ast4nodeNtB4_7TxtNode8new_leafB6_
FN:142,_RNvMs_NtCs9bJaZoOZVf6_13tsuzulint_ast4nodeNtB4_7TxtNode8new_textB6_
FN:358,_RNvMs0_NtCscCfipWx6sdZ_13tsuzulint_ast4nodeNtB5_8NodeData5imageB7_
FN:542,_RNvNtNtCscCfipWx6sdZ_13tsuzulint_ast4node5testss_13test_new_leaf
FN:415,_RNvNtNtCscCfipWx6sdZ_13tsuzulint_ast4node5testss_13test_new_text
FN:552,_RNvNtNtCscCfipWx6sdZ_13tsuzulint_ast4node5testss_14test_node_span
FN:403,_RNvNtNtCscCfipWx6sdZ_13tsuzulint_ast4node5testss_15test_new_parent
FN:699,_RNvNtNtCscCfipWx6sdZ_13tsuzulint_ast4node5testss_19test_accessors_lang
FN:431,_RNvNtNtCscCfipWx6sdZ_13tsuzulint_ast4node5testss_19test_node_data_link
FN:654,_RNvNtNtCscCfipWx6sdZ_13tsuzulint_ast4node5testss_20test_accessors_depth
FN:641,_RNvNtNtCscCfipWx6sdZ_13tsuzulint_ast4node5testss_20test_code_block_node
FN:425,_RNvNtNtCscCfipWx6sdZ_13tsuzulint_ast4node5testss_21test_node_data_header
FN:602,_RNvNtNtCscCfipWx6sdZ_13tsuzulint_ast4node5testss_21test_node_text_method
FN:686,_RNvNtNtCscCfipWx6sdZ_13tsuzulint_ast4node5testss_22test_accessors_ordered
FN:633,_RNvNtNtCscCfipWx6sdZ_13tsuzulint_ast4node5testss_22test_code_node_is_text
FN:619,_RNvNtNtCscCfipWx6sdZ_13tsuzulint_ast4node5testss_22test_node_data_default
FN:611,_RNvNtNtCscCfipWx6sdZ_13tsuzulint_ast4node5testss_24test_header_depth_values
FN:577,_RNvNtNtCscCfipWx6sdZ_13tsuzulint_ast4node5testss_24test_nested_parent_nodes
FN:536,_RNvNtNtCscCfipWx6sdZ_13tsuzulint_ast4node5testss_24test_node_data_new_empty
FN:479,_RNvNtNtCscCfipWx6sdZ_13tsuzulint_ast4node5testss_24test_node_data_reference
FN:732,_RNvNtNtCscCfipWx6sdZ_13tsuzulint_ast4node5testss_24test_serialization_basic
FN:625,_RNvNtNtCscCfipWx6sdZ_13tsuzulint_ast4node5testss_25test_empty_children_slice
FN:455,_RNvNtNtCscCfipWx6sdZ_13tsuzulint_ast4node5testss_25test_node_data_code_block
FN:503,_RNvNtNtCscCfipWx6sdZ_13tsuzulint_ast4node5testss_25test_node_data_definition
FN:745,_RNvNtNtCscCfipWx6sdZ_13tsuzulint_ast4node5testss_25test_serialization_parent
FN:467,_RNvNtNtCscCfipWx6sdZ_13tsuzulint_ast4node5testss_27test_node_data_list_ordered
FN:664,_RNvNtNtCscCfipWx6sdZ_13tsuzulint_ast4node5testss_28test_accessors_url_and_title
FN:473,_RNvNtNtCscCfipWx6sdZ_13tsuzulint_ast4node5testss_29test_node_data_list_unordered
FN:820,_RNvNtNtCscCfipWx6sdZ_13tsuzulint_ast4node5testss_31test_nodedata_size_optimization
FN:773,_RNvNtNtCscCfipWx6sdZ_13tsuzulint_ast4node5testss_31test_serialization_empty_parent
FN:560,_RNvNtNtCscCfipWx6sdZ_13tsuzulint_ast4node5testss_32test_node_with_multiple_children
FN:522,_RNvNtNtCscCfipWx6sdZ_13tsuzulint_ast4node5testss_33test_node_data_definition_minimal
FN:443,_RNvNtNtCscCfipWx6sdZ_13tsuzulint_ast4node5testss_33test_node_data_link_without_title
FN:762,_RNvNtNtCscCfipWx6sdZ_13tsuzulint_ast4node5testss_33test_serialization_flattened_data
FN:712,_RNvNtNtCscCfipWx6sdZ_13tsuzulint_ast4node5testss_35test_accessors_identifier_and_label
FN:807,_RNvNtNtCscCfipWx6sdZ_13tsuzulint_ast4node5testss_35test_serialization_leaf_no_children
FN:461,_RNvNtNtCscCfipWx6sdZ_13tsuzulint_ast4node5testss_38test_node_data_code_block_without_lang
FN:491,_RNvNtNtCscCfipWx6sdZ_13tsuzulint_ast4node5testss_38test_node_data_reference_without_label
FN:784,_RNvNtNtCscCfipWx6sdZ_13tsuzulint_ast4node5testss_40test_serialization_definition_all_fields
FN:364,_RNvMs0_NtCscCfipWx6sdZ_13tsuzulint_ast4nodeNtB5_8NodeData10code_blockB7_
FN:382,_RNvMs0_NtCscCfipWx6sdZ_13tsuzulint_ast4nodeNtB5_8NodeData10definitionB7_
FN:255,_RNvMs0_NtCscCfipWx6sdZ_13tsuzulint_ast4nodeNtB5_8NodeData19present_field_count
FN:340,_RNvMs0_NtCscCfipWx6sdZ_13tsuzulint_ast4nodeNtB5_8NodeData3newB7_
FN:352,_RNvMs0_NtCscCfipWx6sdZ_13tsuzulint_ast4nodeNtB5_8NodeData4linkB7_
FN:370,_RNvMs0_NtCscCfipWx6sdZ_13tsuzulint_ast4nodeNtB5_8NodeData4listB7_
FN:346,_RNvMs0_NtCscCfipWx6sdZ_13tsuzulint_ast4nodeNtB5_8NodeData6headerB7_
FN:376,_RNvMs0_NtCscCfipWx6sdZ_13tsuzulint_ast4nodeNtB5_8NodeData9referenceB7_
FN:234,_RNvMs_NtCscCfipWx6sdZ_13tsuzulint_ast4nodeNtB4_7TxtNode10identifierB6_
FN:130,_RNvMs_NtCscCfipWx6sdZ_13tsuzulint_ast4nodeNtB4_7TxtNode10new_parentB6_
FN:166,_RNvMs_NtCscCfipWx6sdZ_13tsuzulint_ast4nodeNtB4_7TxtNode12has_childrenB6_
FN:196,_RNvMs_NtCscCfipWx6sdZ_13tsuzulint_ast4nodeNtB4_7TxtNode3urlB6_
FN:225,_RNvMs_NtCscCfipWx6sdZ_13tsuzulint_ast4nodeNtB4_7TxtNode4langB6_
FN:181,_RNvMs_NtCscCfipWx6sdZ_13tsuzulint_ast4nodeNtB4_7TxtNode4textB6_
FN:187,_RNvMs_NtCscCfipWx6sdZ_13tsuzulint_ast4nodeNtB4_7TxtNode5depthB6_
FN:244,_RNvMs_NtCscCfipWx6sdZ_13tsuzulint_ast4nodeNtB4_7TxtNode5labelB6_
FN:206,_RNvMs_NtCscCfipWx6sdZ_13tsuzulint_ast4nodeNtB4_7TxtNode5titleB6_
FN:172,_RNvMs_NtCscCfipWx6sdZ_13tsuzulint_ast4nodeNtB4_7TxtNode7is_textB6_
FN:216,_RNvMs_NtCscCfipWx6sdZ_13tsuzulint_ast4nodeNtB4_7TxtNode7orderedB6_
FN:154,_RNvMs_NtCscCfipWx6sdZ_13tsuzulint_ast4nodeNtB4_7TxtNode8new_leafB6_
FN:142,_RNvMs_NtCscCfipWx6sdZ_13tsuzulint_ast4nodeNtB4_7TxtNode8new_textB6_
FN:295,_RINvMs0_NtCscCfipWx6sdZ_13tsuzulint_ast4nodeNtB6_8NodeData16serialize_fieldsNtNtNtCs7QBYx3CHZnw_10serde_json5value3ser12SerializeMapEB8_
FN:93,_RINvXNtCscCfipWx6sdZ_13tsuzulint_ast4nodeNtB3_7TxtNodeNtNtCsdBCzScGN83d_10serde_core3ser9Serialize9serializeNtNtNtCs7QBYx3CHZnw_10serde_json5value3ser10SerializerEB5_
FN:364,_RNvMs0_NtCs9bJaZoOZVf6_13tsuzulint_ast4nodeNtB5_8NodeData10code_blockCs47f85yxqTTa_14tsuzulint_core
FN:340,_RNvMs0_NtCs9bJaZoOZVf6_13tsuzulint_ast4nodeNtB5_8NodeData3newCs47f85yxqTTa_14tsuzulint_core
FN:352,_RNvMs0_NtCs9bJaZoOZVf6_13tsuzulint_ast4nodeNtB5_8NodeData4linkCs47f85yxqTTa_14tsuzulint_core
FN:358,_RNvMs0_NtCs9bJaZoOZVf6_13tsuzulint_ast4nodeNtB5_8NodeData5imageCs47f85yxqTTa_14tsuzulint_core
FN:346,_RNvMs0_NtCs9bJaZoOZVf6_13tsuzulint_ast4nodeNtB5_8NodeData6headerCs47f85yxqTTa_14tsuzulint_core
FN:130,_RNvMs_NtCs9bJaZoOZVf6_13tsuzulint_ast4nodeNtB4_7TxtNode10new_parentCs47f85yxqTTa_14tsuzulint_core
FN:196,_RNvMs_NtCs9bJaZoOZVf6_13tsuzulint_ast4nodeNtB4_7TxtNode3urlCs47f85yxqTTa_14tsuzulint_core
FN:225,_RNvMs_NtCs9bJaZoOZVf6_13tsuzulint_ast4nodeNtB4_7TxtNode4langCs47f85yxqTTa_14tsuzulint_core
FN:187,_RNvMs_NtCs9bJaZoOZVf6_13tsuzulint_ast4nodeNtB4_7TxtNode5depthCs47f85yxqTTa_14tsuzulint_core
FN:206,_RNvMs_NtCs9bJaZoOZVf6_13tsuzulint_ast4nodeNtB4_7TxtNode5titleCs47f85yxqTTa_14tsuzulint_core
FN:142,_RNvMs_NtCs9bJaZoOZVf6_13tsuzulint_ast4nodeNtB4_7TxtNode8new_textCs47f85yxqTTa_14tsuzulint_core
FN:295,_RINvMs0_NtCs9bJaZoOZVf6_13tsuzulint_ast4nodeNtB6_8NodeData16serialize_fieldsINtNtCs7QBYx3CHZnw_10serde_json3ser8CompoundQINtNtCsauO83Ko6oyK_5alloc3vec3VechENtB1f_16CompactFormatterEECs47f85yxqTTa_14tsuzulint_core
FN:295,_RINvMs0_NtCs9bJaZoOZVf6_13tsuzulint_ast4nodeNtB6_8NodeData16serialize_fieldsNtNtNtCs7QBYx3CHZnw_10serde_json5value3ser12SerializeMapECs47f85yxqTTa_14tsuzulint_core
FN:93,_RINvXNtCs9bJaZoOZVf6_13tsuzulint_ast4nodeNtB3_7TxtNodeNtNtCsdBCzScGN83d_10serde_core3ser9Serialize9serializeNtNtNtCs7QBYx3CHZnw_10serde_json5value3ser10SerializerECs47f85yxqTTa_14tsuzulint_core
FN:93,_RINvXNtCs9bJaZoOZVf6_13tsuzulint_ast4nodeNtB3_7TxtNodeNtNtCsdBCzScGN83d_10serde_core3ser9Serialize9serializeQINtNtCs7QBYx3CHZnw_10serde_json3ser10SerializerQINtNtCsauO83Ko6oyK_5alloc3vec3VechEEECs47f85yxqTTa_14tsuzulint_core
FN:340,_RNvMs0_NtCs9bJaZoOZVf6_13tsuzulint_ast4nodeNtB5_8NodeData3newCslSoYyaIRsdV_13tsuzulint_lsp
FN:130,_RNvMs_NtCs9bJaZoOZVf6_13tsuzulint_ast4nodeNtB4_7TxtNode10new_parentCslSoYyaIRsdV_13tsuzulint_lsp
FN:142,_RNvMs_NtCs9bJaZoOZVf6_13tsuzulint_ast4nodeNtB4_7TxtNode8new_textCslSoYyaIRsdV_13tsuzulint_lsp
FN:364,_RNvMs0_NtCs9bJaZoOZVf6_13tsuzulint_ast4nodeNtB5_8NodeData10code_blockCskrHlX1vBtOp_16tsuzulint_parser
FN:382,_RNvMs0_NtCs9bJaZoOZVf6_13tsuzulint_ast4nodeNtB5_8NodeData10definitionCskrHlX1vBtOp_16tsuzulint_parser
FN:340,_RNvMs0_NtCs9bJaZoOZVf6_13tsuzulint_ast4nodeNtB5_8NodeData3newCskrHlX1vBtOp_16tsuzulint_parser
FN:352,_RNvMs0_NtCs9bJaZoOZVf6_13tsuzulint_ast4nodeNtB5_8NodeData4linkCskrHlX1vBtOp_16tsuzulint_parser
FN:370,_RNvMs0_NtCs9bJaZoOZVf6_13tsuzulint_ast4nodeNtB5_8NodeData4listCskrHlX1vBtOp_16tsuzulint_parser
FN:358,_RNvMs0_NtCs9bJaZoOZVf6_13tsuzulint_ast4nodeNtB5_8NodeData5imageCskrHlX1vBtOp_16tsuzulint_parser
FN:346,_RNvMs0_NtCs9bJaZoOZVf6_13tsuzulint_ast4nodeNtB5_8NodeData6headerCskrHlX1vBtOp_16tsuzulint_parser
FN:376,_RNvMs0_NtCs9bJaZoOZVf6_13tsuzulint_ast4nodeNtB5_8NodeData9referenceCskrHlX1vBtOp_16tsuzulint_parser
FN:130,_RNvMs_NtCs9bJaZoOZVf6_13tsuzulint_ast4nodeNtB4_7TxtNode10new_parentCskrHlX1vBtOp_16tsuzulint_parser
FN:166,_RNvMs_NtCs9bJaZoOZVf6_13tsuzulint_ast4nodeNtB4_7TxtNode12has_childrenCskrHlX1vBtOp_16tsuzulint_parser
FN:172,_RNvMs_NtCs9bJaZoOZVf6_13tsuzulint_ast4nodeNtB4_7TxtNode7is_textCskrHlX1vBtOp_16tsuzulint_parser
FN:154,_RNvMs_NtCs9bJaZoOZVf6_13tsuzulint_ast4nodeNtB4_7TxtNode8new_leafCskrHlX1vBtOp_16tsuzulint_parser
FN:142,_RNvMs_NtCs9bJaZoOZVf6_13tsuzulint_ast4nodeNtB4_7TxtNode8new_textCskrHlX1vBtOp_16tsuzulint_parser
FN:295,_RINvMs0_NtCs9bJaZoOZVf6_13tsuzulint_ast4nodeNtB6_8NodeData16serialize_fieldsNtNtNtCs7QBYx3CHZnw_10serde_json5value3ser12SerializeMapECsjpSJrqRQcuS_14tsuzulint_wasm
FN:93,_RINvXNtCs9bJaZoOZVf6_13tsuzulint_ast4nodeNtB3_7TxtNodeNtNtCsdBCzScGN83d_10serde_core3ser9Serialize9serializeNtNtNtCs7QBYx3CHZnw_10serde_json5value3ser10SerializerECsjpSJrqRQcuS_14tsuzulint_wasm
FN:364,_RNvMs0_NtCs9bJaZoOZVf6_13tsuzulint_ast4nodeNtB5_8NodeData10code_blockCsjpSJrqRQcuS_14tsuzulint_wasm
FN:340,_RNvMs0_NtCs9bJaZoOZVf6_13tsuzulint_ast4nodeNtB5_8NodeData3newCsjpSJrqRQcuS_14tsuzulint_wasm
FN:352,_RNvMs0_NtCs9bJaZoOZVf6_13tsuzulint_ast4nodeNtB5_8NodeData4linkCsjpSJrqRQcuS_14tsuzulint_wasm
FN:370,_RNvMs0_NtCs9bJaZoOZVf6_13tsuzulint_ast4nodeNtB5_8NodeData4listCsjpSJrqRQcuS_14tsuzulint_wasm
FN:346,_RNvMs0_NtCs9bJaZoOZVf6_13tsuzulint_ast4nodeNtB5_8NodeData6headerCsjpSJrqRQcuS_14tsuzulint_wasm
FN:130,_RNvMs_NtCs9bJaZoOZVf6_13tsuzulint_ast4nodeNtB4_7TxtNode10new_parentCsjpSJrqRQcuS_14tsuzulint_wasm
FN:142,_RNvMs_NtCs9bJaZoOZVf6_13tsuzulint_ast4nodeNtB4_7TxtNode8new_textCsjpSJrqRQcuS_14tsuzulint_wasm
FNDA:0,_RINvMs0_NtCs9bJaZoOZVf6_13tsuzulint_ast4nodeNtB6_8NodeData16serialize_fieldsINtNtCs7QBYx3CHZnw_10serde_json3ser8CompoundQINtNtCsauO83Ko6oyK_5alloc3vec3VechENtB1f_16CompactFormatterEECsdHNy3eV5zAX_14tsuzulint_core
FNDA:0,_RINvMs0_NtCs9bJaZoOZVf6_13tsuzulint_ast4nodeNtB6_8NodeData16serialize_fieldsNtNtNtCs7QBYx3CHZnw_10serde_json5value3ser12SerializeMapECsdHNy3eV5zAX_14tsuzulint_core
FNDA:0,_RINvXNtCs9bJaZoOZVf6_13tsuzulint_ast4nodeNtB3_7TxtNodeNtNtCsdBCzScGN83d_10serde_core3ser9Serialize9serializeNtNtNtCs7QBYx3CHZnw_10serde_json5value3ser10SerializerECsdHNy3eV5zAX_14tsuzulint_core
FNDA:0,_RINvXNtCs9bJaZoOZVf6_13tsuzulint_ast4nodeNtB3_7TxtNodeNtNtCsdBCzScGN83d_10serde_core3ser9Serialize9serializeQINtNtCs7QBYx3CHZnw_10serde_json3ser10SerializerQINtNtCsauO83Ko6oyK_5alloc3vec3VechEEECsdHNy3eV5zAX_14tsuzulint_core
FNDA:0,_RNvMs_NtCs9bJaZoOZVf6_13tsuzulint_ast4nodeNtB4_7TxtNode3urlCsdHNy3eV5zAX_14tsuzulint_core
FNDA:0,_RNvMs_NtCs9bJaZoOZVf6_13tsuzulint_ast4nodeNtB4_7TxtNode4langCsdHNy3eV5zAX_14tsuzulint_core
FNDA:0,_RNvMs_NtCs9bJaZoOZVf6_13tsuzulint_ast4nodeNtB4_7TxtNode5depthCsdHNy3eV5zAX_14tsuzulint_core
FNDA:0,_RNvMs_NtCs9bJaZoOZVf6_13tsuzulint_ast4nodeNtB4_7TxtNode5titleCsdHNy3eV5zAX_14tsuzulint_core
FNDA:11,_RNvMs0_NtCs9bJaZoOZVf6_13tsuzulint_ast4nodeNtB5_8NodeData10code_blockCs6rVTX6UnG69_16tsuzulint_parser
FNDA:0,_RNvMs0_NtCs9bJaZoOZVf6_13tsuzulint_ast4nodeNtB5_8NodeData10definitionCs6rVTX6UnG69_16tsuzulint_parser
FNDA:490,_RNvMs0_NtCs9bJaZoOZVf6_13tsuzulint_ast4nodeNtB5_8NodeData3newCs6rVTX6UnG69_16tsuzulint_parser
FNDA:0,_RNvMs0_NtCs9bJaZoOZVf6_13tsuzulint_ast4nodeNtB5_8NodeData4linkCs6rVTX6UnG69_16tsuzulint_parser
FNDA:8,_RNvMs0_NtCs9bJaZoOZVf6_13tsuzulint_ast4nodeNtB5_8NodeData4listCs6rVTX6UnG69_16tsuzulint_parser
FNDA:0,_RNvMs0_NtCs9bJaZoOZVf6_13tsuzulint_ast4nodeNtB5_8NodeData5imageCs6rVTX6UnG69_16tsuzulint_parser
FNDA:53,_RNvMs0_NtCs9bJaZoOZVf6_13tsuzulint_ast4nodeNtB5_8NodeData6headerCs6rVTX6UnG69_16tsuzulint_parser
FNDA:0,_RNvMs0_NtCs9bJaZoOZVf6_13tsuzulint_ast4nodeNtB5_8NodeData9referenceCs6rVTX6UnG69_16tsuzulint_parser
FNDA:276,_RNvMs_NtCs9bJaZoOZVf6_13tsuzulint_ast4nodeNtB4_7TxtNode10new_parentCs6rVTX6UnG69_16tsuzulint_parser
FNDA:0,_RNvMs_NtCs9bJaZoOZVf6_13tsuzulint_ast4nodeNtB4_7TxtNode8new_leafCs6rVTX6UnG69_16tsuzulint_parser
FNDA:214,_RNvMs_NtCs9bJaZoOZVf6_13tsuzulint_ast4nodeNtB4_7TxtNode8new_textCs6rVTX6UnG69_16tsuzulint_parser
FNDA:41,_RNvMs0_NtCs9bJaZoOZVf6_13tsuzulint_ast4nodeNtB5_8NodeData19present_field_count
FNDA:0,_RINvMs0_NtCs9bJaZoOZVf6_13tsuzulint_ast4nodeNtB6_8NodeData16serialize_fieldspEB8_
FNDA:0,_RINvXNtCs9bJaZoOZVf6_13tsuzulint_ast4nodeNtB3_7TxtNodeNtNtCsdBCzScGN83d_10serde_core3ser9Serialize9serializepEB5_
FNDA:0,_RNvMs0_NtCs9bJaZoOZVf6_13tsuzulint_ast4nodeNtB5_8NodeData10code_blockB7_
FNDA:0,_RNvMs0_NtCs9bJaZoOZVf6_13tsuzulint_ast4nodeNtB5_8NodeData10definitionB7_
FNDA:0,_RNvMs0_NtCs9bJaZoOZVf6_13tsuzulint_ast4nodeNtB5_8NodeData3newB7_
FNDA:0,_RNvMs0_NtCs9bJaZoOZVf6_13tsuzulint_ast4nodeNtB5_8NodeData4linkB7_
FNDA:0,_RNvMs0_NtCs9bJaZoOZVf6_13tsuzulint_ast4nodeNtB5_8NodeData4listB7_
FNDA:0,_RNvMs0_NtCs9bJaZoOZVf6_13tsuzulint_ast4nodeNtB5_8NodeData5imageB7_
FNDA:0,_RNvMs0_NtCs9bJaZoOZVf6_13tsuzulint_ast4nodeNtB5_8NodeData6headerB7_
FNDA:0,_RNvMs0_NtCs9bJaZoOZVf6_13tsuzulint_ast4nodeNtB5_8NodeData9referenceB7_
FNDA:0,_RNvMs_NtCs9bJaZoOZVf6_13tsuzulint_ast4nodeNtB4_7TxtNode10identifierB6_
FNDA:0,_RNvMs_NtCs9bJaZoOZVf6_13tsuzulint_ast4nodeNtB4_7TxtNode10new_parentB6_
FNDA:0,_RNvMs_NtCs9bJaZoOZVf6_13tsuzulint_ast4nodeNtB4_7TxtNode12has_childrenB6_
FNDA:0,_RNvMs_NtCs9bJaZoOZVf6_13tsuzulint_ast4nodeNtB4_7TxtNode3urlB6_
FNDA:0,_RNvMs_NtCs9bJaZoOZVf6_13tsuzulint_ast4nodeNtB4_7TxtNode4langB6_
FNDA:0,_RNvMs_NtCs9bJaZoOZVf6_13tsuzulint_ast4nodeNtB4_7TxtNode4textB6_
FNDA:0,_RNvMs_NtCs9bJaZoOZVf6_13tsuzulint_ast4nodeNtB4_7TxtNode5depthB6_
FNDA:0,_RNvMs_NtCs9bJaZoOZVf6_13tsuzulint_ast4nodeNtB4_7TxtNode5labelB6_
FNDA:0,_RNvMs_NtCs9bJaZoOZVf6_13tsuzulint_ast4nodeNtB4_7TxtNode5titleB6_
FNDA:0,_RNvMs_NtCs9bJaZoOZVf6_13tsuzulint_ast4nodeNtB4_7TxtNode7is_textB6_
FNDA:0,_RNvMs_NtCs9bJaZoOZVf6_13tsuzulint_ast4nodeNtB4_7TxtNode7orderedB6_
FNDA:0,_RNvMs_NtCs9bJaZoOZVf6_13tsuzulint_ast4nodeNtB4_7TxtNode8new_leafB6_
FNDA:0,_RNvMs_NtCs9bJaZoOZVf6_13tsuzulint_ast4nodeNtB4_7TxtNode8new_textB6_
FNDA:0,_RNvMs0_NtCscCfipWx6sdZ_13tsuzulint_ast4nodeNtB5_8NodeData5imageB7_
FNDA:1,_RNvNtNtCscCfipWx6sdZ_13tsuzulint_ast4node5testss_13test_new_leaf
FNDA:1,_RNvNtNtCscCfipWx6sdZ_13tsuzulint_ast4node5testss_13test_new_text
FNDA:1,_RNvNtNtCscCfipWx6sdZ_13tsuzulint_ast4node5testss_14test_node_span
FNDA:1,_RNvNtNtCscCfipWx6sdZ_13tsuzulint_ast4node5testss_15test_new_parent
FNDA:1,_RNvNtNtCscCfipWx6sdZ_13tsuzulint_ast4node5testss_19test_accessors_lang
FNDA:1,_RNvNtNtCscCfipWx6sdZ_13tsuzulint_ast4node5testss_19test_node_data_link
FNDA:1,_RNvNtNtCscCfipWx6sdZ_13tsuzulint_ast4node5testss_20test_accessors_depth
FNDA:1,_RNvNtNtCscCfipWx6sdZ_13tsuzulint_ast4node5testss_20test_code_block_node
FNDA:1,_RNvNtNtCscCfipWx6sdZ_13tsuzulint_ast4node5testss_21test_node_data_header
FNDA:1,_RNvNtNtCscCfipWx6sdZ_13tsuzulint_ast4node5testss_21test_node_text_method
FNDA:1,_RNvNtNtCscCfipWx6sdZ_13tsuzulint_ast4node5testss_22test_accessors_ordered
FNDA:1,_RNvNtNtCscCfipWx6sdZ_13tsuzulint_ast4node5testss_22test_code_node_is_text
FNDA:1,_RNvNtNtCscCfipWx6sdZ_13tsuzulint_ast4node5testss_22test_node_data_default
FNDA:1,_RNvNtNtCscCfipWx6sdZ_13tsuzulint_ast4node5testss_24test_header_depth_values
FNDA:1,_RNvNtNtCscCfipWx6sdZ_13tsuzulint_ast4node5testss_24test_nested_parent_nodes
FNDA:1,_RNvNtNtCscCfipWx6sdZ_13tsuzulint_ast4node5testss_24test_node_data_new_empty
FNDA:1,_RNvNtNtCscCfipWx6sdZ_13tsuzulint_ast4node5testss_24test_node_data_reference
FNDA:1,_RNvNtNtCscCfipWx6sdZ_13tsuzulint_ast4node5testss_24test_serialization_basic
FNDA:1,_RNvNtNtCscCfipWx6sdZ_13tsuzulint_ast4node5testss_25test_empty_children_slice
FNDA:1,_RNvNtNtCscCfipWx6sdZ_13tsuzulint_ast4node5testss_25test_node_data_code_block
FNDA:1,_RNvNtNtCscCfipWx6sdZ_13tsuzulint_ast4node5testss_25test_node_data_definition
FNDA:1,_RNvNtNtCscCfipWx6sdZ_13tsuzulint_ast4node5testss_25test_serialization_parent
FNDA:1,_RNvNtNtCscCfipWx6sdZ_13tsuzulint_ast4node5testss_27test_node_data_list_ordered
FNDA:1,_RNvNtNtCscCfipWx6sdZ_13tsuzulint_ast4node5testss_28test_accessors_url_and_title
FNDA:1,_RNvNtNtCscCfipWx6sdZ_13tsuzulint_ast4node5testss_29test_node_data_list_unordered
FNDA:1,_RNvNtNtCscCfipWx6sdZ_13tsuzulint_ast4node5testss_31test_nodedata_size_optimization
FNDA:1,_RNvNtNtCscCfipWx6sdZ_13tsuzulint_ast4node5testss_31test_serialization_empty_parent
FNDA:1,_RNvNtNtCscCfipWx6sdZ_13tsuzulint_ast4node5testss_32test_node_with_multiple_children
FNDA:1,_RNvNtNtCscCfipWx6sdZ_13tsuzulint_ast4node5testss_33test_node_data_definition_minimal
FNDA:1,_RNvNtNtCscCfipWx6sdZ_13tsuzulint_ast4node5testss_33test_node_data_link_without_title
FNDA:1,_RNvNtNtCscCfipWx6sdZ_13tsuzulint_ast4node5testss_33test_serialization_flattened_data
FNDA:1,_RNvNtNtCscCfipWx6sdZ_13tsuzulint_ast4node5testss_35test_accessors_identifier_and_label
FNDA:1,_RNvNtNtCscCfipWx6sdZ_13tsuzulint_ast4node5testss_35test_serialization_leaf_no_children
FNDA:1,_RNvNtNtCscCfipWx6sdZ_13tsuzulint_ast4node5testss_38test_node_data_code_block_without_lang
FNDA:1,_RNvNtNtCscCfipWx6sdZ_13tsuzulint_ast4node5testss_38test_node_data_reference_without_label
FNDA:1,_RNvNtNtCscCfipWx6sdZ_13tsuzulint_ast4node5testss_40test_serialization_definition_all_fields
FNDA:5,_RNvMs0_NtCscCfipWx6sdZ_13tsuzulint_ast4nodeNtB5_8NodeData10code_blockB7_
FNDA:4,_RNvMs0_NtCscCfipWx6sdZ_13tsuzulint_ast4nodeNtB5_8NodeData10definitionB7_
FNDA:7,_RNvMs0_NtCscCfipWx6sdZ_13tsuzulint_ast4nodeNtB5_8NodeData19present_field_count
FNDA:67,_RNvMs0_NtCscCfipWx6sdZ_13tsuzulint_ast4nodeNtB5_8NodeData3newB7_
FNDA:3,_RNvMs0_NtCscCfipWx6sdZ_13tsuzulint_ast4nodeNtB5_8NodeData4linkB7_
FNDA:4,_RNvMs0_NtCscCfipWx6sdZ_13tsuzulint_ast4nodeNtB5_8NodeData4listB7_
FNDA:11,_RNvMs0_NtCscCfipWx6sdZ_13tsuzulint_ast4nodeNtB5_8NodeData6headerB7_
FNDA:3,_RNvMs0_NtCscCfipWx6sdZ_13tsuzulint_ast4nodeNtB5_8NodeData9referenceB7_
FNDA:2,_RNvMs_NtCscCfipWx6sdZ_13tsuzulint_ast4nodeNtB4_7TxtNode10identifierB6_
FNDA:27,_RNvMs_NtCscCfipWx6sdZ_13tsuzulint_ast4nodeNtB4_7TxtNode10new_parentB6_
FNDA:4,_RNvMs_NtCscCfipWx6sdZ_13tsuzulint_ast4nodeNtB4_7TxtNode12has_childrenB6_
FNDA:2,_RNvMs_NtCscCfipWx6sdZ_13tsuzulint_ast4nodeNtB4_7TxtNode3urlB6_
FNDA:3,_RNvMs_NtCscCfipWx6sdZ_13tsuzulint_ast4nodeNtB4_7TxtNode4langB6_
FNDA:3,_RNvMs_NtCscCfipWx6sdZ_13tsuzulint_ast4nodeNtB4_7TxtNode4textB6_
FNDA:2,_RNvMs_NtCscCfipWx6sdZ_13tsuzulint_ast4nodeNtB4_7TxtNode5depthB6_
FNDA:2,_RNvMs_NtCscCfipWx6sdZ_13tsuzulint_ast4nodeNtB4_7TxtNode5labelB6_
FNDA:2,_RNvMs_NtCscCfipWx6sdZ_13tsuzulint_ast4nodeNtB4_7TxtNode5titleB6_
FNDA:3,_RNvMs_NtCscCfipWx6sdZ_13tsuzulint_ast4nodeNtB4_7TxtNode7is_textB6_
FNDA:3,_RNvMs_NtCscCfipWx6sdZ_13tsuzulint_ast4nodeNtB4_7TxtNode7orderedB6_
FNDA:8,_RNvMs_NtCscCfipWx6sdZ_13tsuzulint_ast4nodeNtB4_7TxtNode8new_leafB6_
FNDA:31,_RNvMs_NtCscCfipWx6sdZ_13tsuzulint_ast4nodeNtB4_7TxtNode8new_textB6_
FNDA:7,_RINvMs0_NtCscCfipWx6sdZ_13tsuzulint_ast4nodeNtB6_8NodeData16serialize_fieldsNtNtNtCs7QBYx3CHZnw_10serde_json5value3ser12SerializeMapEB8_
FNDA:7,_RINvXNtCscCfipWx6sdZ_13tsuzulint_ast4nodeNtB3_7TxtNodeNtNtCsdBCzScGN83d_10serde_core3ser9Serialize9serializeNtNtNtCs7QBYx3CHZnw_10serde_json5value3ser10SerializerEB5_
FNDA:4,_RNvMs0_NtCs9bJaZoOZVf6_13tsuzulint_ast4nodeNtB5_8NodeData10code_blockCs47f85yxqTTa_14tsuzulint_core
FNDA:274,_RNvMs0_NtCs9bJaZoOZVf6_13tsuzulint_ast4nodeNtB5_8NodeData3newCs47f85yxqTTa_14tsuzulint_core
FNDA:1,_RNvMs0_NtCs9bJaZoOZVf6_13tsuzulint_ast4nodeNtB5_8NodeData4linkCs47f85yxqTTa_14tsuzulint_core
FNDA:1,_RNvMs0_NtCs9bJaZoOZVf6_13tsuzulint_ast4nodeNtB5_8NodeData5imageCs47f85yxqTTa_14tsuzulint_core
FNDA:5,_RNvMs0_NtCs9bJaZoOZVf6_13tsuzulint_ast4nodeNtB5_8NodeData6headerCs47f85yxqTTa_14tsuzulint_core
FNDA:212,_RNvMs_NtCs9bJaZoOZVf6_13tsuzulint_ast4nodeNtB4_7TxtNode10new_parentCs47f85yxqTTa_14tsuzulint_core
FNDA:2,_RNvMs_NtCs9bJaZoOZVf6_13tsuzulint_ast4nodeNtB4_7TxtNode3urlCs47f85yxqTTa_14tsuzulint_core
FNDA:4,_RNvMs_NtCs9bJaZoOZVf6_13tsuzulint_ast4nodeNtB4_7TxtNode4langCs47f85yxqTTa_14tsuzulint_core
FNDA:5,_RNvMs_NtCs9bJaZoOZVf6_13tsuzulint_ast4nodeNtB4_7TxtNode5depthCs47f85yxqTTa_14tsuzulint_core
FNDA:2,_RNvMs_NtCs9bJaZoOZVf6_13tsuzulint_ast4nodeNtB4_7TxtNode5titleCs47f85yxqTTa_14tsuzulint_core
FNDA:62,_RNvMs_NtCs9bJaZoOZVf6_13tsuzulint_ast4nodeNtB4_7TxtNode8new_textCs47f85yxqTTa_14tsuzulint_core
FNDA:16,_RINvMs0_NtCs9bJaZoOZVf6_13tsuzulint_ast4nodeNtB6_8NodeData16serialize_fieldsINtNtCs7QBYx3CHZnw_10serde_json3ser8CompoundQINtNtCsauO83Ko6oyK_5alloc3vec3VechENtB1f_16CompactFormatterEECs47f85yxqTTa_14tsuzulint_core
FNDA:16,_RINvMs0_NtCs9bJaZoOZVf6_13tsuzulint_ast4nodeNtB6_8NodeData16serialize_fieldsNtNtNtCs7QBYx3CHZnw_10serde_json5value3ser12SerializeMapECs47f85yxqTTa_14tsuzulint_core
FNDA:16,_RINvXNtCs9bJaZoOZVf6_13tsuzulint_ast4nodeNtB3_7TxtNodeNtNtCsdBCzScGN83d_10serde_core3ser9Serialize9serializeNtNtNtCs7QBYx3CHZnw_10serde_json5value3ser10SerializerECs47f85yxqTTa_14tsuzulint_core
FNDA:16,_RINvXNtCs9bJaZoOZVf6_13tsuzulint_ast4nodeNtB3_7TxtNodeNtNtCsdBCzScGN83d_10serde_core3ser9Serialize9serializeQINtNtCs7QBYx3CHZnw_10serde_json3ser10SerializerQINtNtCsauO83Ko6oyK_5alloc3vec3VechEEECs47f85yxqTTa_14tsuzulint_core
FNDA:11,_RNvMs0_NtCs9bJaZoOZVf6_13tsuzulint_ast4nodeNtB5_8NodeData3newCslSoYyaIRsdV_13tsuzulint_lsp
FNDA:2,_RNvMs_NtCs9bJaZoOZVf6_13tsuzulint_ast4nodeNtB4_7TxtNode10new_parentCslSoYyaIRsdV_13tsuzulint_lsp
FNDA:9,_RNvMs_NtCs9bJaZoOZVf6_13tsuzulint_ast4nodeNtB4_7TxtNode8new_textCslSoYyaIRsdV_13tsuzulint_lsp
FNDA:3,_RNvMs0_NtCs9bJaZoOZVf6_13tsuzulint_ast4nodeNtB5_8NodeData10code_blockCskrHlX1vBtOp_16tsuzulint_parser
FNDA:1,_RNvMs0_NtCs9bJaZoOZVf6_13tsuzulint_ast4nodeNtB5_8NodeData10definitionCskrHlX1vBtOp_16tsuzulint_parser
FNDA:210,_RNvMs0_NtCs9bJaZoOZVf6_13tsuzulint_ast4nodeNtB5_8NodeData3newCskrHlX1vBtOp_16tsuzulint_parser
FNDA:3,_RNvMs0_NtCs9bJaZoOZVf6_13tsuzulint_ast4nodeNtB5_8NodeData4linkCskrHlX1vBtOp_16tsuzulint_parser
FNDA:6,_RNvMs0_NtCs9bJaZoOZVf6_13tsuzulint_ast4nodeNtB5_8NodeData4listCskrHlX1vBtOp_16tsuzulint_parser
FNDA:1,_RNvMs0_NtCs9bJaZoOZVf6_13tsuzulint_ast4nodeNtB5_8NodeData5imageCskrHlX1vBtOp_16tsuzulint_parser
FNDA:12,_RNvMs0_NtCs9bJaZoOZVf6_13tsuzulint_ast4nodeNtB5_8NodeData6headerCskrHlX1vBtOp_16tsuzulint_parser
FNDA:1,_RNvMs0_NtCs9bJaZoOZVf6_13tsuzulint_ast4nodeNtB5_8NodeData9referenceCskrHlX1vBtOp_16tsuzulint_parser
FNDA:136,_RNvMs_NtCs9bJaZoOZVf6_13tsuzulint_ast4nodeNtB4_7TxtNode10new_parentCskrHlX1vBtOp_16tsuzulint_parser
FNDA:1,_RNvMs_NtCs9bJaZoOZVf6_13tsuzulint_ast4nodeNtB4_7TxtNode12has_childrenCskrHlX1vBtOp_16tsuzulint_parser
FNDA:1,_RNvMs_NtCs9bJaZoOZVf6_13tsuzulint_ast4nodeNtB4_7TxtNode7is_textCskrHlX1vBtOp_16tsuzulint_parser
FNDA:4,_RNvMs_NtCs9bJaZoOZVf6_13tsuzulint_ast4nodeNtB4_7TxtNode8new_leafCskrHlX1vBtOp_16tsuzulint_parser
FNDA:70,_RNvMs_NtCs9bJaZoOZVf6_13tsuzulint_ast4nodeNtB4_7TxtNode8new_textCskrHlX1vBtOp_16tsuzulint_parser
FNDA:9,_RINvMs0_NtCs9bJaZoOZVf6_13tsuzulint_ast4nodeNtB6_8NodeData16serialize_fieldsNtNtNtCs7QBYx3CHZnw_10serde_json5value3ser12SerializeMapECsjpSJrqRQcuS_14tsuzulint_wasm
FNDA:9,_RINvXNtCs9bJaZoOZVf6_13tsuzulint_ast4nodeNtB3_7TxtNodeNtNtCsdBCzScGN83d_10serde_core3ser9Serialize9serializeNtNtNtCs7QBYx3CHZnw_10serde_json5value3ser10SerializerECsjpSJrqRQcuS_14tsuzulint_wasm
FNDA:1,_RNvMs0_NtCs9bJaZoOZVf6_13tsuzulint_ast4nodeNtB5_8NodeData10code_blockCsjpSJrqRQcuS_14tsuzulint_wasm
FNDA:9,_RNvMs0_NtCs9bJaZoOZVf6_13tsuzulint_ast4nodeNtB5_8NodeData3newCsjpSJrqRQcuS_14tsuzulint_wasm
FNDA:1,_RNvMs0_NtCs9bJaZoOZVf6_13tsuzulint_ast4nodeNtB5_8NodeData4linkCsjpSJrqRQcuS_14tsuzulint_wasm
FNDA:1,_RNvMs0_NtCs9bJaZoOZVf6_13tsuzulint_ast4nodeNtB5_8NodeData4listCsjpSJrqRQcuS_14tsuzulint_wasm
FNDA:1,_RNvMs0_NtCs9bJaZoOZVf6_13tsuzulint_ast4nodeNtB5_8NodeData6headerCsjpSJrqRQcuS_14tsuzulint_wasm
FNDA:5,_RNvMs_NtCs9bJaZoOZVf6_13tsuzulint_ast4nodeNtB4_7TxtNode10new_parentCsjpSJrqRQcuS_14tsuzulint_wasm
FNDA:4,_RNvMs_NtCs9bJaZoOZVf6_13tsuzulint_ast4nodeNtB4_7TxtNode8new_textCsjpSJrqRQcuS_14tsuzulint_wasm
FNF:60
FNH:60
DA:93,48
DA:94,48
DA:95,48
DA:99,48
DA:100,48
DA:101,29
DA:102,29
DA:103,48
DA:104,17
DA:105,31
DA:106,48
DA:108,48
DA:110,48
DA:111,48
DA:113,48
DA:114,29
DA:115,19
DA:117,48
DA:118,17
DA:119,31
DA:121,48
DA:123,48
DA:124,48
DA:130,658
DA:131,658
DA:132,658
DA:133,658
DA:134,658
DA:135,658
DA:136,658
DA:137,658
DA:138,658
DA:142,390
DA:143,390
DA:144,390
DA:145,390
DA:146,390
DA:147,390
DA:148,390
DA:149,390
DA:150,390
DA:154,12
DA:155,12
DA:156,12
DA:157,12
DA:158,12
DA:159,12
DA:160,12
DA:161,12
DA:162,12
DA:166,5
DA:167,5
DA:168,5
DA:172,4
DA:173,4
DA:174,4
DA:181,3
DA:182,3
DA:183,3
DA:187,7
DA:188,7
DA:189,6
DA:190,1
DA:192,7
DA:196,4
DA:197,4
DA:198,3
DA:199,1
DA:200,0
DA:202,4
DA:206,4
DA:207,4
DA:208,3
DA:209,1
DA:210,0
DA:212,4
DA:216,3
DA:217,3
DA:218,2
DA:219,1
DA:221,3
DA:225,7
DA:226,7
DA:227,6
DA:228,1
DA:230,7
DA:234,2
DA:235,2
DA:236,1
DA:237,1
DA:238,0
DA:240,2
DA:244,2
DA:245,2
DA:246,1
DA:247,1
DA:248,0
DA:250,2
DA:255,48
DA:256,48
DA:257,42
DA:258,2
DA:259,1
DA:260,1
DA:261,1
DA:262,1
DA:264,0
DA:267,1
DA:268,1
DA:269,1
DA:271,0
DA:274,0
DA:275,0
DA:276,0
DA:278,0
DA:281,1
DA:282,1
DA:283,1
DA:284,1
DA:285,1
DA:286,1
DA:287,1
DA:288,1
DA:289,1
DA:292,48
DA:295,48
DA:296,48
DA:297,48
DA:298,48
DA:299,48
DA:300,42
DA:301,2
DA:302,2
DA:304,1
DA:305,1
DA:307,1
DA:308,1
DA:309,1
DA:310,0
DA:312,1
DA:313,1
DA:314,1
DA:315,1
DA:316,0
DA:318,0
DA:319,0
DA:320,0
DA:321,0
DA:322,0
DA:324,1
DA:325,1
DA:326,1
DA:327,1
DA:328,1
DA:329,0
DA:330,1
DA:331,1
DA:332,0
DA:335,48
DA:336,48
DA:340,1061
DA:341,1061
DA:342,1061
DA:346,82
DA:347,82
DA:348,82
DA:352,8
DA:353,8
DA:354,8
DA:358,2
DA:359,2
DA:360,2
DA:364,24
DA:365,24
DA:366,24
DA:370,19
DA:371,19
DA:372,19
DA:376,4
DA:377,4
DA:378,4
DA:382,5
DA:383,5
DA:384,5
DA:385,5
DA:386,5
DA:387,5
DA:388,5
DA:389,5
DA:390,5
DA:391,5
DA:392,5
DA:393,5
DA:394,5
DA:403,1
DA:404,1
DA:405,1
DA:406,1
DA:407,1
DA:409,1
DA:410,1
DA:411,1
DA:412,1
DA:415,1
DA:416,1
DA:418,1
DA:419,1
DA:420,1
DA:421,1
DA:422,1
DA:425,1
DA:426,1
DA:427,1
DA:428,1
DA:431,1
DA:432,1
DA:433,1
DA:434,1
DA:435,1
DA:436,1
DA:438,0
DA:440,1
DA:443,1
DA:444,1
DA:445,1
DA:446,1
DA:447,1
DA:448,1
DA:450,0
DA:452,1
DA:455,1
DA:456,1
DA:457,1
DA:458,1
DA:461,1
DA:462,1
DA:463,1
DA:464,1
DA:467,1
DA:468,1
DA:469,1
DA:470,1
DA:473,1
DA:474,1
DA:475,1
DA:476,1
DA:479,1
DA:480,1
DA:481,1
DA:482,1
DA:483,1
DA:484,1
DA:486,0
DA:488,1
DA:491,1
DA:492,1
DA:493,1
DA:494,1
DA:495,1
DA:496,1
DA:498,0
DA:500,1
DA:503,1
DA:504,1
DA:505,1
DA:506,1
DA:507,1
DA:508,1
DA:510,1
DA:511,1
DA:512,1
DA:513,1
DA:514,1
DA:515,1
DA:517,0
DA:519,1
DA:522,1
DA:523,1
DA:524,1
DA:525,1
DA:526,1
DA:527,1
DA:528,1
DA:529,1
DA:531,0
DA:533,1
DA:536,1
DA:537,1
DA:538,1
DA:539,1
DA:542,1
DA:543,1
DA:545,1
DA:546,1
DA:547,1
DA:548,1
DA:549,1
DA:552,1
DA:553,1
DA:555,1
DA:556,1
DA:557,1
DA:560,1
DA:561,1
DA:563,1
DA:564,1
DA:565,1
DA:567,1
DA:568,1
DA:570,1
DA:571,1
DA:572,1
DA:573,1
DA:574,1
DA:577,1
DA:578,1
DA:581,1
DA:582,1
DA:585,1
DA:586,1
DA:587,1
DA:588,1
DA:590,1
DA:593,1
DA:594,1
DA:596,1
DA:597,1
DA:598,1
DA:599,1
DA:602,1
DA:603,1
DA:604,1
DA:606,1
DA:607,1
DA:608,1
DA:611,1
DA:612,6
DA:613,6
DA:614,6
DA:616,1
DA:619,1
DA:620,1
DA:621,1
DA:622,1
DA:625,1
DA:626,1
DA:628,1
DA:629,1
DA:630,1
DA:633,1
DA:634,1
DA:636,1
DA:637,1
DA:638,1
DA:641,1
DA:642,1
DA:643,1
DA:644,1
DA:645,1
DA:646,1
DA:648,1
DA:649,1
DA:650,1
DA:651,1
DA:654,1
DA:655,1
DA:656,1
DA:657,1
DA:659,1
DA:660,1
DA:661,1
DA:664,1
DA:665,1
DA:666,1
DA:667,1
DA:668,1
DA:669,1
DA:670,1
DA:671,1
DA:672,1
DA:674,1
DA:675,1
DA:676,1
DA:677,1
DA:678,1
DA:679,1
DA:680,1
DA:681,1
DA:682,1
DA:683,1
DA:686,1
DA:687,1
DA:688,1
DA:689,1
DA:691,1
DA:692,1
DA:694,1
DA:695,1
DA:696,1
DA:699,1
DA:700,1
DA:701,1
DA:702,1
DA:704,1
DA:705,1
DA:707,1
DA:708,1
DA:709,1
DA:712,1
DA:713,1
DA:714,1
DA:715,1
DA:716,1
DA:717,1
DA:718,1
DA:720,1
DA:721,1
DA:722,1
DA:723,1
DA:724,1
DA:725,1
DA:726,1
DA:727,1
DA:728,1
DA:729,1
DA:732,1
DA:733,1
DA:734,1
DA:736,1
DA:737,1
DA:738,1
DA:739,1
DA:741,1
DA:742,1
DA:745,1
DA:746,1
DA:747,1
DA:748,1
DA:749,1
DA:751,1
DA:753,1
DA:754,1
DA:755,1
DA:756,1
DA:757,1
DA:758,1
DA:759,1
DA:762,1
DA:763,1
DA:764,1
DA:766,1
DA:768,1
DA:769,1
DA:770,1
DA:773,1
DA:775,1
DA:776,1
DA:778,1
DA:779,1
DA:780,1
DA:781,1
DA:784,1
DA:785,1
DA:786,1
DA:787,1
DA:788,1
DA:789,1
DA:790,1
DA:791,1
DA:793,1
DA:794,1
DA:798,1
DA:800,1
DA:801,1
DA:802,1
DA:803,1
DA:804,1
DA:807,1
DA:808,1
DA:809,1
DA:810,1
DA:814,1
DA:815,1
DA:816,1
DA:817,1
DA:820,1
DA:823,1
DA:824,1
DA:826,1
DA:827,1
DA:832,1
BRF:0
BRH:0
LF:491
LH:452
end_of_record
SF:/app/crates/tsuzulint_ast/src/node_type.rs
FN:119,_RNvMNtCs9bJaZoOZVf6_13tsuzulint_ast9node_typeNtB2_8NodeType9is_parentCsdHNy3eV5zAX_14tsuzulint_core
FN:147,_RNvXs_NtCs9bJaZoOZVf6_13tsuzulint_ast9node_typeNtB4_8NodeTypeNtNtCs4kUJL3MZFFz_4core3fmt7Display3fmt
FN:141,_RNvMNtCs9bJaZoOZVf6_13tsuzulint_ast9node_typeNtB2_8NodeType7is_textB4_
FN:80,_RNvMNtCs9bJaZoOZVf6_13tsuzulint_ast9node_typeNtB2_8NodeType8is_blockB4_
FN:100,_RNvMNtCs9bJaZoOZVf6_13tsuzulint_ast9node_typeNtB2_8NodeType9is_inlineB4_
FN:119,_RNvMNtCs9bJaZoOZVf6_13tsuzulint_ast9node_typeNtB2_8NodeType9is_parentB4_
FN:141,_RNvMNtCscCfipWx6sdZ_13tsuzulint_ast9node_typeNtB2_8NodeType7is_textB4_
FN:80,_RNvMNtCscCfipWx6sdZ_13tsuzulint_ast9node_typeNtB2_8NodeType8is_blockB4_
FN:100,_RNvMNtCscCfipWx6sdZ_13tsuzulint_ast9node_typeNtB2_8NodeType9is_inlineB4_
FN:119,_RNvMNtCscCfipWx6sdZ_13tsuzulint_ast9node_typeNtB2_8NodeType9is_parentB4_
FN:147,_RNvXs_NtCscCfipWx6sdZ_13tsuzulint_ast9node_typeNtB4_8NodeTypeNtNtCs4kUJL3MZFFz_4core3fmt7Display3fmt
FN:209,_RNvNtNtCscCfipWx6sdZ_13tsuzulint_ast9node_type5testss_12test_display
FN:252,_RNvNtNtCscCfipWx6sdZ_13tsuzulint_ast9node_type5testss_12test_is_text
FN:185,_RNvNtNtCscCfipWx6sdZ_13tsuzulint_ast9node_type5testss_13test_is_block
FN:193,_RNvNtNtCscCfipWx6sdZ_13tsuzulint_ast9node_type5testss_14test_is_inline
FN:201,_RNvNtNtCscCfipWx6sdZ_13tsuzulint_ast9node_type5testss_14test_is_parent
FN:359,_RNvNtNtCscCfipWx6sdZ_13tsuzulint_ast9node_type5testss_20test_node_type_clone
FN:366,_RNvNtNtCscCfipWx6sdZ_13tsuzulint_ast9node_type5testss_20test_node_type_debug
FN:216,_RNvNtNtCscCfipWx6sdZ_13tsuzulint_ast9node_type5testss_22test_display_all_types
FN:353,_RNvNtNtCscCfipWx6sdZ_13tsuzulint_ast9node_type5testss_23test_node_type_equality
FN:328,_RNvNtNtCscCfipWx6sdZ_13tsuzulint_ast9node_type5testss_24test_non_parent_elements
FN:372,_RNvNtNtCscCfipWx6sdZ_13tsuzulint_ast9node_type5testss_28test_node_type_serialization
FN:379,_RNvNtNtCscCfipWx6sdZ_13tsuzulint_ast9node_type5testss_30test_node_type_deserialization
FN:261,_RNvNtNtCscCfipWx6sdZ_13tsuzulint_ast9node_type5testss_33test_block_elements_comprehensive
FN:283,_RNvNtNtCscCfipWx6sdZ_13tsuzulint_ast9node_type5testss_34test_inline_elements_comprehensive
FN:304,_RNvNtNtCscCfipWx6sdZ_13tsuzulint_ast9node_type5testss_34test_parent_elements_comprehensive
FN:393,_RNvNtNtCscCfipWx6sdZ_13tsuzulint_ast9node_type5testss_35test_link_is_both_inline_and_parent
FN:386,_RNvNtNtCscCfipWx6sdZ_13tsuzulint_ast9node_type5testss_35test_table_cell_is_parent_not_block
FN:400,_RNvNtNtCscCfipWx6sdZ_13tsuzulint_ast9node_type5testss_38test_definition_is_not_block_or_inline
FN:119,_RNvMNtCs9bJaZoOZVf6_13tsuzulint_ast9node_typeNtB2_8NodeType9is_parentCs47f85yxqTTa_14tsuzulint_core
FN:119,_RNvMNtCs9bJaZoOZVf6_13tsuzulint_ast9node_typeNtB2_8NodeType9is_parentCsjpSJrqRQcuS_14tsuzulint_wasm
FNDA:0,_RNvMNtCs9bJaZoOZVf6_13tsuzulint_ast9node_typeNtB2_8NodeType9is_parentCsdHNy3eV5zAX_14tsuzulint_core
FNDA:0,_RNvXs_NtCs9bJaZoOZVf6_13tsuzulint_ast9node_typeNtB4_8NodeTypeNtNtCs4kUJL3MZFFz_4core3fmt7Display3fmt
FNDA:0,_RNvMNtCs9bJaZoOZVf6_13tsuzulint_ast9node_typeNtB2_8NodeType7is_textB4_
FNDA:0,_RNvMNtCs9bJaZoOZVf6_13tsuzulint_ast9node_typeNtB2_8NodeType8is_blockB4_
FNDA:0,_RNvMNtCs9bJaZoOZVf6_13tsuzulint_ast9node_typeNtB2_8NodeType9is_inlineB4_
FNDA:0,_RNvMNtCs9bJaZoOZVf6_13tsuzulint_ast9node_typeNtB2_8NodeType9is_parentB4_
FNDA:5,_RNvMNtCscCfipWx6sdZ_13tsuzulint_ast9node_typeNtB2_8NodeType7is_textB4_
FNDA:18,_RNvMNtCscCfipWx6sdZ_13tsuzulint_ast9node_typeNtB2_8NodeType8is_blockB4_
FNDA:17,_RNvMNtCscCfipWx6sdZ_13tsuzulint_ast9node_typeNtB2_8NodeType9is_inlineB4_
FNDA:45,_RNvMNtCscCfipWx6sdZ_13tsuzulint_ast9node_typeNtB2_8NodeType9is_parentB4_
FNDA:32,_RNvXs_NtCscCfipWx6sdZ_13tsuzulint_ast9node_typeNtB4_8NodeTypeNtNtCs4kUJL3MZFFz_4core3fmt7Display3fmt
FNDA:1,_RNvNtNtCscCfipWx6sdZ_13tsuzulint_ast9node_type5testss_12test_display
FNDA:1,_RNvNtNtCscCfipWx6sdZ_13tsuzulint_ast9node_type5testss_12test_is_text
FNDA:1,_RNvNtNtCscCfipWx6sdZ_13tsuzulint_ast9node_type5testss_13test_is_block
FNDA:1,_RNvNtNtCscCfipWx6sdZ_13tsuzulint_ast9node_type5testss_14test_is_inline
FNDA:1,_RNvNtNtCscCfipWx6sdZ_13tsuzulint_ast9node_type5testss_14test_is_parent
FNDA:1,_RNvNtNtCscCfipWx6sdZ_13tsuzulint_ast9node_type5testss_20test_node_type_clone
FNDA:1,_RNvNtNtCscCfipWx6sdZ_13tsuzulint_ast9node_type5testss_20test_node_type_debug
FNDA:1,_RNvNtNtCscCfipWx6sdZ_13tsuzulint_ast9node_type5testss_22test_display_all_types
FNDA:1,_RNvNtNtCscCfipWx6sdZ_13tsuzulint_ast9node_type5testss_23test_node_type_equality
FNDA:1,_RNvNtNtCscCfipWx6sdZ_13tsuzulint_ast9node_type5testss_24test_non_parent_elements
FNDA:1,_RNvNtNtCscCfipWx6sdZ_13tsuzulint_ast9node_type5testss_28test_node_type_serialization
FNDA:1,_RNvNtNtCscCfipWx6sdZ_13tsuzulint_ast9node_type5testss_30test_node_type_deserialization
FNDA:1,_RNvNtNtCscCfipWx6sdZ_13tsuzulint_ast9node_type5testss_33test_block_elements_comprehensive
FNDA:1,_RNvNtNtCscCfipWx6sdZ_13tsuzulint_ast9node_type5testss_34test_inline_elements_comprehensive
FNDA:1,_RNvNtNtCscCfipWx6sdZ_13tsuzulint_ast9node_type5testss_34test_parent_elements_comprehensive
FNDA:1,_RNvNtNtCscCfipWx6sdZ_13tsuzulint_ast9node_type5testss_35test_link_is_both_inline_and_parent
FNDA:1,_RNvNtNtCscCfipWx6sdZ_13tsuzulint_ast9node_type5testss_35test_table_cell_is_parent_not_block
FNDA:1,_RNvNtNtCscCfipWx6sdZ_13tsuzulint_ast9node_type5testss_38test_definition_is_not_block_or_inline
FNDA:64,_RNvMNtCs9bJaZoOZVf6_13tsuzulint_ast9node_typeNtB2_8NodeType9is_parentCs47f85yxqTTa_14tsuzulint_core
FNDA:18,_RNvMNtCs9bJaZoOZVf6_13tsuzulint_ast9node_typeNtB2_8NodeType9is_parentCsjpSJrqRQcuS_14tsuzulint_wasm
FNF:23
FNH:23
DA:80,18
DA:81,4
DA:82,18
DA:96,18
DA:100,17
DA:101,3
DA:102,17
DA:115,17
DA:119,127
DA:120,51
DA:121,127
DA:137,127
DA:141,5
DA:142,5
DA:143,5
DA:147,32
DA:149,32
DA:150,2
DA:151,3
DA:152,1
DA:153,1
DA:154,1
DA:155,1
DA:156,2
DA:157,1
DA:158,1
DA:159,4
DA:160,1
DA:161,1
DA:162,1
DA:163,1
DA:164,1
DA:165,1
DA:166,1
DA:167,1
DA:168,1
DA:169,1
DA:170,1
DA:171,1
DA:172,1
DA:173,1
DA:174,1
DA:176,32
DA:177,32
DA:185,1
DA:186,1
DA:187,1
DA:188,1
DA:189,1
DA:190,1
DA:193,1
DA:194,1
DA:195,1
DA:196,1
DA:197,1
DA:198,1
DA:201,1
DA:202,1
DA:203,1
DA:204,1
DA:205,1
DA:206,1
DA:209,1
DA:210,1
DA:211,1
DA:212,1
DA:213,1
DA:216,1
DA:218,1
DA:219,1
DA:220,1
DA:221,1
DA:222,1
DA:223,1
DA:224,1
DA:225,1
DA:226,1
DA:227,1
DA:228,1
DA:229,1
DA:230,1
DA:231,1
DA:232,1
DA:233,1
DA:234,1
DA:235,1
DA:236,1
DA:237,1
DA:238,1
DA:239,1
DA:240,1
DA:241,1
DA:242,1
DA:243,1
DA:246,25
DA:247,25
DA:249,1
DA:252,1
DA:253,1
DA:254,1
DA:255,1
DA:256,1
DA:257,1
DA:258,1
DA:261,1
DA:262,1
DA:263,1
DA:264,1
DA:265,1
DA:266,1
DA:267,1
DA:268,1
DA:269,1
DA:270,1
DA:271,1
DA:272,1
DA:273,1
DA:274,1
DA:277,12
DA:278,12
DA:280,1
DA:283,1
DA:284,1
DA:285,1
DA:286,1
DA:287,1
DA:288,1
DA:289,1
DA:290,1
DA:291,1
DA:292,1
DA:293,1
DA:294,1
DA:295,1
DA:298,11
DA:299,11
DA:301,1
DA:304,1
DA:305,1
DA:306,1
DA:307,1
DA:308,1
DA:309,1
DA:310,1
DA:311,1
DA:312,1
DA:313,1
DA:314,1
DA:315,1
DA:316,1
DA:317,1
DA:318,1
DA:319,1
DA:322,14
DA:323,14
DA:325,1
DA:328,1
DA:329,1
DA:330,1
DA:331,1
DA:332,1
DA:333,1
DA:334,1
DA:335,1
DA:336,1
DA:337,1
DA:338,1
DA:339,1
DA:340,1
DA:343,11
DA:344,11
DA:345,11
DA:350,1
DA:353,1
DA:354,1
DA:355,1
DA:356,1
DA:359,1
DA:360,1
DA:361,1
DA:362,1
DA:363,1
DA:366,1
DA:367,1
DA:368,1
DA:369,1
DA:372,1
DA:373,1
DA:374,1
DA:375,1
DA:376,1
DA:379,1
DA:380,1
DA:381,1
DA:382,1
DA:383,1
DA:386,1
DA:388,1
DA:389,1
DA:390,1
DA:393,1
DA:395,1
DA:396,1
DA:397,1
DA:400,1
DA:402,1
DA:403,1
DA:404,1
BRF:0
BRH:0
LF:208
LH:208
end_of_record
SF:/app/crates/tsuzulint_ast/src/span.rs
FN:50,_RNvMs_NtCs9bJaZoOZVf6_13tsuzulint_ast4spanNtB4_4Span3newCsdHNy3eV5zAX_14tsuzulint_core
FN:50,_RNvMs_NtCs9bJaZoOZVf6_13tsuzulint_ast4spanNtB4_4Span3newCs6rVTX6UnG69_16tsuzulint_parser
FN:50,_RNvMs_NtCs9bJaZoOZVf6_13tsuzulint_ast4spanNtB4_4Span3newCs4O9HcfwEIU_15tsuzulint_cache
FN:27,_RNvMNtCs9bJaZoOZVf6_13tsuzulint_ast4spanNtB2_8Position3newB4_
FN:108,_RNvMs0_NtCs9bJaZoOZVf6_13tsuzulint_ast4spanNtB5_8Location3newB7_
FN:56,_RNvMs_NtCs9bJaZoOZVf6_13tsuzulint_ast4spanNtB4_4Span3lenB6_
FN:50,_RNvMs_NtCs9bJaZoOZVf6_13tsuzulint_ast4spanNtB4_4Span3newB6_
FN:74,_RNvMs_NtCs9bJaZoOZVf6_13tsuzulint_ast4spanNtB4_4Span5mergeB6_
FN:68,_RNvMs_NtCs9bJaZoOZVf6_13tsuzulint_ast4spanNtB4_4Span8containsB6_
FN:62,_RNvMs_NtCs9bJaZoOZVf6_13tsuzulint_ast4spanNtB4_4Span8is_emptyB6_
FN:27,_RNvMNtCscCfipWx6sdZ_13tsuzulint_ast4spanNtB2_8Position3newB4_
FN:108,_RNvMs0_NtCscCfipWx6sdZ_13tsuzulint_ast4spanNtB5_8Location3newB7_
FN:56,_RNvMs_NtCscCfipWx6sdZ_13tsuzulint_ast4spanNtB4_4Span3lenB6_
FN:50,_RNvMs_NtCscCfipWx6sdZ_13tsuzulint_ast4spanNtB4_4Span3newB6_
FN:74,_RNvMs_NtCscCfipWx6sdZ_13tsuzulint_ast4spanNtB4_4Span5mergeB6_
FN:68,_RNvMs_NtCscCfipWx6sdZ_13tsuzulint_ast4spanNtB4_4Span8containsB6_
FN:62,_RNvMs_NtCscCfipWx6sdZ_13tsuzulint_ast4spanNtB4_4Span8is_emptyB6_
FN:151,_RNvNtNtCscCfipWx6sdZ_13tsuzulint_ast4span5testss_13test_location
FN:118,_RNvNtNtCscCfipWx6sdZ_13tsuzulint_ast4span5testss_13test_position
FN:144,_RNvNtNtCscCfipWx6sdZ_13tsuzulint_ast4span5testss_15test_empty_span
FN:135,_RNvNtNtCscCfipWx6sdZ_13tsuzulint_ast4span5testss_15test_span_merge
FN:285,_RNvNtNtCscCfipWx6sdZ_13tsuzulint_ast4span5testss_17test_span_at_zero
FN:224,_RNvNtNtCscCfipWx6sdZ_13tsuzulint_ast4span5testss_18test_span_equality
FN:292,_RNvNtNtCscCfipWx6sdZ_13tsuzulint_ast4span5testss_21test_single_byte_span
FN:234,_RNvNtNtCscCfipWx6sdZ_13tsuzulint_ast4span5testss_22test_location_equality
FN:214,_RNvNtNtCscCfipWx6sdZ_13tsuzulint_ast4span5testss_22test_position_equality
FN:244,_RNvNtNtCscCfipWx6sdZ_13tsuzulint_ast4span5testss_23test_span_serialization
FN:276,_RNvNtNtCscCfipWx6sdZ_13tsuzulint_ast4span5testss_24test_empty_span_contains
FN:163,_RNvNtNtCscCfipWx6sdZ_13tsuzulint_ast4span5testss_24test_span_contains_start
FN:252,_RNvNtNtCscCfipWx6sdZ_13tsuzulint_ast4span5testss_25test_span_deserialization
FN:195,_RNvNtNtCscCfipWx6sdZ_13tsuzulint_ast4span5testss_25test_span_merge_same_span
FN:185,_RNvNtNtCscCfipWx6sdZ_13tsuzulint_ast4span5testss_26test_span_merge_containing
FN:268,_RNvNtNtCscCfipWx6sdZ_13tsuzulint_ast4span5testss_27test_location_serialization
FN:260,_RNvNtNtCscCfipWx6sdZ_13tsuzulint_ast4span5testss_27test_position_serialization
FN:204,_RNvNtNtCscCfipWx6sdZ_13tsuzulint_ast4span5testss_30test_span_merge_reversed_order
FN:175,_RNvNtNtCscCfipWx6sdZ_13tsuzulint_ast4span5testss_31test_span_merge_non_overlapping
FN:169,_RNvNtNtCscCfipWx6sdZ_13tsuzulint_ast4span5testss_32test_span_contains_end_exclusive
FN:125,_RNvNtNtCscCfipWx6sdZ_13tsuzulint_ast4span5testss_9test_span
FN:50,_RNvMs_NtCs9bJaZoOZVf6_13tsuzulint_ast4spanNtB4_4Span3newCs33dqzhFZ8Xr_15tsuzulint_cache
FN:27,_RNvMNtCs9bJaZoOZVf6_13tsuzulint_ast4spanNtB2_8Position3newCs47f85yxqTTa_14tsuzulint_core
FN:108,_RNvMs0_NtCs9bJaZoOZVf6_13tsuzulint_ast4spanNtB5_8Location3newCs47f85yxqTTa_14tsuzulint_core
FN:50,_RNvMs_NtCs9bJaZoOZVf6_13tsuzulint_ast4spanNtB4_4Span3newCs47f85yxqTTa_14tsuzulint_core
FN:50,_RNvMs_NtCs9bJaZoOZVf6_13tsuzulint_ast4spanNtB4_4Span3newCslSoYyaIRsdV_13tsuzulint_lsp
FN:50,_RNvMs_NtCs9bJaZoOZVf6_13tsuzulint_ast4spanNtB4_4Span3newCskrHlX1vBtOp_16tsuzulint_parser
FN:27,_RNvMNtCs9bJaZoOZVf6_13tsuzulint_ast4spanNtB2_8Position3newCseEA81XnnazN_16tsuzulint_plugin
FN:108,_RNvMs0_NtCs9bJaZoOZVf6_13tsuzulint_ast4spanNtB5_8Location3newCseEA81XnnazN_16tsuzulint_plugin
FN:50,_RNvMs_NtCs9bJaZoOZVf6_13tsuzulint_ast4spanNtB4_4Span3newCseEA81XnnazN_16tsuzulint_plugin
FN:50,_RNvMs_NtCs9bJaZoOZVf6_13tsuzulint_ast4spanNtB4_4Span3newCsjpSJrqRQcuS_14tsuzulint_wasm
FNDA:0,_RNvMs_NtCs9bJaZoOZVf6_13tsuzulint_ast4spanNtB4_4Span3newCsdHNy3eV5zAX_14tsuzulint_core
FNDA:490,_RNvMs_NtCs9bJaZoOZVf6_13tsuzulint_ast4spanNtB4_4Span3newCs6rVTX6UnG69_16tsuzulint_parser
FNDA:0,_RNvMs_NtCs9bJaZoOZVf6_13tsuzulint_ast4spanNtB4_4Span3newCs4O9HcfwEIU_15tsuzulint_cache
FNDA:0,_RNvMNtCs9bJaZoOZVf6_13tsuzulint_ast4spanNtB2_8Position3newB4_
FNDA:0,_RNvMs0_NtCs9bJaZoOZVf6_13tsuzulint_ast4spanNtB5_8Location3newB7_
FNDA:0,_RNvMs_NtCs9bJaZoOZVf6_13tsuzulint_ast4spanNtB4_4Span3lenB6_
FNDA:0,_RNvMs_NtCs9bJaZoOZVf6_13tsuzulint_ast4spanNtB4_4Span3newB6_
FNDA:0,_RNvMs_NtCs9bJaZoOZVf6_13tsuzulint_ast4spanNtB4_4Span5mergeB6_
FNDA:0,_RNvMs_NtCs9bJaZoOZVf6_13tsuzulint_ast4spanNtB4_4Span8containsB6_
FNDA:0,_RNvMs_NtCs9bJaZoOZVf6_13tsuzulint_ast4spanNtB4_4Span8is_emptyB6_
FNDA:15,_RNvMNtCscCfipWx6sdZ_13tsuzulint_ast4spanNtB2_8Position3newB4_
FNDA:5,_RNvMs0_NtCscCfipWx6sdZ_13tsuzulint_ast4spanNtB5_8Location3newB7_
FNDA:4,_RNvMs_NtCscCfipWx6sdZ_13tsuzulint_ast4spanNtB4_4Span3lenB6_
FNDA:83,_RNvMs_NtCscCfipWx6sdZ_13tsuzulint_ast4spanNtB4_4Span3newB6_
FNDA:5,_RNvMs_NtCscCfipWx6sdZ_13tsuzulint_ast4spanNtB4_4Span5mergeB6_
FNDA:11,_RNvMs_NtCscCfipWx6sdZ_13tsuzulint_ast4spanNtB4_4Span8containsB6_
FNDA:3,_RNvMs_NtCscCfipWx6sdZ_13tsuzulint_ast4spanNtB4_4Span8is_emptyB6_
FNDA:1,_RNvNtNtCscCfipWx6sdZ_13tsuzulint_ast4span5testss_13test_location
FNDA:1,_RNvNtNtCscCfipWx6sdZ_13tsuzulint_ast4span5testss_13test_position
FNDA:1,_RNvNtNtCscCfipWx6sdZ_13tsuzulint_ast4span5testss_15test_empty_span
FNDA:1,_RNvNtNtCscCfipWx6sdZ_13tsuzulint_ast4span5testss_15test_span_merge
FNDA:1,_RNvNtNtCscCfipWx6sdZ_13tsuzulint_ast4span5testss_17test_span_at_zero
FNDA:1,_RNvNtNtCscCfipWx6sdZ_13tsuzulint_ast4span5testss_18test_span_equality
FNDA:1,_RNvNtNtCscCfipWx6sdZ_13tsuzulint_ast4span5testss_21test_single_byte_span
FNDA:1,_RNvNtNtCscCfipWx6sdZ_13tsuzulint_ast4span5testss_22test_location_equality
FNDA:1,_RNvNtNtCscCfipWx6sdZ_13tsuzulint_ast4span5testss_22test_position_equality
FNDA:1,_RNvNtNtCscCfipWx6sdZ_13tsuzulint_ast4span5testss_23test_span_serialization
FNDA:1,_RNvNtNtCscCfipWx6sdZ_13tsuzulint_ast4span5testss_24test_empty_span_contains
FNDA:1,_RNvNtNtCscCfipWx6sdZ_13tsuzulint_ast4span5testss_24test_span_contains_start
FNDA:1,_RNvNtNtCscCfipWx6sdZ_13tsuzulint_ast4span5testss_25test_span_deserialization
FNDA:1,_RNvNtNtCscCfipWx6sdZ_13tsuzulint_ast4span5testss_25test_span_merge_same_span
FNDA:1,_RNvNtNtCscCfipWx6sdZ_13tsuzulint_ast4span5testss_26test_span_merge_containing
FNDA:1,_RNvNtNtCscCfipWx6sdZ_13tsuzulint_ast4span5testss_27test_location_serialization
FNDA:1,_RNvNtNtCscCfipWx6sdZ_13tsuzulint_ast4span5testss_27test_position_serialization
FNDA:1,_RNvNtNtCscCfipWx6sdZ_13tsuzulint_ast4span5testss_30test_span_merge_reversed_order
FNDA:1,_RNvNtNtCscCfipWx6sdZ_13tsuzulint_ast4span5testss_31test_span_merge_non_overlapping
FNDA:1,_RNvNtNtCscCfipWx6sdZ_13tsuzulint_ast4span5testss_32test_span_contains_end_exclusive
FNDA:1,_RNvNtNtCscCfipWx6sdZ_13tsuzulint_ast4span5testss_9test_span
FNDA:29,_RNvMs_NtCs9bJaZoOZVf6_13tsuzulint_ast4spanNtB4_4Span3newCs33dqzhFZ8Xr_15tsuzulint_cache
FNDA:2,_RNvMNtCs9bJaZoOZVf6_13tsuzulint_ast4spanNtB2_8Position3newCs47f85yxqTTa_14tsuzulint_core
FNDA:1,_RNvMs0_NtCs9bJaZoOZVf6_13tsuzulint_ast4spanNtB5_8Location3newCs47f85yxqTTa_14tsuzulint_core
FNDA:382,_RNvMs_NtCs9bJaZoOZVf6_13tsuzulint_ast4spanNtB4_4Span3newCs47f85yxqTTa_14tsuzulint_core
FNDA:18,_RNvMs_NtCs9bJaZoOZVf6_13tsuzulint_ast4spanNtB4_4Span3newCslSoYyaIRsdV_13tsuzulint_lsp
FNDA:210,_RNvMs_NtCs9bJaZoOZVf6_13tsuzulint_ast4spanNtB4_4Span3newCskrHlX1vBtOp_16tsuzulint_parser
FNDA:4,_RNvMNtCs9bJaZoOZVf6_13tsuzulint_ast4spanNtB2_8Position3newCseEA81XnnazN_16tsuzulint_plugin
FNDA:2,_RNvMs0_NtCs9bJaZoOZVf6_13tsuzulint_ast4spanNtB5_8Location3newCseEA81XnnazN_16tsuzulint_plugin
FNDA:35,_RNvMs_NtCs9bJaZoOZVf6_13tsuzulint_ast4spanNtB4_4Span3newCseEA81XnnazN_16tsuzulint_plugin
FNDA:9,_RNvMs_NtCs9bJaZoOZVf6_13tsuzulint_ast4spanNtB4_4Span3newCsjpSJrqRQcuS_14tsuzulint_wasm
FNF:28
FNH:28
DA:27,21
DA:28,21
DA:29,21
DA:50,1256
DA:51,1256
DA:52,1256
DA:56,4
DA:57,4
DA:58,4
DA:62,3
DA:63,3
DA:64,3
DA:68,11
DA:69,11
DA:70,11
DA:74,5
DA:76,5
DA:77,3
DA:79,2
DA:81,5
DA:82,2
DA:84,3
DA:87,5
DA:108,8
DA:109,8
DA:110,8
DA:118,1
DA:119,1
DA:120,1
DA:121,1
DA:122,1
DA:125,1
DA:126,1
DA:127,1
DA:128,1
DA:129,1
DA:130,1
DA:131,1
DA:132,1
DA:135,1
DA:136,1
DA:137,1
DA:138,1
DA:139,1
DA:140,1
DA:141,1
DA:144,1
DA:145,1
DA:146,1
DA:147,1
DA:148,1
DA:151,1
DA:152,1
DA:153,1
DA:154,1
DA:156,1
DA:157,1
DA:158,1
DA:159,1
DA:160,1
DA:163,1
DA:164,1
DA:165,1
DA:166,1
DA:169,1
DA:170,1
DA:171,1
DA:172,1
DA:175,1
DA:176,1
DA:177,1
DA:178,1
DA:180,1
DA:181,1
DA:182,1
DA:185,1
DA:186,1
DA:187,1
DA:188,1
DA:190,1
DA:191,1
DA:192,1
DA:195,1
DA:196,1
DA:197,1
DA:199,1
DA:200,1
DA:201,1
DA:204,1
DA:205,1
DA:206,1
DA:207,1
DA:209,1
DA:210,1
DA:211,1
DA:214,1
DA:215,1
DA:216,1
DA:217,1
DA:219,1
DA:220,1
DA:221,1
DA:224,1
DA:225,1
DA:226,1
DA:227,1
DA:229,1
DA:230,1
DA:231,1
DA:234,1
DA:235,1
DA:236,1
DA:237,1
DA:239,1
DA:240,1
DA:241,1
DA:244,1
DA:245,1
DA:246,1
DA:247,1
DA:248,1
DA:249,1
DA:252,1
DA:253,1
DA:254,1
DA:255,1
DA:256,1
DA:257,1
DA:260,1
DA:261,1
DA:262,1
DA:263,1
DA:264,1
DA:265,1
DA:268,1
DA:269,1
DA:270,1
DA:271,1
DA:272,1
DA:273,1
DA:276,1
DA:277,1
DA:279,1
DA:280,1
DA:281,1
DA:282,1
DA:285,1
DA:286,1
DA:287,1
DA:288,1
DA:289,1
DA:292,1
DA:293,1
DA:294,1
DA:295,1
DA:296,1
DA:297,1
DA:298,1
BRF:0
BRH:0
LF:158
LH:158
end_of_record
SF:/app/crates/tsuzulint_ast/src/visitor/visit.rs
FN:69,_RNvYNtNvNtCsdHNy3eV5zAX_14tsuzulint_core12ignore_range21extract_ignore_ranges18CodeRangeCollectorNtNtNtCs9bJaZoOZVf6_13tsuzulint_ast7visitor5visit7Visitor10enter_nodeB8_
FN:130,_RNvYNtNvNtCsdHNy3eV5zAX_14tsuzulint_core12ignore_range21extract_ignore_ranges18CodeRangeCollectorNtNtNtCs9bJaZoOZVf6_13tsuzulint_ast7visitor5visit7Visitor10visit_htmlB8_
FN:167,_RNvYNtNvNtCsdHNy3eV5zAX_14tsuzulint_core12ignore_range21extract_ignore_ranges18CodeRangeCollectorNtNtNtCs9bJaZoOZVf6_13tsuzulint_ast7visitor5visit7Visitor10visit_linkB8_
FN:110,_RNvYNtNvNtCsdHNy3eV5zAX_14tsuzulint_core12ignore_range21extract_ignore_ranges18CodeRangeCollectorNtNtNtCs9bJaZoOZVf6_13tsuzulint_ast7visitor5visit7Visitor10visit_listB8_
FN:142,_RNvYNtNvNtCsdHNy3eV5zAX_14tsuzulint_core12ignore_range21extract_ignore_ranges18CodeRangeCollectorNtNtNtCs9bJaZoOZVf6_13tsuzulint_ast7visitor5visit7Visitor11visit_breakB8_
FN:172,_RNvYNtNvNtCsdHNy3eV5zAX_14tsuzulint_core12ignore_range21extract_ignore_ranges18CodeRangeCollectorNtNtNtCs9bJaZoOZVf6_13tsuzulint_ast7visitor5visit7Visitor11visit_imageB8_
FN:196,_RNvYNtNvNtCsdHNy3eV5zAX_14tsuzulint_core12ignore_range21extract_ignore_ranges18CodeRangeCollectorNtNtNtCs9bJaZoOZVf6_13tsuzulint_ast7visitor5visit7Visitor11visit_tableB8_
FN:157,_RNvYNtNvNtCsdHNy3eV5zAX_14tsuzulint_core12ignore_range21extract_ignore_ranges18CodeRangeCollectorNtNtNtCs9bJaZoOZVf6_13tsuzulint_ast7visitor5visit7Visitor12visit_deleteB8_
FN:100,_RNvYNtNvNtCsdHNy3eV5zAX_14tsuzulint_core12ignore_range21extract_ignore_ranges18CodeRangeCollectorNtNtNtCs9bJaZoOZVf6_13tsuzulint_ast7visitor5visit7Visitor12visit_headerB8_
FN:152,_RNvYNtNvNtCsdHNy3eV5zAX_14tsuzulint_core12ignore_range21extract_ignore_ranges18CodeRangeCollectorNtNtNtCs9bJaZoOZVf6_13tsuzulint_ast7visitor5visit7Visitor12visit_strongB8_
FN:90,_RNvYNtNvNtCsdHNy3eV5zAX_14tsuzulint_core12ignore_range21extract_ignore_ranges18CodeRangeCollectorNtNtNtCs9bJaZoOZVf6_13tsuzulint_ast7visitor5visit7Visitor14visit_documentB8_
FN:147,_RNvYNtNvNtCsdHNy3eV5zAX_14tsuzulint_core12ignore_range21extract_ignore_ranges18CodeRangeCollectorNtNtNtCs9bJaZoOZVf6_13tsuzulint_ast7visitor5visit7Visitor14visit_emphasisB8_
FN:115,_RNvYNtNvNtCsdHNy3eV5zAX_14tsuzulint_core12ignore_range21extract_ignore_ranges18CodeRangeCollectorNtNtNtCs9bJaZoOZVf6_13tsuzulint_ast7visitor5visit7Visitor15visit_list_itemB8_
FN:95,_RNvYNtNvNtCsdHNy3eV5zAX_14tsuzulint_core12ignore_range21extract_ignore_ranges18CodeRangeCollectorNtNtNtCs9bJaZoOZVf6_13tsuzulint_ast7visitor5visit7Visitor15visit_paragraphB8_
FN:201,_RNvYNtNvNtCsdHNy3eV5zAX_14tsuzulint_core12ignore_range21extract_ignore_ranges18CodeRangeCollectorNtNtNtCs9bJaZoOZVf6_13tsuzulint_ast7visitor5visit7Visitor15visit_table_rowB8_
FN:189,_RNvYNtNvNtCsdHNy3eV5zAX_14tsuzulint_core12ignore_range21extract_ignore_ranges18CodeRangeCollectorNtNtNtCs9bJaZoOZVf6_13tsuzulint_ast7visitor5visit7Visitor16visit_definitionB8_
FN:206,_RNvYNtNvNtCsdHNy3eV5zAX_14tsuzulint_core12ignore_range21extract_ignore_ranges18CodeRangeCollectorNtNtNtCs9bJaZoOZVf6_13tsuzulint_ast7visitor5visit7Visitor16visit_table_cellB8_
FN:105,_RNvYNtNvNtCsdHNy3eV5zAX_14tsuzulint_core12ignore_range21extract_ignore_ranges18CodeRangeCollectorNtNtNtCs9bJaZoOZVf6_13tsuzulint_ast7visitor5visit7Visitor17visit_block_quoteB8_
FN:179,_RNvYNtNvNtCsdHNy3eV5zAX_14tsuzulint_core12ignore_range21extract_ignore_ranges18CodeRangeCollectorNtNtNtCs9bJaZoOZVf6_13tsuzulint_ast7visitor5visit7Visitor20visit_link_referenceB8_
FN:125,_RNvYNtNvNtCsdHNy3eV5zAX_14tsuzulint_core12ignore_range21extract_ignore_ranges18CodeRangeCollectorNtNtNtCs9bJaZoOZVf6_13tsuzulint_ast7visitor5visit7Visitor21visit_horizontal_ruleB8_
FN:184,_RNvYNtNvNtCsdHNy3eV5zAX_14tsuzulint_core12ignore_range21extract_ignore_ranges18CodeRangeCollectorNtNtNtCs9bJaZoOZVf6_13tsuzulint_ast7visitor5visit7Visitor21visit_image_referenceB8_
FN:218,_RNvYNtNvNtCsdHNy3eV5zAX_14tsuzulint_core12ignore_range21extract_ignore_ranges18CodeRangeCollectorNtNtNtCs9bJaZoOZVf6_13tsuzulint_ast7visitor5visit7Visitor24visit_footnote_referenceB8_
FN:213,_RNvYNtNvNtCsdHNy3eV5zAX_14tsuzulint_core12ignore_range21extract_ignore_ranges18CodeRangeCollectorNtNtNtCs9bJaZoOZVf6_13tsuzulint_ast7visitor5visit7Visitor25visit_footnote_definitionB8_
FN:75,_RNvYNtNvNtCsdHNy3eV5zAX_14tsuzulint_core12ignore_range21extract_ignore_ranges18CodeRangeCollectorNtNtNtCs9bJaZoOZVf6_13tsuzulint_ast7visitor5visit7Visitor9exit_nodeB8_
FN:137,_RNvYNtNvNtCsdHNy3eV5zAX_14tsuzulint_core12ignore_range21extract_ignore_ranges18CodeRangeCollectorNtNtNtCs9bJaZoOZVf6_13tsuzulint_ast7visitor5visit7Visitor9visit_strB8_
FN:69,_RNvYpNtNtNtCs9bJaZoOZVf6_13tsuzulint_ast7visitor5visit7Visitor10enter_nodeB9_
FN:162,_RNvYpNtNtNtCs9bJaZoOZVf6_13tsuzulint_ast7visitor5visit7Visitor10visit_codeB9_
FN:130,_RNvYpNtNtNtCs9bJaZoOZVf6_13tsuzulint_ast7visitor5visit7Visitor10visit_htmlB9_
FN:167,_RNvYpNtNtNtCs9bJaZoOZVf6_13tsuzulint_ast7visitor5visit7Visitor10visit_linkB9_
FN:110,_RNvYpNtNtNtCs9bJaZoOZVf6_13tsuzulint_ast7visitor5visit7Visitor10visit_listB9_
FN:83,_RNvYpNtNtNtCs9bJaZoOZVf6_13tsuzulint_ast7visitor5visit7Visitor10visit_nodeB9_
FN:142,_RNvYpNtNtNtCs9bJaZoOZVf6_13tsuzulint_ast7visitor5visit7Visitor11visit_breakB9_
FN:172,_RNvYpNtNtNtCs9bJaZoOZVf6_13tsuzulint_ast7visitor5visit7Visitor11visit_imageB9_
FN:196,_RNvYpNtNtNtCs9bJaZoOZVf6_13tsuzulint_ast7visitor5visit7Visitor11visit_tableB9_
FN:157,_RNvYpNtNtNtCs9bJaZoOZVf6_13tsuzulint_ast7visitor5visit7Visitor12visit_deleteB9_
FN:100,_RNvYpNtNtNtCs9bJaZoOZVf6_13tsuzulint_ast7visitor5visit7Visitor12visit_headerB9_
FN:152,_RNvYpNtNtNtCs9bJaZoOZVf6_13tsuzulint_ast7visitor5visit7Visitor12visit_strongB9_
FN:90,_RNvYpNtNtNtCs9bJaZoOZVf6_13tsuzulint_ast7visitor5visit7Visitor14visit_documentB9_
FN:147,_RNvYpNtNtNtCs9bJaZoOZVf6_13tsuzulint_ast7visitor5visit7Visitor14visit_emphasisB9_
FN:115,_RNvYpNtNtNtCs9bJaZoOZVf6_13tsuzulint_ast7visitor5visit7Visitor15visit_list_itemB9_
FN:95,_RNvYpNtNtNtCs9bJaZoOZVf6_13tsuzulint_ast7visitor5visit7Visitor15visit_paragraphB9_
FN:201,_RNvYpNtNtNtCs9bJaZoOZVf6_13tsuzulint_ast7visitor5visit7Visitor15visit_table_rowB9_
FN:120,_RNvYpNtNtNtCs9bJaZoOZVf6_13tsuzulint_ast7visitor5visit7Visitor16visit_code_blockB9_
FN:189,_RNvYpNtNtNtCs9bJaZoOZVf6_13tsuzulint_ast7visitor5visit7Visitor16visit_definitionB9_
FN:206,_RNvYpNtNtNtCs9bJaZoOZVf6_13tsuzulint_ast7visitor5visit7Visitor16visit_table_cellB9_
FN:105,_RNvYpNtNtNtCs9bJaZoOZVf6_13tsuzulint_ast7visitor5visit7Visitor17visit_block_quoteB9_
FN:179,_RNvYpNtNtNtCs9bJaZoOZVf6_13tsuzulint_ast7visitor5visit7Visitor20visit_link_referenceB9_
FN:125,_RNvYpNtNtNtCs9bJaZoOZVf6_13tsuzulint_ast7visitor5visit7Visitor21visit_horizontal_ruleB9_
FN:184,_RNvYpNtNtNtCs9bJaZoOZVf6_13tsuzulint_ast7visitor5visit7Visitor21visit_image_referenceB9_
FN:218,_RNvYpNtNtNtCs9bJaZoOZVf6_13tsuzulint_ast7visitor5visit7Visitor24visit_footnote_referenceB9_
FN:213,_RNvYpNtNtNtCs9bJaZoOZVf6_13tsuzulint_ast7visitor5visit7Visitor25visit_footnote_definitionB9_
FN:75,_RNvYpNtNtNtCs9bJaZoOZVf6_13tsuzulint_ast7visitor5visit7Visitor9exit_nodeB9_
FN:137,_RNvYpNtNtNtCs9bJaZoOZVf6_13tsuzulint_ast7visitor5visit7Visitor9visit_strB9_
FN:83,_RNvYpNtNtNtCscCfipWx6sdZ_13tsuzulint_ast7visitor5visit7Visitor10visit_nodeB9_
FN:162,_RNvYNtNtNtNtCscCfipWx6sdZ_13tsuzulint_ast7visitor4walk5tests11NodeCounterNtNtB8_5visit7Visitor10visit_codeBa_
FN:130,_RNvYNtNtNtNtCscCfipWx6sdZ_13tsuzulint_ast7visitor4walk5tests11NodeCounterNtNtB8_5visit7Visitor10visit_htmlBa_
FN:167,_RNvYNtNtNtNtCscCfipWx6sdZ_13tsuzulint_ast7visitor4walk5tests11NodeCounterNtNtB8_5visit7Visitor10visit_linkBa_
FN:110,_RNvYNtNtNtNtCscCfipWx6sdZ_13tsuzulint_ast7visitor4walk5tests11NodeCounterNtNtB8_5visit7Visitor10visit_listBa_
FN:142,_RNvYNtNtNtNtCscCfipWx6sdZ_13tsuzulint_ast7visitor4walk5tests11NodeCounterNtNtB8_5visit7Visitor11visit_breakBa_
FN:172,_RNvYNtNtNtNtCscCfipWx6sdZ_13tsuzulint_ast7visitor4walk5tests11NodeCounterNtNtB8_5visit7Visitor11visit_imageBa_
FN:196,_RNvYNtNtNtNtCscCfipWx6sdZ_13tsuzulint_ast7visitor4walk5tests11NodeCounterNtNtB8_5visit7Visitor11visit_tableBa_
FN:157,_RNvYNtNtNtNtCscCfipWx6sdZ_13tsuzulint_ast7visitor4walk5tests11NodeCounterNtNtB8_5visit7Visitor12visit_deleteBa_
FN:100,_RNvYNtNtNtNtCscCfipWx6sdZ_13tsuzulint_ast7visitor4walk5tests11NodeCounterNtNtB8_5visit7Visitor12visit_headerBa_
FN:152,_RNvYNtNtNtNtCscCfipWx6sdZ_13tsuzulint_ast7visitor4walk5tests11NodeCounterNtNtB8_5visit7Visitor12visit_strongBa_
FN:147,_RNvYNtNtNtNtCscCfipWx6sdZ_13tsuzulint_ast7visitor4walk5tests11NodeCounterNtNtB8_5visit7Visitor14visit_emphasisBa_
FN:115,_RNvYNtNtNtNtCscCfipWx6sdZ_13tsuzulint_ast7visitor4walk5tests11NodeCounterNtNtB8_5visit7Visitor15visit_list_itemBa_
FN:201,_RNvYNtNtNtNtCscCfipWx6sdZ_13tsuzulint_ast7visitor4walk5tests11NodeCounterNtNtB8_5visit7Visitor15visit_table_rowBa_
FN:120,_RNvYNtNtNtNtCscCfipWx6sdZ_13tsuzulint_ast7visitor4walk5tests11NodeCounterNtNtB8_5visit7Visitor16visit_code_blockBa_
FN:189,_RNvYNtNtNtNtCscCfipWx6sdZ_13tsuzulint_ast7visitor4walk5tests11NodeCounterNtNtB8_5visit7Visitor16visit_definitionBa_
FN:206,_RNvYNtNtNtNtCscCfipWx6sdZ_13tsuzulint_ast7visitor4walk5tests11NodeCounterNtNtB8_5visit7Visitor16visit_table_cellBa_
FN:105,_RNvYNtNtNtNtCscCfipWx6sdZ_13tsuzulint_ast7visitor4walk5tests11NodeCounterNtNtB8_5visit7Visitor17visit_block_quoteBa_
FN:179,_RNvYNtNtNtNtCscCfipWx6sdZ_13tsuzulint_ast7visitor4walk5tests11NodeCounterNtNtB8_5visit7Visitor20visit_link_referenceBa_
FN:125,_RNvYNtNtNtNtCscCfipWx6sdZ_13tsuzulint_ast7visitor4walk5tests11NodeCounterNtNtB8_5visit7Visitor21visit_horizontal_ruleBa_
FN:184,_RNvYNtNtNtNtCscCfipWx6sdZ_13tsuzulint_ast7visitor4walk5tests11NodeCounterNtNtB8_5visit7Visitor21visit_image_referenceBa_
FN:218,_RNvYNtNtNtNtCscCfipWx6sdZ_13tsuzulint_ast7visitor4walk5tests11NodeCounterNtNtB8_5visit7Visitor24visit_footnote_referenceBa_
FN:213,_RNvYNtNtNtNtCscCfipWx6sdZ_13tsuzulint_ast7visitor4walk5tests11NodeCounterNtNtB8_5visit7Visitor25visit_footnote_definitionBa_
FN:75,_RNvYNtNtNtNtCscCfipWx6sdZ_13tsuzulint_ast7visitor4walk5tests11NodeCounterNtNtB8_5visit7Visitor9exit_nodeBa_
FN:69,_RNvYNtNtNtNtCscCfipWx6sdZ_13tsuzulint_ast7visitor4walk5tests13TextCollectorNtNtB8_5visit7Visitor10enter_nodeBa_
FN:162,_RNvYNtNtNtNtCscCfipWx6sdZ_13tsuzulint_ast7visitor4walk5tests13TextCollectorNtNtB8_5visit7Visitor10visit_codeBa_
FN:130,_RNvYNtNtNtNtCscCfipWx6sdZ_13tsuzulint_ast7visitor4walk5tests13TextCollectorNtNtB8_5visit7Visitor10visit_htmlBa_
FN:167,_RNvYNtNtNtNtCscCfipWx6sdZ_13tsuzulint_ast7visitor4walk5tests13TextCollectorNtNtB8_5visit7Visitor10visit_linkBa_
FN:110,_RNvYNtNtNtNtCscCfipWx6sdZ_13tsuzulint_ast7visitor4walk5tests13TextCollectorNtNtB8_5visit7Visitor10visit_listBa_
FN:142,_RNvYNtNtNtNtCscCfipWx6sdZ_13tsuzulint_ast7visitor4walk5tests13TextCollectorNtNtB8_5visit7Visitor11visit_breakBa_
FN:172,_RNvYNtNtNtNtCscCfipWx6sdZ_13tsuzulint_ast7visitor4walk5tests13TextCollectorNtNtB8_5visit7Visitor11visit_imageBa_
FN:196,_RNvYNtNtNtNtCscCfipWx6sdZ_13tsuzulint_ast7visitor4walk5tests13TextCollectorNtNtB8_5visit7Visitor11visit_tableBa_
FN:157,_RNvYNtNtNtNtCscCfipWx6sdZ_13tsuzulint_ast7visitor4walk5tests13TextCollectorNtNtB8_5visit7Visitor12visit_deleteBa_
FN:100,_RNvYNtNtNtNtCscCfipWx6sdZ_13tsuzulint_ast7visitor4walk5tests13TextCollectorNtNtB8_5visit7Visitor12visit_headerBa_
FN:152,_RNvYNtNtNtNtCscCfipWx6sdZ_13tsuzulint_ast7visitor4walk5tests13TextCollectorNtNtB8_5visit7Visitor12visit_strongBa_
FN:90,_RNvYNtNtNtNtCscCfipWx6sdZ_13tsuzulint_ast7visitor4walk5tests13TextCollectorNtNtB8_5visit7Visitor14visit_documentBa_
FN:147,_RNvYNtNtNtNtCscCfipWx6sdZ_13tsuzulint_ast7visitor4walk5tests13TextCollectorNtNtB8_5visit7Visitor14visit_emphasisBa_
FN:115,_RNvYNtNtNtNtCscCfipWx6sdZ_13tsuzulint_ast7visitor4walk5tests13TextCollectorNtNtB8_5visit7Visitor15visit_list_itemBa_
FN:95,_RNvYNtNtNtNtCscCfipWx6sdZ_13tsuzulint_ast7visitor4walk5tests13TextCollectorNtNtB8_5visit7Visitor15visit_paragraphBa_
FN:201,_RNvYNtNtNtNtCscCfipWx6sdZ_13tsuzulint_ast7visitor4walk5tests13TextCollectorNtNtB8_5visit7Visitor15visit_table_rowBa_
FN:120,_RNvYNtNtNtNtCscCfipWx6sdZ_13tsuzulint_ast7visitor4walk5tests13TextCollectorNtNtB8_5visit7Visitor16visit_code_blockBa_
FN:189,_RNvYNtNtNtNtCscCfipWx6sdZ_13tsuzulint_ast7visitor4walk5tests13TextCollectorNtNtB8_5visit7Visitor16visit_definitionBa_
FN:206,_RNvYNtNtNtNtCscCfipWx6sdZ_13tsuzulint_ast7visitor4walk5tests13TextCollectorNtNtB8_5visit7Visitor16visit_table_cellBa_
FN:105,_RNvYNtNtNtNtCscCfipWx6sdZ_13tsuzulint_ast7visitor4walk5tests13TextCollectorNtNtB8_5visit7Visitor17visit_block_quoteBa_
FN:179,_RNvYNtNtNtNtCscCfipWx6sdZ_13tsuzulint_ast7visitor4walk5tests13TextCollectorNtNtB8_5visit7Visitor20visit_link_referenceBa_
FN:125,_RNvYNtNtNtNtCscCfipWx6sdZ_13tsuzulint_ast7visitor4walk5tests13TextCollectorNtNtB8_5visit7Visitor21visit_horizontal_ruleBa_
FN:184,_RNvYNtNtNtNtCscCfipWx6sdZ_13tsuzulint_ast7visitor4walk5tests13TextCollectorNtNtB8_5visit7Visitor21visit_image_referenceBa_
FN:218,_RNvYNtNtNtNtCscCfipWx6sdZ_13tsuzulint_ast7visitor4walk5tests13TextCollectorNtNtB8_5visit7Visitor24visit_footnote_referenceBa_
FN:213,_RNvYNtNtNtNtCscCfipWx6sdZ_13tsuzulint_ast7visitor4walk5tests13TextCollectorNtNtB8_5visit7Visitor25visit_footnote_definitionBa_
FN:75,_RNvYNtNtNtNtCscCfipWx6sdZ_13tsuzulint_ast7visitor4walk5tests13TextCollectorNtNtB8_5visit7Visitor9exit_nodeBa_
FN:69,_RNvYNtNtNtNtCscCfipWx6sdZ_13tsuzulint_ast7visitor4walk5tests14FirstStrFinderNtNtB8_5visit7Visitor10enter_nodeBa_
FN:162,_RNvYNtNtNtNtCscCfipWx6sdZ_13tsuzulint_ast7visitor4walk5tests14FirstStrFinderNtNtB8_5visit7Visitor10visit_codeBa_
FN:130,_RNvYNtNtNtNtCscCfipWx6sdZ_13tsuzulint_ast7visitor4walk5tests14FirstStrFinderNtNtB8_5visit7Visitor10visit_htmlBa_
FN:167,_RNvYNtNtNtNtCscCfipWx6sdZ_13tsuzulint_ast7visitor4walk5tests14FirstStrFinderNtNtB8_5visit7Visitor10visit_linkBa_
FN:110,_RNvYNtNtNtNtCscCfipWx6sdZ_13tsuzulint_ast7visitor4walk5tests14FirstStrFinderNtNtB8_5visit7Visitor10visit_listBa_
FN:142,_RNvYNtNtNtNtCscCfipWx6sdZ_13tsuzulint_ast7visitor4walk5tests14FirstStrFinderNtNtB8_5visit7Visitor11visit_breakBa_
FN:172,_RNvYNtNtNtNtCscCfipWx6sdZ_13tsuzulint_ast7visitor4walk5tests14FirstStrFinderNtNtB8_5visit7Visitor11visit_imageBa_
FN:196,_RNvYNtNtNtNtCscCfipWx6sdZ_13tsuzulint_ast7visitor4walk5tests14FirstStrFinderNtNtB8_5visit7Visitor11visit_tableBa_
FN:157,_RNvYNtNtNtNtCscCfipWx6sdZ_13tsuzulint_ast7visitor4walk5tests14FirstStrFinderNtNtB8_5visit7Visitor12visit_deleteBa_
FN:100,_RNvYNtNtNtNtCscCfipWx6sdZ_13tsuzulint_ast7visitor4walk5tests14FirstStrFinderNtNtB8_5visit7Visitor12visit_headerBa_
FN:152,_RNvYNtNtNtNtCscCfipWx6sdZ_13tsuzulint_ast7visitor4walk5tests14FirstStrFinderNtNtB8_5visit7Visitor12visit_strongBa_
FN:90,_RNvYNtNtNtNtCscCfipWx6sdZ_13tsuzulint_ast7visitor4walk5tests14FirstStrFinderNtNtB8_5visit7Visitor14visit_documentBa_
FN:147,_RNvYNtNtNtNtCscCfipWx6sdZ_13tsuzulint_ast7visitor4walk5tests14FirstStrFinderNtNtB8_5visit7Visitor14visit_emphasisBa_
FN:115,_RNvYNtNtNtNtCscCfipWx6sdZ_13tsuzulint_ast7visitor4walk5tests14FirstStrFinderNtNtB8_5visit7Visitor15visit_list_itemBa_
FN:95,_RNvYNtNtNtNtCscCfipWx6sdZ_13tsuzulint_ast7visitor4walk5tests14FirstStrFinderNtNtB8_5visit7Visitor15visit_paragraphBa_
FN:201,_RNvYNtNtNtNtCscCfipWx6sdZ_13tsuzulint_ast7visitor4walk5tests14FirstStrFinderNtNtB8_5visit7Visitor15visit_table_rowBa_
FN:120,_RNvYNtNtNtNtCscCfipWx6sdZ_13tsuzulint_ast7visitor4walk5tests14FirstStrFinderNtNtB8_5visit7Visitor16visit_code_blockBa_
FN:189,_RNvYNtNtNtNtCscCfipWx6sdZ_13tsuzulint_ast7visitor4walk5tests14FirstStrFinderNtNtB8_5visit7Visitor16visit_definitionBa_
FN:206,_RNvYNtNtNtNtCscCfipWx6sdZ_13tsuzulint_ast7visitor4walk5tests14FirstStrFinderNtNtB8_5visit7Visitor16visit_table_cellBa_
FN:105,_RNvYNtNtNtNtCscCfipWx6sdZ_13tsuzulint_ast7visitor4walk5tests14FirstStrFinderNtNtB8_5visit7Visitor17visit_block_quoteBa_
FN:179,_RNvYNtNtNtNtCscCfipWx6sdZ_13tsuzulint_ast7visitor4walk5tests14FirstStrFinderNtNtB8_5visit7Visitor20visit_link_referenceBa_
FN:125,_RNvYNtNtNtNtCscCfipWx6sdZ_13tsuzulint_ast7visitor4walk5tests14FirstStrFinderNtNtB8_5visit7Visitor21visit_horizontal_ruleBa_
FN:184,_RNvYNtNtNtNtCscCfipWx6sdZ_13tsuzulint_ast7visitor4walk5tests14FirstStrFinderNtNtB8_5visit7Visitor21visit_image_referenceBa_
FN:218,_RNvYNtNtNtNtCscCfipWx6sdZ_13tsuzulint_ast7visitor4walk5tests14FirstStrFinderNtNtB8_5visit7Visitor24visit_footnote_referenceBa_
FN:213,_RNvYNtNtNtNtCscCfipWx6sdZ_13tsuzulint_ast7visitor4walk5tests14FirstStrFinderNtNtB8_5visit7Visitor25visit_footnote_definitionBa_
FN:75,_RNvYNtNtNtNtCscCfipWx6sdZ_13tsuzulint_ast7visitor4walk5tests14FirstStrFinderNtNtB8_5visit7Visitor9exit_nodeBa_
FN:162,_RNvYNtNvNtNtNtCscCfipWx6sdZ_13tsuzulint_ast7visitor4walk5testss_36walk_node_calls_enter_and_exit_hooks11HookTrackerNtNtBa_5visit7Visitor10visit_codeBc_
FN:130,_RNvYNtNvNtNtNtCscCfipWx6sdZ_13tsuzulint_ast7visitor4walk5testss_36walk_node_calls_enter_and_exit_hooks11HookTrackerNtNtBa_5visit7Visitor10visit_htmlBc_
FN:167,_RNvYNtNvNtNtNtCscCfipWx6sdZ_13tsuzulint_ast7visitor4walk5testss_36walk_node_calls_enter_and_exit_hooks11HookTrackerNtNtBa_5visit7Visitor10visit_linkBc_
FN:110,_RNvYNtNvNtNtNtCscCfipWx6sdZ_13tsuzulint_ast7visitor4walk5testss_36walk_node_calls_enter_and_exit_hooks11HookTrackerNtNtBa_5visit7Visitor10visit_listBc_
FN:142,_RNvYNtNvNtNtNtCscCfipWx6sdZ_13tsuzulint_ast7visitor4walk5testss_36walk_node_calls_enter_and_exit_hooks11HookTrackerNtNtBa_5visit7Visitor11visit_breakBc_
FN:172,_RNvYNtNvNtNtNtCscCfipWx6sdZ_13tsuzulint_ast7visitor4walk5testss_36walk_node_calls_enter_and_exit_hooks11HookTrackerNtNtBa_5visit7Visitor11visit_imageBc_
FN:196,_RNvYNtNvNtNtNtCscCfipWx6sdZ_13tsuzulint_ast7visitor4walk5testss_36walk_node_calls_enter_and_exit_hooks11HookTrackerNtNtBa_5visit7Visitor11visit_tableBc_
FN:157,_RNvYNtNvNtNtNtCscCfipWx6sdZ_13tsuzulint_ast7visitor4walk5testss_36walk_node_calls_enter_and_exit_hooks11HookTrackerNtNtBa_5visit7Visitor12visit_deleteBc_
FN:100,_RNvYNtNvNtNtNtCscCfipWx6sdZ_13tsuzulint_ast7visitor4walk5testss_36walk_node_calls_enter_and_exit_hooks11HookTrackerNtNtBa_5visit7Visitor12visit_headerBc_
FN:152,_RNvYNtNvNtNtNtCscCfipWx6sdZ_13tsuzulint_ast7visitor4walk5testss_36walk_node_calls_enter_and_exit_hooks11HookTrackerNtNtBa_5visit7Visitor12visit_strongBc_
FN:90,_RNvYNtNvNtNtNtCscCfipWx6sdZ_13tsuzulint_ast7visitor4walk5testss_36walk_node_calls_enter_and_exit_hooks11HookTrackerNtNtBa_5visit7Visitor14visit_documentBc_
FN:147,_RNvYNtNvNtNtNtCscCfipWx6sdZ_13tsuzulint_ast7visitor4walk5testss_36walk_node_calls_enter_and_exit_hooks11HookTrackerNtNtBa_5visit7Visitor14visit_emphasisBc_
FN:115,_RNvYNtNvNtNtNtCscCfipWx6sdZ_13tsuzulint_ast7visitor4walk5testss_36walk_node_calls_enter_and_exit_hooks11HookTrackerNtNtBa_5visit7Visitor15visit_list_itemBc_
FN:95,_RNvYNtNvNtNtNtCscCfipWx6sdZ_13tsuzulint_ast7visitor4walk5testss_36walk_node_calls_enter_and_exit_hooks11HookTrackerNtNtBa_5visit7Visitor15visit_paragraphBc_
FN:201,_RNvYNtNvNtNtNtCscCfipWx6sdZ_13tsuzulint_ast7visitor4walk5testss_36walk_node_calls_enter_and_exit_hooks11HookTrackerNtNtBa_5visit7Visitor15visit_table_rowBc_
FN:120,_RNvYNtNvNtNtNtCscCfipWx6sdZ_13tsuzulint_ast7visitor4walk5testss_36walk_node_calls_enter_and_exit_hooks11HookTrackerNtNtBa_5visit7Visitor16visit_code_blockBc_
FN:189,_RNvYNtNvNtNtNtCscCfipWx6sdZ_13tsuzulint_ast7visitor4walk5testss_36walk_node_calls_enter_and_exit_hooks11HookTrackerNtNtBa_5visit7Visitor16visit_definitionBc_
FN:206,_RNvYNtNvNtNtNtCscCfipWx6sdZ_13tsuzulint_ast7visitor4walk5testss_36walk_node_calls_enter_and_exit_hooks11HookTrackerNtNtBa_5visit7Visitor16visit_table_cellBc_
FN:105,_RNvYNtNvNtNtNtCscCfipWx6sdZ_13tsuzulint_ast7visitor4walk5testss_36walk_node_calls_enter_and_exit_hooks11HookTrackerNtNtBa_5visit7Visitor17visit_block_quoteBc_
FN:179,_RNvYNtNvNtNtNtCscCfipWx6sdZ_13tsuzulint_ast7visitor4walk5testss_36walk_node_calls_enter_and_exit_hooks11HookTrackerNtNtBa_5visit7Visitor20visit_link_referenceBc_
FN:125,_RNvYNtNvNtNtNtCscCfipWx6sdZ_13tsuzulint_ast7visitor4walk5testss_36walk_node_calls_enter_and_exit_hooks11HookTrackerNtNtBa_5visit7Visitor21visit_horizontal_ruleBc_
FN:184,_RNvYNtNvNtNtNtCscCfipWx6sdZ_13tsuzulint_ast7visitor4walk5testss_36walk_node_calls_enter_and_exit_hooks11HookTrackerNtNtBa_5visit7Visitor21visit_image_referenceBc_
FN:218,_RNvYNtNvNtNtNtCscCfipWx6sdZ_13tsuzulint_ast7visitor4walk5testss_36walk_node_calls_enter_and_exit_hooks11HookTrackerNtNtBa_5visit7Visitor24visit_footnote_referenceBc_
FN:213,_RNvYNtNvNtNtNtCscCfipWx6sdZ_13tsuzulint_ast7visitor4walk5testss_36walk_node_calls_enter_and_exit_hooks11HookTrackerNtNtBa_5visit7Visitor25visit_footnote_definitionBc_
FN:137,_RNvYNtNvNtNtNtCscCfipWx6sdZ_13tsuzulint_ast7visitor4walk5testss_36walk_node_calls_enter_and_exit_hooks11HookTrackerNtNtBa_5visit7Visitor9visit_strBc_
FN:69,_RNvYNtNvNtCs47f85yxqTTa_14tsuzulint_core12ignore_range21extract_ignore_ranges18CodeRangeCollectorNtNtNtCs9bJaZoOZVf6_13tsuzulint_ast7visitor5visit7Visitor10enter_nodeB8_
FN:130,_RNvYNtNvNtCs47f85yxqTTa_14tsuzulint_core12ignore_range21extract_ignore_ranges18CodeRangeCollectorNtNtNtCs9bJaZoOZVf6_13tsuzulint_ast7visitor5visit7Visitor10visit_htmlB8_
FN:167,_RNvYNtNvNtCs47f85yxqTTa_14tsuzulint_core12ignore_range21extract_ignore_ranges18CodeRangeCollectorNtNtNtCs9bJaZoOZVf6_13tsuzulint_ast7visitor5visit7Visitor10visit_linkB8_
FN:110,_RNvYNtNvNtCs47f85yxqTTa_14tsuzulint_core12ignore_range21extract_ignore_ranges18CodeRangeCollectorNtNtNtCs9bJaZoOZVf6_13tsuzulint_ast7visitor5visit7Visitor10visit_listB8_
FN:142,_RNvYNtNvNtCs47f85yxqTTa_14tsuzulint_core12ignore_range21extract_ignore_ranges18CodeRangeCollectorNtNtNtCs9bJaZoOZVf6_13tsuzulint_ast7visitor5visit7Visitor11visit_breakB8_
FN:172,_RNvYNtNvNtCs47f85yxqTTa_14tsuzulint_core12ignore_range21extract_ignore_ranges18CodeRangeCollectorNtNtNtCs9bJaZoOZVf6_13tsuzulint_ast7visitor5visit7Visitor11visit_imageB8_
FN:196,_RNvYNtNvNtCs47f85yxqTTa_14tsuzulint_core12ignore_range21extract_ignore_ranges18CodeRangeCollectorNtNtNtCs9bJaZoOZVf6_13tsuzulint_ast7visitor5visit7Visitor11visit_tableB8_
FN:157,_RNvYNtNvNtCs47f85yxqTTa_14tsuzulint_core12ignore_range21extract_ignore_ranges18CodeRangeCollectorNtNtNtCs9bJaZoOZVf6_13tsuzulint_ast7visitor5visit7Visitor12visit_deleteB8_
FN:100,_RNvYNtNvNtCs47f85yxqTTa_14tsuzulint_core12ignore_range21extract_ignore_ranges18CodeRangeCollectorNtNtNtCs9bJaZoOZVf6_13tsuzulint_ast7visitor5visit7Visitor12visit_headerB8_
FN:152,_RNvYNtNvNtCs47f85yxqTTa_14tsuzulint_core12ignore_range21extract_ignore_ranges18CodeRangeCollectorNtNtNtCs9bJaZoOZVf6_13tsuzulint_ast7visitor5visit7Visitor12visit_strongB8_
FN:90,_RNvYNtNvNtCs47f85yxqTTa_14tsuzulint_core12ignore_range21extract_ignore_ranges18CodeRangeCollectorNtNtNtCs9bJaZoOZVf6_13tsuzulint_ast7visitor5visit7Visitor14visit_documentB8_
FN:147,_RNvYNtNvNtCs47f85yxqTTa_14tsuzulint_core12ignore_range21extract_ignore_ranges18CodeRangeCollectorNtNtNtCs9bJaZoOZVf6_13tsuzulint_ast7visitor5visit7Visitor14visit_emphasisB8_
FN:115,_RNvYNtNvNtCs47f85yxqTTa_14tsuzulint_core12ignore_range21extract_ignore_ranges18CodeRangeCollectorNtNtNtCs9bJaZoOZVf6_13tsuzulint_ast7visitor5visit7Visitor15visit_list_itemB8_
FN:95,_RNvYNtNvNtCs47f85yxqTTa_14tsuzulint_core12ignore_range21extract_ignore_ranges18CodeRangeCollectorNtNtNtCs9bJaZoOZVf6_13tsuzulint_ast7visitor5visit7Visitor15visit_paragraphB8_
FN:201,_RNvYNtNvNtCs47f85yxqTTa_14tsuzulint_core12ignore_range21extract_ignore_ranges18CodeRangeCollectorNtNtNtCs9bJaZoOZVf6_13tsuzulint_ast7visitor5visit7Visitor15visit_table_rowB8_
FN:189,_RNvYNtNvNtCs47f85yxqTTa_14tsuzulint_core12ignore_range21extract_ignore_ranges18CodeRangeCollectorNtNtNtCs9bJaZoOZVf6_13tsuzulint_ast7visitor5visit7Visitor16visit_definitionB8_
FN:206,_RNvYNtNvNtCs47f85yxqTTa_14tsuzulint_core12ignore_range21extract_ignore_ranges18CodeRangeCollectorNtNtNtCs9bJaZoOZVf6_13tsuzulint_ast7visitor5visit7Visitor16visit_table_cellB8_
FN:105,_RNvYNtNvNtCs47f85yxqTTa_14tsuzulint_core12ignore_range21extract_ignore_ranges18CodeRangeCollectorNtNtNtCs9bJaZoOZVf6_13tsuzulint_ast7visitor5visit7Visitor17visit_block_quoteB8_
FN:179,_RNvYNtNvNtCs47f85yxqTTa_14tsuzulint_core12ignore_range21extract_ignore_ranges18CodeRangeCollectorNtNtNtCs9bJaZoOZVf6_13tsuzulint_ast7visitor5visit7Visitor20visit_link_referenceB8_
FN:125,_RNvYNtNvNtCs47f85yxqTTa_14tsuzulint_core12ignore_range21extract_ignore_ranges18CodeRangeCollectorNtNtNtCs9bJaZoOZVf6_13tsuzulint_ast7visitor5visit7Visitor21visit_horizontal_ruleB8_
FN:184,_RNvYNtNvNtCs47f85yxqTTa_14tsuzulint_core12ignore_range21extract_ignore_ranges18CodeRangeCollectorNtNtNtCs9bJaZoOZVf6_13tsuzulint_ast7visitor5visit7Visitor21visit_image_referenceB8_
FN:218,_RNvYNtNvNtCs47f85yxqTTa_14tsuzulint_core12ignore_range21extract_ignore_ranges18CodeRangeCollectorNtNtNtCs9bJaZoOZVf6_13tsuzulint_ast7visitor5visit7Visitor24visit_footnote_referenceB8_
FN:213,_RNvYNtNvNtCs47f85yxqTTa_14tsuzulint_core12ignore_range21extract_ignore_ranges18CodeRangeCollectorNtNtNtCs9bJaZoOZVf6_13tsuzulint_ast7visitor5visit7Visitor25visit_footnote_definitionB8_
FN:75,_RNvYNtNvNtCs47f85yxqTTa_14tsuzulint_core12ignore_range21extract_ignore_ranges18CodeRangeCollectorNtNtNtCs9bJaZoOZVf6_13tsuzulint_ast7visitor5visit7Visitor9exit_nodeB8_
FN:137,_RNvYNtNvNtCs47f85yxqTTa_14tsuzulint_core12ignore_range21extract_ignore_ranges18CodeRangeCollectorNtNtNtCs9bJaZoOZVf6_13tsuzulint_ast7visitor5visit7Visitor9visit_strB8_
FNDA:124,_RNvYNtNvNtCsdHNy3eV5zAX_14tsuzulint_core12ignore_range21extract_ignore_ranges18CodeRangeCollectorNtNtNtCs9bJaZoOZVf6_13tsuzulint_ast7visitor5visit7Visitor10enter_nodeB8_
FNDA:0,_RNvYNtNvNtCsdHNy3eV5zAX_14tsuzulint_core12ignore_range21extract_ignore_ranges18CodeRangeCollectorNtNtNtCs9bJaZoOZVf6_13tsuzulint_ast7visitor5visit7Visitor10visit_htmlB8_
FNDA:0,_RNvYNtNvNtCsdHNy3eV5zAX_14tsuzulint_core12ignore_range21extract_ignore_ranges18CodeRangeCollectorNtNtNtCs9bJaZoOZVf6_13tsuzulint_ast7visitor5visit7Visitor10visit_linkB8_
FNDA:0,_RNvYNtNvNtCsdHNy3eV5zAX_14tsuzulint_core12ignore_range21extract_ignore_ranges18CodeRangeCollectorNtNtNtCs9bJaZoOZVf6_13tsuzulint_ast7visitor5visit7Visitor10visit_listB8_
FNDA:0,_RNvYNtNvNtCsdHNy3eV5zAX_14tsuzulint_core12ignore_range21extract_ignore_ranges18CodeRangeCollectorNtNtNtCs9bJaZoOZVf6_13tsuzulint_ast7visitor5visit7Visitor11visit_breakB8_
FNDA:0,_RNvYNtNvNtCsdHNy3eV5zAX_14tsuzulint_core12ignore_range21extract_ignore_ranges18CodeRangeCollectorNtNtNtCs9bJaZoOZVf6_13tsuzulint_ast7visitor5visit7Visitor11visit_imageB8_
FNDA:0,_RNvYNtNvNtCsdHNy3eV5zAX_14tsuzulint_core12ignore_range21extract_ignore_ranges18CodeRangeCollectorNtNtNtCs9bJaZoOZVf6_13tsuzulint_ast7visitor5visit7Visitor11visit_tableB8_
FNDA:0,_RNvYNtNvNtCsdHNy3eV5zAX_14tsuzulint_core12ignore_range21extract_ignore_ranges18CodeRangeCollectorNtNtNtCs9bJaZoOZVf6_13tsuzulint_ast7visitor5visit7Visitor12visit_deleteB8_
FNDA:29,_RNvYNtNvNtCsdHNy3eV5zAX_14tsuzulint_core12ignore_range21extract_ignore_ranges18CodeRangeCollectorNtNtNtCs9bJaZoOZVf6_13tsuzulint_ast7visitor5visit7Visitor12visit_headerB8_
FNDA:0,_RNvYNtNvNtCsdHNy3eV5zAX_14tsuzulint_core12ignore_range21extract_ignore_ranges18CodeRangeCollectorNtNtNtCs9bJaZoOZVf6_13tsuzulint_ast7visitor5visit7Visitor12visit_strongB8_
FNDA:16,_RNvYNtNvNtCsdHNy3eV5zAX_14tsuzulint_core12ignore_range21extract_ignore_ranges18CodeRangeCollectorNtNtNtCs9bJaZoOZVf6_13tsuzulint_ast7visitor5visit7Visitor14visit_documentB8_
FNDA:0,_RNvYNtNvNtCsdHNy3eV5zAX_14tsuzulint_core12ignore_range21extract_ignore_ranges18CodeRangeCollectorNtNtNtCs9bJaZoOZVf6_13tsuzulint_ast7visitor5visit7Visitor14visit_emphasisB8_
FNDA:0,_RNvYNtNvNtCsdHNy3eV5zAX_14tsuzulint_core12ignore_range21extract_ignore_ranges18CodeRangeCollectorNtNtNtCs9bJaZoOZVf6_13tsuzulint_ast7visitor5visit7Visitor15visit_list_itemB8_
FNDA:25,_RNvYNtNvNtCsdHNy3eV5zAX_14tsuzulint_core12ignore_range21extract_ignore_ranges18CodeRangeCollectorNtNtNtCs9bJaZoOZVf6_13tsuzulint_ast7visitor5visit7Visitor15visit_paragraphB8_
FNDA:0,_RNvYNtNvNtCsdHNy3eV5zAX_14tsuzulint_core12ignore_range21extract_ignore_ranges18CodeRangeCollectorNtNtNtCs9bJaZoOZVf6_13tsuzulint_ast7visitor5visit7Visitor15visit_table_rowB8_
FNDA:0,_RNvYNtNvNtCsdHNy3eV5zAX_14tsuzulint_core12ignore_range21extract_ignore_ranges18CodeRangeCollectorNtNtNtCs9bJaZoOZVf6_13tsuzulint_ast7visitor5visit7Visitor16visit_definitionB8_
FNDA:0,_RNvYNtNvNtCsdHNy3eV5zAX_14tsuzulint_core12ignore_range21extract_ignore_ranges18CodeRangeCollectorNtNtNtCs9bJaZoOZVf6_13tsuzulint_ast7visitor5visit7Visitor16visit_table_cellB8_
FNDA:0,_RNvYNtNvNtCsdHNy3eV5zAX_14tsuzulint_core12ignore_range21extract_ignore_ranges18CodeRangeCollectorNtNtNtCs9bJaZoOZVf6_13tsuzulint_ast7visitor5visit7Visitor17visit_block_quoteB8_
FNDA:0,_RNvYNtNvNtCsdHNy3eV5zAX_14tsuzulint_core12ignore_range21extract_ignore_ranges18CodeRangeCollectorNtNtNtCs9bJaZoOZVf6_13tsuzulint_ast7visitor5visit7Visitor20visit_link_referenceB8_
FNDA:0,_RNvYNtNvNtCsdHNy3eV5zAX_14tsuzulint_core12ignore_range21extract_ignore_ranges18CodeRangeCollectorNtNtNtCs9bJaZoOZVf6_13tsuzulint_ast7visitor5visit7Visitor21visit_horizontal_ruleB8_
FNDA:0,_RNvYNtNvNtCsdHNy3eV5zAX_14tsuzulint_core12ignore_range21extract_ignore_ranges18CodeRangeCollectorNtNtNtCs9bJaZoOZVf6_13tsuzulint_ast7visitor5visit7Visitor21visit_image_referenceB8_
FNDA:0,_RNvYNtNvNtCsdHNy3eV5zAX_14tsuzulint_core12ignore_range21extract_ignore_ranges18CodeRangeCollectorNtNtNtCs9bJaZoOZVf6_13tsuzulint_ast7visitor5visit7Visitor24visit_footnote_referenceB8_
FNDA:0,_RNvYNtNvNtCsdHNy3eV5zAX_14tsuzulint_core12ignore_range21extract_ignore_ranges18CodeRangeCollectorNtNtNtCs9bJaZoOZVf6_13tsuzulint_ast7visitor5visit7Visitor25visit_footnote_definitionB8_
FNDA:124,_RNvYNtNvNtCsdHNy3eV5zAX_14tsuzulint_core12ignore_range21extract_ignore_ranges18CodeRangeCollectorNtNtNtCs9bJaZoOZVf6_13tsuzulint_ast7visitor5visit7Visitor9exit_nodeB8_
FNDA:54,_RNvYNtNvNtCsdHNy3eV5zAX_14tsuzulint_core12ignore_range21extract_ignore_ranges18CodeRangeCollectorNtNtNtCs9bJaZoOZVf6_13tsuzulint_ast7visitor5visit7Visitor9visit_strB8_
FNDA:0,_RNvYpNtNtNtCs9bJaZoOZVf6_13tsuzulint_ast7visitor5visit7Visitor10enter_nodeB9_
FNDA:0,_RNvYpNtNtNtCs9bJaZoOZVf6_13tsuzulint_ast7visitor5visit7Visitor10visit_codeB9_
FNDA:0,_RNvYpNtNtNtCs9bJaZoOZVf6_13tsuzulint_ast7visitor5visit7Visitor10visit_htmlB9_
FNDA:0,_RNvYpNtNtNtCs9bJaZoOZVf6_13tsuzulint_ast7visitor5visit7Visitor10visit_linkB9_
FNDA:0,_RNvYpNtNtNtCs9bJaZoOZVf6_13tsuzulint_ast7visitor5visit7Visitor10visit_listB9_
FNDA:0,_RNvYpNtNtNtCs9bJaZoOZVf6_13tsuzulint_ast7visitor5visit7Visitor10visit_nodeB9_
FNDA:0,_RNvYpNtNtNtCs9bJaZoOZVf6_13tsuzulint_ast7visitor5visit7Visitor11visit_breakB9_
FNDA:0,_RNvYpNtNtNtCs9bJaZoOZVf6_13tsuzulint_ast7visitor5visit7Visitor11visit_imageB9_
FNDA:0,_RNvYpNtNtNtCs9bJaZoOZVf6_13tsuzulint_ast7visitor5visit7Visitor11visit_tableB9_
FNDA:0,_RNvYpNtNtNtCs9bJaZoOZVf6_13tsuzulint_ast7visitor5visit7Visitor12visit_deleteB9_
FNDA:0,_RNvYpNtNtNtCs9bJaZoOZVf6_13tsuzulint_ast7visitor5visit7Visitor12visit_headerB9_
FNDA:0,_RNvYpNtNtNtCs9bJaZoOZVf6_13tsuzulint_ast7visitor5visit7Visitor12visit_strongB9_
FNDA:0,_RNvYpNtNtNtCs9bJaZoOZVf6_13tsuzulint_ast7visitor5visit7Visitor14visit_documentB9_
FNDA:0,_RNvYpNtNtNtCs9bJaZoOZVf6_13tsuzulint_ast7visitor5visit7Visitor14visit_emphasisB9_
FNDA:0,_RNvYpNtNtNtCs9bJaZoOZVf6_13tsuzulint_ast7visitor5visit7Visitor15visit_list_itemB9_
FNDA:0,_RNvYpNtNtNtCs9bJaZoOZVf6_13tsuzulint_ast7visitor5visit7Visitor15visit_paragraphB9_
FNDA:0,_RNvYpNtNtNtCs9bJaZoOZVf6_13tsuzulint_ast7visitor5visit7Visitor15visit_table_rowB9_
FNDA:0,_RNvYpNtNtNtCs9bJaZoOZVf6_13tsuzulint_ast7visitor5visit7Visitor16visit_code_blockB9_
FNDA:0,_RNvYpNtNtNtCs9bJaZoOZVf6_13tsuzulint_ast7visitor5visit7Visitor16visit_definitionB9_
FNDA:0,_RNvYpNtNtNtCs9bJaZoOZVf6_13tsuzulint_ast7visitor5visit7Visitor16visit_table_cellB9_
FNDA:0,_RNvYpNtNtNtCs9bJaZoOZVf6_13tsuzulint_ast7visitor5visit7Visitor17visit_block_quoteB9_
FNDA:0,_RNvYpNtNtNtCs9bJaZoOZVf6_13tsuzulint_ast7visitor5visit7Visitor20visit_link_referenceB9_
FNDA:0,_RNvYpNtNtNtCs9bJaZoOZVf6_13tsuzulint_ast7visitor5visit7Visitor21visit_horizontal_ruleB9_
FNDA:0,_RNvYpNtNtNtCs9bJaZoOZVf6_13tsuzulint_ast7visitor5visit7Visitor21visit_image_referenceB9_
FNDA:0,_RNvYpNtNtNtCs9bJaZoOZVf6_13tsuzulint_ast7visitor5visit7Visitor24visit_footnote_referenceB9_
FNDA:0,_RNvYpNtNtNtCs9bJaZoOZVf6_13tsuzulint_ast7visitor5visit7Visitor25visit_footnote_definitionB9_
FNDA:0,_RNvYpNtNtNtCs9bJaZoOZVf6_13tsuzulint_ast7visitor5visit7Visitor9exit_nodeB9_
FNDA:0,_RNvYpNtNtNtCs9bJaZoOZVf6_13tsuzulint_ast7visitor5visit7Visitor9visit_strB9_
FNDA:0,_RNvYpNtNtNtCscCfipWx6sdZ_13tsuzulint_ast7visitor5visit7Visitor10visit_nodeB9_
FNDA:0,_RNvYNtNtNtNtCscCfipWx6sdZ_13tsuzulint_ast7visitor4walk5tests11NodeCounterNtNtB8_5visit7Visitor10visit_codeBa_
FNDA:0,_RNvYNtNtNtNtCscCfipWx6sdZ_13tsuzulint_ast7visitor4walk5tests11NodeCounterNtNtB8_5visit7Visitor10visit_htmlBa_
FNDA:0,_RNvYNtNtNtNtCscCfipWx6sdZ_13tsuzulint_ast7visitor4walk5tests11NodeCounterNtNtB8_5visit7Visitor10visit_linkBa_
FNDA:0,_RNvYNtNtNtNtCscCfipWx6sdZ_13tsuzulint_ast7visitor4walk5tests11NodeCounterNtNtB8_5visit7Visitor10visit_listBa_
FNDA:0,_RNvYNtNtNtNtCscCfipWx6sdZ_13tsuzulint_ast7visitor4walk5tests11NodeCounterNtNtB8_5visit7Visitor11visit_breakBa_
FNDA:0,_RNvYNtNtNtNtCscCfipWx6sdZ_13tsuzulint_ast7visitor4walk5tests11NodeCounterNtNtB8_5visit7Visitor11visit_imageBa_
FNDA:0,_RNvYNtNtNtNtCscCfipWx6sdZ_13tsuzulint_ast7visitor4walk5tests11NodeCounterNtNtB8_5visit7Visitor11visit_tableBa_
FNDA:0,_RNvYNtNtNtNtCscCfipWx6sdZ_13tsuzulint_ast7visitor4walk5tests11NodeCounterNtNtB8_5visit7Visitor12visit_deleteBa_
FNDA:0,_RNvYNtNtNtNtCscCfipWx6sdZ_13tsuzulint_ast7visitor4walk5tests11NodeCounterNtNtB8_5visit7Visitor12visit_headerBa_
FNDA:0,_RNvYNtNtNtNtCscCfipWx6sdZ_13tsuzulint_ast7visitor4walk5tests11NodeCounterNtNtB8_5visit7Visitor12visit_strongBa_
FNDA:0,_RNvYNtNtNtNtCscCfipWx6sdZ_13tsuzulint_ast7visitor4walk5tests11NodeCounterNtNtB8_5visit7Visitor14visit_emphasisBa_
FNDA:0,_RNvYNtNtNtNtCscCfipWx6sdZ_13tsuzulint_ast7visitor4walk5tests11NodeCounterNtNtB8_5visit7Visitor15visit_list_itemBa_
FNDA:0,_RNvYNtNtNtNtCscCfipWx6sdZ_13tsuzulint_ast7visitor4walk5tests11NodeCounterNtNtB8_5visit7Visitor15visit_table_rowBa_
FNDA:0,_RNvYNtNtNtNtCscCfipWx6sdZ_13tsuzulint_ast7visitor4walk5tests11NodeCounterNtNtB8_5visit7Visitor16visit_code_blockBa_
FNDA:0,_RNvYNtNtNtNtCscCfipWx6sdZ_13tsuzulint_ast7visitor4walk5tests11NodeCounterNtNtB8_5visit7Visitor16visit_definitionBa_
FNDA:0,_RNvYNtNtNtNtCscCfipWx6sdZ_13tsuzulint_ast7visitor4walk5tests11NodeCounterNtNtB8_5visit7Visitor16visit_table_cellBa_
FNDA:0,_RNvYNtNtNtNtCscCfipWx6sdZ_13tsuzulint_ast7visitor4walk5tests11NodeCounterNtNtB8_5visit7Visitor17visit_block_quoteBa_
FNDA:0,_RNvYNtNtNtNtCscCfipWx6sdZ_13tsuzulint_ast7visitor4walk5tests11NodeCounterNtNtB8_5visit7Visitor20visit_link_referenceBa_
FNDA:0,_RNvYNtNtNtNtCscCfipWx6sdZ_13tsuzulint_ast7visitor4walk5tests11NodeCounterNtNtB8_5visit7Visitor21visit_horizontal_ruleBa_
FNDA:0,_RNvYNtNtNtNtCscCfipWx6sdZ_13tsuzulint_ast7visitor4walk5tests11NodeCounterNtNtB8_5visit7Visitor21visit_image_referenceBa_
FNDA:0,_RNvYNtNtNtNtCscCfipWx6sdZ_13tsuzulint_ast7visitor4walk5tests11NodeCounterNtNtB8_5visit7Visitor24visit_footnote_referenceBa_
FNDA:0,_RNvYNtNtNtNtCscCfipWx6sdZ_13tsuzulint_ast7visitor4walk5tests11NodeCounterNtNtB8_5visit7Visitor25visit_footnote_definitionBa_
FNDA:8,_RNvYNtNtNtNtCscCfipWx6sdZ_13tsuzulint_ast7visitor4walk5tests11NodeCounterNtNtB8_5visit7Visitor9exit_nodeBa_
FNDA:4,_RNvYNtNtNtNtCscCfipWx6sdZ_13tsuzulint_ast7visitor4walk5tests13TextCollectorNtNtB8_5visit7Visitor10enter_nodeBa_
FNDA:0,_RNvYNtNtNtNtCscCfipWx6sdZ_13tsuzulint_ast7visitor4walk5tests13TextCollectorNtNtB8_5visit7Visitor10visit_codeBa_
FNDA:0,_RNvYNtNtNtNtCscCfipWx6sdZ_13tsuzulint_ast7visitor4walk5tests13TextCollectorNtNtB8_5visit7Visitor10visit_htmlBa_
FNDA:0,_RNvYNtNtNtNtCscCfipWx6sdZ_13tsuzulint_ast7visitor4walk5tests13TextCollectorNtNtB8_5visit7Visitor10visit_linkBa_
FNDA:0,_RNvYNtNtNtNtCscCfipWx6sdZ_13tsuzulint_ast7visitor4walk5tests13TextCollectorNtNtB8_5visit7Visitor10visit_listBa_
FNDA:0,_RNvYNtNtNtNtCscCfipWx6sdZ_13tsuzulint_ast7visitor4walk5tests13TextCollectorNtNtB8_5visit7Visitor11visit_breakBa_
FNDA:0,_RNvYNtNtNtNtCscCfipWx6sdZ_13tsuzulint_ast7visitor4walk5tests13TextCollectorNtNtB8_5visit7Visitor11visit_imageBa_
FNDA:0,_RNvYNtNtNtNtCscCfipWx6sdZ_13tsuzulint_ast7visitor4walk5tests13TextCollectorNtNtB8_5visit7Visitor11visit_tableBa_
FNDA:0,_RNvYNtNtNtNtCscCfipWx6sdZ_13tsuzulint_ast7visitor4walk5tests13TextCollectorNtNtB8_5visit7Visitor12visit_deleteBa_
FNDA:0,_RNvYNtNtNtNtCscCfipWx6sdZ_13tsuzulint_ast7visitor4walk5tests13TextCollectorNtNtB8_5visit7Visitor12visit_headerBa_
FNDA:0,_RNvYNtNtNtNtCscCfipWx6sdZ_13tsuzulint_ast7visitor4walk5tests13TextCollectorNtNtB8_5visit7Visitor12visit_strongBa_
FNDA:0,_RNvYNtNtNtNtCscCfipWx6sdZ_13tsuzulint_ast7visitor4walk5tests13TextCollectorNtNtB8_5visit7Visitor14visit_documentBa_
FNDA:0,_RNvYNtNtNtNtCscCfipWx6sdZ_13tsuzulint_ast7visitor4walk5tests13TextCollectorNtNtB8_5visit7Visitor14visit_emphasisBa_
FNDA:0,_RNvYNtNtNtNtCscCfipWx6sdZ_13tsuzulint_ast7visitor4walk5tests13TextCollectorNtNtB8_5visit7Visitor15visit_list_itemBa_
FNDA:1,_RNvYNtNtNtNtCscCfipWx6sdZ_13tsuzulint_ast7visitor4walk5tests13TextCollectorNtNtB8_5visit7Visitor15visit_paragraphBa_
FNDA:0,_RNvYNtNtNtNtCscCfipWx6sdZ_13tsuzulint_ast7visitor4walk5tests13TextCollectorNtNtB8_5visit7Visitor15visit_table_rowBa_
FNDA:0,_RNvYNtNtNtNtCscCfipWx6sdZ_13tsuzulint_ast7visitor4walk5tests13TextCollectorNtNtB8_5visit7Visitor16visit_code_blockBa_
FNDA:0,_RNvYNtNtNtNtCscCfipWx6sdZ_13tsuzulint_ast7visitor4walk5tests13TextCollectorNtNtB8_5visit7Visitor16visit_definitionBa_
FNDA:0,_RNvYNtNtNtNtCscCfipWx6sdZ_13tsuzulint_ast7visitor4walk5tests13TextCollectorNtNtB8_5visit7Visitor16visit_table_cellBa_
FNDA:0,_RNvYNtNtNtNtCscCfipWx6sdZ_13tsuzulint_ast7visitor4walk5tests13TextCollectorNtNtB8_5visit7Visitor17visit_block_quoteBa_
FNDA:0,_RNvYNtNtNtNtCscCfipWx6sdZ_13tsuzulint_ast7visitor4walk5tests13TextCollectorNtNtB8_5visit7Visitor20visit_link_referenceBa_
FNDA:0,_RNvYNtNtNtNtCscCfipWx6sdZ_13tsuzulint_ast7visitor4walk5tests13TextCollectorNtNtB8_5visit7Visitor21visit_horizontal_ruleBa_
FNDA:0,_RNvYNtNtNtNtCscCfipWx6sdZ_13tsuzulint_ast7visitor4walk5tests13TextCollectorNtNtB8_5visit7Visitor21visit_image_referenceBa_
FNDA:0,_RNvYNtNtNtNtCscCfipWx6sdZ_13tsuzulint_ast7visitor4walk5tests13TextCollectorNtNtB8_5visit7Visitor24visit_footnote_referenceBa_
FNDA:0,_RNvYNtNtNtNtCscCfipWx6sdZ_13tsuzulint_ast7visitor4walk5tests13TextCollectorNtNtB8_5visit7Visitor25visit_footnote_definitionBa_
FNDA:4,_RNvYNtNtNtNtCscCfipWx6sdZ_13tsuzulint_ast7visitor4walk5tests13TextCollectorNtNtB8_5visit7Visitor9exit_nodeBa_
FNDA:2,_RNvYNtNtNtNtCscCfipWx6sdZ_13tsuzulint_ast7visitor4walk5tests14FirstStrFinderNtNtB8_5visit7Visitor10enter_nodeBa_
FNDA:0,_RNvYNtNtNtNtCscCfipWx6sdZ_13tsuzulint_ast7visitor4walk5tests14FirstStrFinderNtNtB8_5visit7Visitor10visit_codeBa_
FNDA:0,_RNvYNtNtNtNtCscCfipWx6sdZ_13tsuzulint_ast7visitor4walk5tests14FirstStrFinderNtNtB8_5visit7Visitor10visit_htmlBa_
FNDA:0,_RNvYNtNtNtNtCscCfipWx6sdZ_13tsuzulint_ast7visitor4walk5tests14FirstStrFinderNtNtB8_5visit7Visitor10visit_linkBa_
FNDA:0,_RNvYNtNtNtNtCscCfipWx6sdZ_13tsuzulint_ast7visitor4walk5tests14FirstStrFinderNtNtB8_5visit7Visitor10visit_listBa_
FNDA:0,_RNvYNtNtNtNtCscCfipWx6sdZ_13tsuzulint_ast7visitor4walk5tests14FirstStrFinderNtNtB8_5visit7Visitor11visit_breakBa_
FNDA:0,_RNvYNtNtNtNtCscCfipWx6sdZ_13tsuzulint_ast7visitor4walk5tests14FirstStrFinderNtNtB8_5visit7Visitor11visit_imageBa_
FNDA:0,_RNvYNtNtNtNtCscCfipWx6sdZ_13tsuzulint_ast7visitor4walk5tests14FirstStrFinderNtNtB8_5visit7Visitor11visit_tableBa_
FNDA:0,_RNvYNtNtNtNtCscCfipWx6sdZ_13tsuzulint_ast7visitor4walk5tests14FirstStrFinderNtNtB8_5visit7Visitor12visit_deleteBa_
FNDA:0,_RNvYNtNtNtNtCscCfipWx6sdZ_13tsuzulint_ast7visitor4walk5tests14FirstStrFinderNtNtB8_5visit7Visitor12visit_headerBa_
FNDA:0,_RNvYNtNtNtNtCscCfipWx6sdZ_13tsuzulint_ast7visitor4walk5tests14FirstStrFinderNtNtB8_5visit7Visitor12visit_strongBa_
FNDA:0,_RNvYNtNtNtNtCscCfipWx6sdZ_13tsuzulint_ast7visitor4walk5tests14FirstStrFinderNtNtB8_5visit7Visitor14visit_documentBa_
FNDA:0,_RNvYNtNtNtNtCscCfipWx6sdZ_13tsuzulint_ast7visitor4walk5tests14FirstStrFinderNtNtB8_5visit7Visitor14visit_emphasisBa_
FNDA:0,_RNvYNtNtNtNtCscCfipWx6sdZ_13tsuzulint_ast7visitor4walk5tests14FirstStrFinderNtNtB8_5visit7Visitor15visit_list_itemBa_
FNDA:1,_RNvYNtNtNtNtCscCfipWx6sdZ_13tsuzulint_ast7visitor4walk5tests14FirstStrFinderNtNtB8_5visit7Visitor15visit_paragraphBa_
FNDA:0,_RNvYNtNtNtNtCscCfipWx6sdZ_13tsuzulint_ast7visitor4walk5tests14FirstStrFinderNtNtB8_5visit7Visitor15visit_table_rowBa_
FNDA:0,_RNvYNtNtNtNtCscCfipWx6sdZ_13tsuzulint_ast7visitor4walk5tests14FirstStrFinderNtNtB8_5visit7Visitor16visit_code_blockBa_
FNDA:0,_RNvYNtNtNtNtCscCfipWx6sdZ_13tsuzulint_ast7visitor4walk5tests14FirstStrFinderNtNtB8_5visit7Visitor16visit_definitionBa_
FNDA:0,_RNvYNtNtNtNtCscCfipWx6sdZ_13tsuzulint_ast7visitor4walk5tests14FirstStrFinderNtNtB8_5visit7Visitor16visit_table_cellBa_
FNDA:0,_RNvYNtNtNtNtCscCfipWx6sdZ_13tsuzulint_ast7visitor4walk5tests14FirstStrFinderNtNtB8_5visit7Visitor17visit_block_quoteBa_
FNDA:0,_RNvYNtNtNtNtCscCfipWx6sdZ_13tsuzulint_ast7visitor4walk5tests14FirstStrFinderNtNtB8_5visit7Visitor20visit_link_referenceBa_
FNDA:0,_RNvYNtNtNtNtCscCfipWx6sdZ_13tsuzulint_ast7visitor4walk5tests14FirstStrFinderNtNtB8_5visit7Visitor21visit_horizontal_ruleBa_
FNDA:0,_RNvYNtNtNtNtCscCfipWx6sdZ_13tsuzulint_ast7visitor4walk5tests14FirstStrFinderNtNtB8_5visit7Visitor21visit_image_referenceBa_
FNDA:0,_RNvYNtNtNtNtCscCfipWx6sdZ_13tsuzulint_ast7visitor4walk5tests14FirstStrFinderNtNtB8_5visit7Visitor24visit_footnote_referenceBa_
FNDA:0,_RNvYNtNtNtNtCscCfipWx6sdZ_13tsuzulint_ast7visitor4walk5tests14FirstStrFinderNtNtB8_5visit7Visitor25visit_footnote_definitionBa_
FNDA:0,_RNvYNtNtNtNtCscCfipWx6sdZ_13tsuzulint_ast7visitor4walk5tests14FirstStrFinderNtNtB8_5visit7Visitor9exit_nodeBa_
FNDA:0,_RNvYNtNvNtNtNtCscCfipWx6sdZ_13tsuzulint_ast7visitor4walk5testss_36walk_node_calls_enter_and_exit_hooks11HookTrackerNtNtBa_5visit7Visitor10visit_codeBc_
FNDA:0,_RNvYNtNvNtNtNtCscCfipWx6sdZ_13tsuzulint_ast7visitor4walk5testss_36walk_node_calls_enter_and_exit_hooks11HookTrackerNtNtBa_5visit7Visitor10visit_htmlBc_
FNDA:0,_RNvYNtNvNtNtNtCscCfipWx6sdZ_13tsuzulint_ast7visitor4walk5testss_36walk_node_calls_enter_and_exit_hooks11HookTrackerNtNtBa_5visit7Visitor10visit_linkBc_
FNDA:0,_RNvYNtNvNtNtNtCscCfipWx6sdZ_13tsuzulint_ast7visitor4walk5testss_36walk_node_calls_enter_and_exit_hooks11HookTrackerNtNtBa_5visit7Visitor10visit_listBc_
FNDA:0,_RNvYNtNvNtNtNtCscCfipWx6sdZ_13tsuzulint_ast7visitor4walk5testss_36walk_node_calls_enter_and_exit_hooks11HookTrackerNtNtBa_5visit7Visitor11visit_breakBc_
FNDA:0,_RNvYNtNvNtNtNtCscCfipWx6sdZ_13tsuzulint_ast7visitor4walk5testss_36walk_node_calls_enter_and_exit_hooks11HookTrackerNtNtBa_5visit7Visitor11visit_imageBc_
FNDA:0,_RNvYNtNvNtNtNtCscCfipWx6sdZ_13tsuzulint_ast7visitor4walk5testss_36walk_node_calls_enter_and_exit_hooks11HookTrackerNtNtBa_5visit7Visitor11visit_tableBc_
FNDA:0,_RNvYNtNvNtNtNtCscCfipWx6sdZ_13tsuzulint_ast7visitor4walk5testss_36walk_node_calls_enter_and_exit_hooks11HookTrackerNtNtBa_5visit7Visitor12visit_deleteBc_
FNDA:0,_RNvYNtNvNtNtNtCscCfipWx6sdZ_13tsuzulint_ast7visitor4walk5testss_36walk_node_calls_enter_and_exit_hooks11HookTrackerNtNtBa_5visit7Visitor12visit_headerBc_
FNDA:0,_RNvYNtNvNtNtNtCscCfipWx6sdZ_13tsuzulint_ast7visitor4walk5testss_36walk_node_calls_enter_and_exit_hooks11HookTrackerNtNtBa_5visit7Visitor12visit_strongBc_
FNDA:0,_RNvYNtNvNtNtNtCscCfipWx6sdZ_13tsuzulint_ast7visitor4walk5testss_36walk_node_calls_enter_and_exit_hooks11HookTrackerNtNtBa_5visit7Visitor14visit_documentBc_
FNDA:0,_RNvYNtNvNtNtNtCscCfipWx6sdZ_13tsuzulint_ast7visitor4walk5testss_36walk_node_calls_enter_and_exit_hooks11HookTrackerNtNtBa_5visit7Visitor14visit_emphasisBc_
FNDA:0,_RNvYNtNvNtNtNtCscCfipWx6sdZ_13tsuzulint_ast7visitor4walk5testss_36walk_node_calls_enter_and_exit_hooks11HookTrackerNtNtBa_5visit7Visitor15visit_list_itemBc_
FNDA:1,_RNvYNtNvNtNtNtCscCfipWx6sdZ_13tsuzulint_ast7visitor4walk5testss_36walk_node_calls_enter_and_exit_hooks11HookTrackerNtNtBa_5visit7Visitor15visit_paragraphBc_
FNDA:0,_RNvYNtNvNtNtNtCscCfipWx6sdZ_13tsuzulint_ast7visitor4walk5testss_36walk_node_calls_enter_and_exit_hooks11HookTrackerNtNtBa_5visit7Visitor15visit_table_rowBc_
FNDA:0,_RNvYNtNvNtNtNtCscCfipWx6sdZ_13tsuzulint_ast7visitor4walk5testss_36walk_node_calls_enter_and_exit_hooks11HookTrackerNtNtBa_5visit7Visitor16visit_code_blockBc_
FNDA:0,_RNvYNtNvNtNtNtCscCfipWx6sdZ_13tsuzulint_ast7visitor4walk5testss_36walk_node_calls_enter_and_exit_hooks11HookTrackerNtNtBa_5visit7Visitor16visit_definitionBc_
FNDA:0,_RNvYNtNvNtNtNtCscCfipWx6sdZ_13tsuzulint_ast7visitor4walk5testss_36walk_node_calls_enter_and_exit_hooks11HookTrackerNtNtBa_5visit7Visitor16visit_table_cellBc_
FNDA:0,_RNvYNtNvNtNtNtCscCfipWx6sdZ_13tsuzulint_ast7visitor4walk5testss_36walk_node_calls_enter_and_exit_hooks11HookTrackerNtNtBa_5visit7Visitor17visit_block_quoteBc_
FNDA:0,_RNvYNtNvNtNtNtCscCfipWx6sdZ_13tsuzulint_ast7visitor4walk5testss_36walk_node_calls_enter_and_exit_hooks11HookTrackerNtNtBa_5visit7Visitor20visit_link_referenceBc_
FNDA:0,_RNvYNtNvNtNtNtCscCfipWx6sdZ_13tsuzulint_ast7visitor4walk5testss_36walk_node_calls_enter_and_exit_hooks11HookTrackerNtNtBa_5visit7Visitor21visit_horizontal_ruleBc_
FNDA:0,_RNvYNtNvNtNtNtCscCfipWx6sdZ_13tsuzulint_ast7visitor4walk5testss_36walk_node_calls_enter_and_exit_hooks11HookTrackerNtNtBa_5visit7Visitor21visit_image_referenceBc_
FNDA:0,_RNvYNtNvNtNtNtCscCfipWx6sdZ_13tsuzulint_ast7visitor4walk5testss_36walk_node_calls_enter_and_exit_hooks11HookTrackerNtNtBa_5visit7Visitor24visit_footnote_referenceBc_
FNDA:0,_RNvYNtNvNtNtNtCscCfipWx6sdZ_13tsuzulint_ast7visitor4walk5testss_36walk_node_calls_enter_and_exit_hooks11HookTrackerNtNtBa_5visit7Visitor25visit_footnote_definitionBc_
FNDA:1,_RNvYNtNvNtNtNtCscCfipWx6sdZ_13tsuzulint_ast7visitor4walk5testss_36walk_node_calls_enter_and_exit_hooks11HookTrackerNtNtBa_5visit7Visitor9visit_strBc_
FNDA:360,_RNvYNtNvNtCs47f85yxqTTa_14tsuzulint_core12ignore_range21extract_ignore_ranges18CodeRangeCollectorNtNtNtCs9bJaZoOZVf6_13tsuzulint_ast7visitor5visit7Visitor10enter_nodeB8_
FNDA:0,_RNvYNtNvNtCs47f85yxqTTa_14tsuzulint_core12ignore_range21extract_ignore_ranges18CodeRangeCollectorNtNtNtCs9bJaZoOZVf6_13tsuzulint_ast7visitor5visit7Visitor10visit_htmlB8_
FNDA:0,_RNvYNtNvNtCs47f85yxqTTa_14tsuzulint_core12ignore_range21extract_ignore_ranges18CodeRangeCollectorNtNtNtCs9bJaZoOZVf6_13tsuzulint_ast7visitor5visit7Visitor10visit_linkB8_
FNDA:8,_RNvYNtNvNtCs47f85yxqTTa_14tsuzulint_core12ignore_range21extract_ignore_ranges18CodeRangeCollectorNtNtNtCs9bJaZoOZVf6_13tsuzulint_ast7visitor5visit7Visitor10visit_listB8_
FNDA:0,_RNvYNtNvNtCs47f85yxqTTa_14tsuzulint_core12ignore_range21extract_ignore_ranges18CodeRangeCollectorNtNtNtCs9bJaZoOZVf6_13tsuzulint_ast7visitor5visit7Visitor11visit_breakB8_
FNDA:0,_RNvYNtNvNtCs47f85yxqTTa_14tsuzulint_core12ignore_range21extract_ignore_ranges18CodeRangeCollectorNtNtNtCs9bJaZoOZVf6_13tsuzulint_ast7visitor5visit7Visitor11visit_imageB8_
FNDA:2,_RNvYNtNvNtCs47f85yxqTTa_14tsuzulint_core12ignore_range21extract_ignore_ranges18CodeRangeCollectorNtNtNtCs9bJaZoOZVf6_13tsuzulint_ast7visitor5visit7Visitor11visit_tableB8_
FNDA:0,_RNvYNtNvNtCs47f85yxqTTa_14tsuzulint_core12ignore_range21extract_ignore_ranges18CodeRangeCollectorNtNtNtCs9bJaZoOZVf6_13tsuzulint_ast7visitor5visit7Visitor12visit_deleteB8_
FNDA:23,_RNvYNtNvNtCs47f85yxqTTa_14tsuzulint_core12ignore_range21extract_ignore_ranges18CodeRangeCollectorNtNtNtCs9bJaZoOZVf6_13tsuzulint_ast7visitor5visit7Visitor12visit_headerB8_
FNDA:12,_RNvYNtNvNtCs47f85yxqTTa_14tsuzulint_core12ignore_range21extract_ignore_ranges18CodeRangeCollectorNtNtNtCs9bJaZoOZVf6_13tsuzulint_ast7visitor5visit7Visitor12visit_strongB8_
FNDA:20,_RNvYNtNvNtCs47f85yxqTTa_14tsuzulint_core12ignore_range21extract_ignore_ranges18CodeRangeCollectorNtNtNtCs9bJaZoOZVf6_13tsuzulint_ast7visitor5visit7Visitor14visit_documentB8_
FNDA:0,_RNvYNtNvNtCs47f85yxqTTa_14tsuzulint_core12ignore_range21extract_ignore_ranges18CodeRangeCollectorNtNtNtCs9bJaZoOZVf6_13tsuzulint_ast7visitor5visit7Visitor14visit_emphasisB8_
FNDA:23,_RNvYNtNvNtCs47f85yxqTTa_14tsuzulint_core12ignore_range21extract_ignore_ranges18CodeRangeCollectorNtNtNtCs9bJaZoOZVf6_13tsuzulint_ast7visitor5visit7Visitor15visit_list_itemB8_
FNDA:45,_RNvYNtNvNtCs47f85yxqTTa_14tsuzulint_core12ignore_range21extract_ignore_ranges18CodeRangeCollectorNtNtNtCs9bJaZoOZVf6_13tsuzulint_ast7visitor5visit7Visitor15visit_paragraphB8_
FNDA:23,_RNvYNtNvNtCs47f85yxqTTa_14tsuzulint_core12ignore_range21extract_ignore_ranges18CodeRangeCollectorNtNtNtCs9bJaZoOZVf6_13tsuzulint_ast7visitor5visit7Visitor15visit_table_rowB8_
FNDA:0,_RNvYNtNvNtCs47f85yxqTTa_14tsuzulint_core12ignore_range21extract_ignore_ranges18CodeRangeCollectorNtNtNtCs9bJaZoOZVf6_13tsuzulint_ast7visitor5visit7Visitor16visit_definitionB8_
FNDA:46,_RNvYNtNvNtCs47f85yxqTTa_14tsuzulint_core12ignore_range21extract_ignore_ranges18CodeRangeCollectorNtNtNtCs9bJaZoOZVf6_13tsuzulint_ast7visitor5visit7Visitor16visit_table_cellB8_
FNDA:0,_RNvYNtNvNtCs47f85yxqTTa_14tsuzulint_core12ignore_range21extract_ignore_ranges18CodeRangeCollectorNtNtNtCs9bJaZoOZVf6_13tsuzulint_ast7visitor5visit7Visitor17visit_block_quoteB8_
FNDA:0,_RNvYNtNvNtCs47f85yxqTTa_14tsuzulint_core12ignore_range21extract_ignore_ranges18CodeRangeCollectorNtNtNtCs9bJaZoOZVf6_13tsuzulint_ast7visitor5visit7Visitor20visit_link_referenceB8_
FNDA:0,_RNvYNtNvNtCs47f85yxqTTa_14tsuzulint_core12ignore_range21extract_ignore_ranges18CodeRangeCollectorNtNtNtCs9bJaZoOZVf6_13tsuzulint_ast7visitor5visit7Visitor21visit_horizontal_ruleB8_
FNDA:0,_RNvYNtNvNtCs47f85yxqTTa_14tsuzulint_core12ignore_range21extract_ignore_ranges18CodeRangeCollectorNtNtNtCs9bJaZoOZVf6_13tsuzulint_ast7visitor5visit7Visitor21visit_image_referenceB8_
FNDA:0,_RNvYNtNvNtCs47f85yxqTTa_14tsuzulint_core12ignore_range21extract_ignore_ranges18CodeRangeCollectorNtNtNtCs9bJaZoOZVf6_13tsuzulint_ast7visitor5visit7Visitor24visit_footnote_referenceB8_
FNDA:0,_RNvYNtNvNtCs47f85yxqTTa_14tsuzulint_core12ignore_range21extract_ignore_ranges18CodeRangeCollectorNtNtNtCs9bJaZoOZVf6_13tsuzulint_ast7visitor5visit7Visitor25visit_footnote_definitionB8_
FNDA:360,_RNvYNtNvNtCs47f85yxqTTa_14tsuzulint_core12ignore_range21extract_ignore_ranges18CodeRangeCollectorNtNtNtCs9bJaZoOZVf6_13tsuzulint_ast7visitor5visit7Visitor9exit_nodeB8_
FNDA:115,_RNvYNtNvNtCs47f85yxqTTa_14tsuzulint_core12ignore_range21extract_ignore_ranges18CodeRangeCollectorNtNtNtCs9bJaZoOZVf6_13tsuzulint_ast7visitor5visit7Visitor9visit_strB8_
FNF:28
FNH:12
DA:69,490
DA:70,490
DA:71,490
DA:75,496
DA:76,496
DA:77,496
DA:83,0
DA:84,0
DA:85,0
DA:90,36
DA:91,36
DA:92,36
DA:95,73
DA:96,73
DA:97,73
DA:100,52
DA:101,52
DA:102,52
DA:105,0
DA:106,0
DA:107,0
DA:110,8
DA:111,8
DA:112,8
DA:115,23
DA:116,23
DA:117,23
DA:120,0
DA:121,0
DA:122,0
DA:125,0
DA:126,0
DA:127,0
DA:130,0
DA:131,0
DA:132,0
DA:137,170
DA:138,170
DA:139,170
DA:142,0
DA:143,0
DA:144,0
DA:147,0
DA:148,0
DA:149,0
DA:152,12
DA:153,12
DA:154,12
DA:157,0
DA:158,0
DA:159,0
DA:162,0
DA:163,0
DA:164,0
DA:167,0
DA:168,0
DA:169,0
DA:172,0
DA:173,0
DA:174,0
DA:179,0
DA:180,0
DA:181,0
DA:184,0
DA:185,0
DA:186,0
DA:189,0
DA:190,0
DA:191,0
DA:196,2
DA:197,2
DA:198,2
DA:201,23
DA:202,23
DA:203,23
DA:206,46
DA:207,46
DA:208,46
DA:213,0
DA:214,0
DA:215,0
DA:218,0
DA:219,0
DA:220,0
BRF:0
BRH:0
LF:84
LH:36
end_of_record
SF:/app/crates/tsuzulint_ast/src/visitor/visit_mut.rs
FN:204,_RINvNtNtCs9bJaZoOZVf6_13tsuzulint_ast7visitor9visit_mut13walk_node_mutpEB6_
FN:250,_RINvNtNtCs9bJaZoOZVf6_13tsuzulint_ast7visitor9visit_mut17walk_children_mutpEB6_
FN:115,_RNvYpNtNtNtCs9bJaZoOZVf6_13tsuzulint_ast7visitor9visit_mut10MutVisitor13visit_str_mutB9_
FN:140,_RNvYpNtNtNtCs9bJaZoOZVf6_13tsuzulint_ast7visitor9visit_mut10MutVisitor14visit_code_mutB9_
FN:108,_RNvYpNtNtNtCs9bJaZoOZVf6_13tsuzulint_ast7visitor9visit_mut10MutVisitor14visit_html_mutB9_
FN:145,_RNvYpNtNtNtCs9bJaZoOZVf6_13tsuzulint_ast7visitor9visit_mut10MutVisitor14visit_link_mutB9_
FN:88,_RNvYpNtNtNtCs9bJaZoOZVf6_13tsuzulint_ast7visitor9visit_mut10MutVisitor14visit_list_mutB9_
FN:61,_RNvYpNtNtNtCs9bJaZoOZVf6_13tsuzulint_ast7visitor9visit_mut10MutVisitor14visit_node_mutB9_
FN:120,_RNvYpNtNtNtCs9bJaZoOZVf6_13tsuzulint_ast7visitor9visit_mut10MutVisitor15visit_break_mutB9_
FN:150,_RNvYpNtNtNtCs9bJaZoOZVf6_13tsuzulint_ast7visitor9visit_mut10MutVisitor15visit_image_mutB9_
FN:174,_RNvYpNtNtNtCs9bJaZoOZVf6_13tsuzulint_ast7visitor9visit_mut10MutVisitor15visit_table_mutB9_
FN:135,_RNvYpNtNtNtCs9bJaZoOZVf6_13tsuzulint_ast7visitor9visit_mut10MutVisitor16visit_delete_mutB9_
FN:78,_RNvYpNtNtNtCs9bJaZoOZVf6_13tsuzulint_ast7visitor9visit_mut10MutVisitor16visit_header_mutB9_
FN:130,_RNvYpNtNtNtCs9bJaZoOZVf6_13tsuzulint_ast7visitor9visit_mut10MutVisitor16visit_strong_mutB9_
FN:68,_RNvYpNtNtNtCs9bJaZoOZVf6_13tsuzulint_ast7visitor9visit_mut10MutVisitor18visit_document_mutB9_
FN:125,_RNvYpNtNtNtCs9bJaZoOZVf6_13tsuzulint_ast7visitor9visit_mut10MutVisitor18visit_emphasis_mutB9_
FN:93,_RNvYpNtNtNtCs9bJaZoOZVf6_13tsuzulint_ast7visitor9visit_mut10MutVisitor19visit_list_item_mutB9_
FN:73,_RNvYpNtNtNtCs9bJaZoOZVf6_13tsuzulint_ast7visitor9visit_mut10MutVisitor19visit_paragraph_mutB9_
FN:179,_RNvYpNtNtNtCs9bJaZoOZVf6_13tsuzulint_ast7visitor9visit_mut10MutVisitor19visit_table_row_mutB9_
FN:98,_RNvYpNtNtNtCs9bJaZoOZVf6_13tsuzulint_ast7visitor9visit_mut10MutVisitor20visit_code_block_mutB9_
FN:167,_RNvYpNtNtNtCs9bJaZoOZVf6_13tsuzulint_ast7visitor9visit_mut10MutVisitor20visit_definition_mutB9_
FN:184,_RNvYpNtNtNtCs9bJaZoOZVf6_13tsuzulint_ast7visitor9visit_mut10MutVisitor20visit_table_cell_mutB9_
FN:83,_RNvYpNtNtNtCs9bJaZoOZVf6_13tsuzulint_ast7visitor9visit_mut10MutVisitor21visit_block_quote_mutB9_
FN:157,_RNvYpNtNtNtCs9bJaZoOZVf6_13tsuzulint_ast7visitor9visit_mut10MutVisitor24visit_link_reference_mutB9_
FN:103,_RNvYpNtNtNtCs9bJaZoOZVf6_13tsuzulint_ast7visitor9visit_mut10MutVisitor25visit_horizontal_rule_mutB9_
FN:162,_RNvYpNtNtNtCs9bJaZoOZVf6_13tsuzulint_ast7visitor9visit_mut10MutVisitor25visit_image_reference_mutB9_
FN:196,_RNvYpNtNtNtCs9bJaZoOZVf6_13tsuzulint_ast7visitor9visit_mut10MutVisitor28visit_footnote_reference_mutB9_
FN:191,_RNvYpNtNtNtCs9bJaZoOZVf6_13tsuzulint_ast7visitor9visit_mut10MutVisitor29visit_footnote_definition_mutB9_
FN:300,_RNCNvXNtNtNtCscCfipWx6sdZ_13tsuzulint_ast7visitor9visit_mut5testsNtB4_20UppercaseTransformerNtB6_10MutVisitor13visit_str_mut0Ba_
FN:115,_RNvYNtNtNtNtCscCfipWx6sdZ_13tsuzulint_ast7visitor9visit_mut5tests19HeaderDepthAdjusterNtB6_10MutVisitor13visit_str_mutBa_
FN:140,_RNvYNtNtNtNtCscCfipWx6sdZ_13tsuzulint_ast7visitor9visit_mut5tests19HeaderDepthAdjusterNtB6_10MutVisitor14visit_code_mutBa_
FN:108,_RNvYNtNtNtNtCscCfipWx6sdZ_13tsuzulint_ast7visitor9visit_mut5tests19HeaderDepthAdjusterNtB6_10MutVisitor14visit_html_mutBa_
FN:145,_RNvYNtNtNtNtCscCfipWx6sdZ_13tsuzulint_ast7visitor9visit_mut5tests19HeaderDepthAdjusterNtB6_10MutVisitor14visit_link_mutBa_
FN:88,_RNvYNtNtNtNtCscCfipWx6sdZ_13tsuzulint_ast7visitor9visit_mut5tests19HeaderDepthAdjusterNtB6_10MutVisitor14visit_list_mutBa_
FN:61,_RNvYNtNtNtNtCscCfipWx6sdZ_13tsuzulint_ast7visitor9visit_mut5tests19HeaderDepthAdjusterNtB6_10MutVisitor14visit_node_mutBa_
FN:120,_RNvYNtNtNtNtCscCfipWx6sdZ_13tsuzulint_ast7visitor9visit_mut5tests19HeaderDepthAdjusterNtB6_10MutVisitor15visit_break_mutBa_
FN:150,_RNvYNtNtNtNtCscCfipWx6sdZ_13tsuzulint_ast7visitor9visit_mut5tests19HeaderDepthAdjusterNtB6_10MutVisitor15visit_image_mutBa_
FN:174,_RNvYNtNtNtNtCscCfipWx6sdZ_13tsuzulint_ast7visitor9visit_mut5tests19HeaderDepthAdjusterNtB6_10MutVisitor15visit_table_mutBa_
FN:135,_RNvYNtNtNtNtCscCfipWx6sdZ_13tsuzulint_ast7visitor9visit_mut5tests19HeaderDepthAdjusterNtB6_10MutVisitor16visit_delete_mutBa_
FN:130,_RNvYNtNtNtNtCscCfipWx6sdZ_13tsuzulint_ast7visitor9visit_mut5tests19HeaderDepthAdjusterNtB6_10MutVisitor16visit_strong_mutBa_
FN:68,_RNvYNtNtNtNtCscCfipWx6sdZ_13tsuzulint_ast7visitor9visit_mut5tests19HeaderDepthAdjusterNtB6_10MutVisitor18visit_document_mutBa_
FN:125,_RNvYNtNtNtNtCscCfipWx6sdZ_13tsuzulint_ast7visitor9visit_mut5tests19HeaderDepthAdjusterNtB6_10MutVisitor18visit_emphasis_mutBa_
FN:93,_RNvYNtNtNtNtCscCfipWx6sdZ_13tsuzulint_ast7visitor9visit_mut5tests19HeaderDepthAdjusterNtB6_10MutVisitor19visit_list_item_mutBa_
FN:73,_RNvYNtNtNtNtCscCfipWx6sdZ_13tsuzulint_ast7visitor9visit_mut5tests19HeaderDepthAdjusterNtB6_10MutVisitor19visit_paragraph_mutBa_
FN:179,_RNvYNtNtNtNtCscCfipWx6sdZ_13tsuzulint_ast7visitor9visit_mut5tests19HeaderDepthAdjusterNtB6_10MutVisitor19visit_table_row_mutBa_
FN:98,_RNvYNtNtNtNtCscCfipWx6sdZ_13tsuzulint_ast7visitor9visit_mut5tests19HeaderDepthAdjusterNtB6_10MutVisitor20visit_code_block_mutBa_
FN:167,_RNvYNtNtNtNtCscCfipWx6sdZ_13tsuzulint_ast7visitor9visit_mut5tests19HeaderDepthAdjusterNtB6_10MutVisitor20visit_definition_mutBa_
FN:184,_RNvYNtNtNtNtCscCfipWx6sdZ_13tsuzulint_ast7visitor9visit_mut5tests19HeaderDepthAdjusterNtB6_10MutVisitor20visit_table_cell_mutBa_
FN:83,_RNvYNtNtNtNtCscCfipWx6sdZ_13tsuzulint_ast7visitor9visit_mut5tests19HeaderDepthAdjusterNtB6_10MutVisitor21visit_block_quote_mutBa_
FN:157,_RNvYNtNtNtNtCscCfipWx6sdZ_13tsuzulint_ast7visitor9visit_mut5tests19HeaderDepthAdjusterNtB6_10MutVisitor24visit_link_reference_mutBa_
FN:103,_RNvYNtNtNtNtCscCfipWx6sdZ_13tsuzulint_ast7visitor9visit_mut5tests19HeaderDepthAdjusterNtB6_10MutVisitor25visit_horizontal_rule_mutBa_
FN:162,_RNvYNtNtNtNtCscCfipWx6sdZ_13tsuzulint_ast7visitor9visit_mut5tests19HeaderDepthAdjusterNtB6_10MutVisitor25visit_image_reference_mutBa_
FN:196,_RNvYNtNtNtNtCscCfipWx6sdZ_13tsuzulint_ast7visitor9visit_mut5tests19HeaderDepthAdjusterNtB6_10MutVisitor28visit_footnote_reference_mutBa_
FN:191,_RNvYNtNtNtNtCscCfipWx6sdZ_13tsuzulint_ast7visitor9visit_mut5tests19HeaderDepthAdjusterNtB6_10MutVisitor29visit_footnote_definition_mutBa_
FN:140,_RNvYNtNtNtNtCscCfipWx6sdZ_13tsuzulint_ast7visitor9visit_mut5tests20UppercaseTransformerNtB6_10MutVisitor14visit_code_mutBa_
FN:108,_RNvYNtNtNtNtCscCfipWx6sdZ_13tsuzulint_ast7visitor9visit_mut5tests20UppercaseTransformerNtB6_10MutVisitor14visit_html_mutBa_
FN:145,_RNvYNtNtNtNtCscCfipWx6sdZ_13tsuzulint_ast7visitor9visit_mut5tests20UppercaseTransformerNtB6_10MutVisitor14visit_link_mutBa_
FN:88,_RNvYNtNtNtNtCscCfipWx6sdZ_13tsuzulint_ast7visitor9visit_mut5tests20UppercaseTransformerNtB6_10MutVisitor14visit_list_mutBa_
FN:61,_RNvYNtNtNtNtCscCfipWx6sdZ_13tsuzulint_ast7visitor9visit_mut5tests20UppercaseTransformerNtB6_10MutVisitor14visit_node_mutBa_
FN:120,_RNvYNtNtNtNtCscCfipWx6sdZ_13tsuzulint_ast7visitor9visit_mut5tests20UppercaseTransformerNtB6_10MutVisitor15visit_break_mutBa_
FN:150,_RNvYNtNtNtNtCscCfipWx6sdZ_13tsuzulint_ast7visitor9visit_mut5tests20UppercaseTransformerNtB6_10MutVisitor15visit_image_mutBa_
FN:174,_RNvYNtNtNtNtCscCfipWx6sdZ_13tsuzulint_ast7visitor9visit_mut5tests20UppercaseTransformerNtB6_10MutVisitor15visit_table_mutBa_
FN:135,_RNvYNtNtNtNtCscCfipWx6sdZ_13tsuzulint_ast7visitor9visit_mut5tests20UppercaseTransformerNtB6_10MutVisitor16visit_delete_mutBa_
FN:78,_RNvYNtNtNtNtCscCfipWx6sdZ_13tsuzulint_ast7visitor9visit_mut5tests20UppercaseTransformerNtB6_10MutVisitor16visit_header_mutBa_
FN:130,_RNvYNtNtNtNtCscCfipWx6sdZ_13tsuzulint_ast7visitor9visit_mut5tests20UppercaseTransformerNtB6_10MutVisitor16visit_strong_mutBa_
FN:68,_RNvYNtNtNtNtCscCfipWx6sdZ_13tsuzulint_ast7visitor9visit_mut5tests20UppercaseTransformerNtB6_10MutVisitor18visit_document_mutBa_
FN:125,_RNvYNtNtNtNtCscCfipWx6sdZ_13tsuzulint_ast7visitor9visit_mut5tests20UppercaseTransformerNtB6_10MutVisitor18visit_emphasis_mutBa_
FN:93,_RNvYNtNtNtNtCscCfipWx6sdZ_13tsuzulint_ast7visitor9visit_mut5tests20UppercaseTransformerNtB6_10MutVisitor19visit_list_item_mutBa_
FN:73,_RNvYNtNtNtNtCscCfipWx6sdZ_13tsuzulint_ast7visitor9visit_mut5tests20UppercaseTransformerNtB6_10MutVisitor19visit_paragraph_mutBa_
FN:179,_RNvYNtNtNtNtCscCfipWx6sdZ_13tsuzulint_ast7visitor9visit_mut5tests20UppercaseTransformerNtB6_10MutVisitor19visit_table_row_mutBa_
FN:98,_RNvYNtNtNtNtCscCfipWx6sdZ_13tsuzulint_ast7visitor9visit_mut5tests20UppercaseTransformerNtB6_10MutVisitor20visit_code_block_mutBa_
FN:167,_RNvYNtNtNtNtCscCfipWx6sdZ_13tsuzulint_ast7visitor9visit_mut5tests20UppercaseTransformerNtB6_10MutVisitor20visit_definition_mutBa_
FN:184,_RNvYNtNtNtNtCscCfipWx6sdZ_13tsuzulint_ast7visitor9visit_mut5tests20UppercaseTransformerNtB6_10MutVisitor20visit_table_cell_mutBa_
FN:83,_RNvYNtNtNtNtCscCfipWx6sdZ_13tsuzulint_ast7visitor9visit_mut5tests20UppercaseTransformerNtB6_10MutVisitor21visit_block_quote_mutBa_
FN:157,_RNvYNtNtNtNtCscCfipWx6sdZ_13tsuzulint_ast7visitor9visit_mut5tests20UppercaseTransformerNtB6_10MutVisitor24visit_link_reference_mutBa_
FN:103,_RNvYNtNtNtNtCscCfipWx6sdZ_13tsuzulint_ast7visitor9visit_mut5tests20UppercaseTransformerNtB6_10MutVisitor25visit_horizontal_rule_mutBa_
FN:162,_RNvYNtNtNtNtCscCfipWx6sdZ_13tsuzulint_ast7visitor9visit_mut5tests20UppercaseTransformerNtB6_10MutVisitor25visit_image_reference_mutBa_
FN:196,_RNvYNtNtNtNtCscCfipWx6sdZ_13tsuzulint_ast7visitor9visit_mut5tests20UppercaseTransformerNtB6_10MutVisitor28visit_footnote_reference_mutBa_
FN:191,_RNvYNtNtNtNtCscCfipWx6sdZ_13tsuzulint_ast7visitor9visit_mut5tests20UppercaseTransformerNtB6_10MutVisitor29visit_footnote_definition_mutBa_
FN:423,_RNvNtNtNtCscCfipWx6sdZ_13tsuzulint_ast7visitor9visit_mut5testss_31mut_visitor_clamps_header_depth
FN:402,_RNvNtNtNtCscCfipWx6sdZ_13tsuzulint_ast7visitor9visit_mut5testss_32mut_visitor_adjusts_header_depth
FN:361,_RNvNtNtNtCscCfipWx6sdZ_13tsuzulint_ast7visitor9visit_mut5testss_32walk_children_mut_empty_children
FN:308,_RNvNtNtNtCscCfipWx6sdZ_13tsuzulint_ast7visitor9visit_mut5testss_34walk_node_mut_transforms_text_node
FN:321,_RNvNtNtNtCscCfipWx6sdZ_13tsuzulint_ast7visitor9visit_mut5testss_40walk_children_mut_transforms_nested_text
FN:343,_RNvNtNtNtCscCfipWx6sdZ_13tsuzulint_ast7visitor9visit_mut5testss_46walk_children_mut_returns_none_when_no_changes
FN:299,_RNvXNtNtNtCscCfipWx6sdZ_13tsuzulint_ast7visitor9visit_mut5testsNtB2_20UppercaseTransformerNtB4_10MutVisitor13visit_str_mut
FN:295,_RNvXNtNtNtCscCfipWx6sdZ_13tsuzulint_ast7visitor9visit_mut5testsNtB2_20UppercaseTransformerNtB4_10MutVisitor5arena
FN:386,_RNvXs_NtNtNtCscCfipWx6sdZ_13tsuzulint_ast7visitor9visit_mut5testsNtB4_19HeaderDepthAdjusterNtB6_10MutVisitor16visit_header_mut
FN:382,_RNvXs_NtNtNtCscCfipWx6sdZ_13tsuzulint_ast7visitor9visit_mut5testsNtB4_19HeaderDepthAdjusterNtB6_10MutVisitor5arena
FN:204,_RINvNtNtCscCfipWx6sdZ_13tsuzulint_ast7visitor9visit_mut13walk_node_mutNtNtB2_5tests19HeaderDepthAdjusterEB6_
FN:204,_RINvNtNtCscCfipWx6sdZ_13tsuzulint_ast7visitor9visit_mut13walk_node_mutNtNtB2_5tests20UppercaseTransformerEB6_
FN:250,_RINvNtNtCscCfipWx6sdZ_13tsuzulint_ast7visitor9visit_mut17walk_children_mutNtNtB2_5tests19HeaderDepthAdjusterEB6_
FN:250,_RINvNtNtCscCfipWx6sdZ_13tsuzulint_ast7visitor9visit_mut17walk_children_mutNtNtB2_5tests20UppercaseTransformerEB6_
FNDA:0,_RINvNtNtCs9bJaZoOZVf6_13tsuzulint_ast7visitor9visit_mut13walk_node_mutpEB6_
FNDA:0,_RINvNtNtCs9bJaZoOZVf6_13tsuzulint_ast7visitor9visit_mut17walk_children_mutpEB6_
FNDA:0,_RNvYpNtNtNtCs9bJaZoOZVf6_13tsuzulint_ast7visitor9visit_mut10MutVisitor13visit_str_mutB9_
FNDA:0,_RNvYpNtNtNtCs9bJaZoOZVf6_13tsuzulint_ast7visitor9visit_mut10MutVisitor14visit_code_mutB9_
FNDA:0,_RNvYpNtNtNtCs9bJaZoOZVf6_13tsuzulint_ast7visitor9visit_mut10MutVisitor14visit_html_mutB9_
FNDA:0,_RNvYpNtNtNtCs9bJaZoOZVf6_13tsuzulint_ast7visitor9visit_mut10MutVisitor14visit_link_mutB9_
FNDA:0,_RNvYpNtNtNtCs9bJaZoOZVf6_13tsuzulint_ast7visitor9visit_mut10MutVisitor14visit_list_mutB9_
FNDA:0,_RNvYpNtNtNtCs9bJaZoOZVf6_13tsuzulint_ast7visitor9visit_mut10MutVisitor14visit_node_mutB9_
FNDA:0,_RNvYpNtNtNtCs9bJaZoOZVf6_13tsuzulint_ast7visitor9visit_mut10MutVisitor15visit_break_mutB9_
FNDA:0,_RNvYpNtNtNtCs9bJaZoOZVf6_13tsuzulint_ast7visitor9visit_mut10MutVisitor15visit_image_mutB9_
FNDA:0,_RNvYpNtNtNtCs9bJaZoOZVf6_13tsuzulint_ast7visitor9visit_mut10MutVisitor15visit_table_mutB9_
FNDA:0,_RNvYpNtNtNtCs9bJaZoOZVf6_13tsuzulint_ast7visitor9visit_mut10MutVisitor16visit_delete_mutB9_
FNDA:0,_RNvYpNtNtNtCs9bJaZoOZVf6_13tsuzulint_ast7visitor9visit_mut10MutVisitor16visit_header_mutB9_
FNDA:0,_RNvYpNtNtNtCs9bJaZoOZVf6_13tsuzulint_ast7visitor9visit_mut10MutVisitor16visit_strong_mutB9_
FNDA:0,_RNvYpNtNtNtCs9bJaZoOZVf6_13tsuzulint_ast7visitor9visit_mut10MutVisitor18visit_document_mutB9_
FNDA:0,_RNvYpNtNtNtCs9bJaZoOZVf6_13tsuzulint_ast7visitor9visit_mut10MutVisitor18visit_emphasis_mutB9_
FNDA:0,_RNvYpNtNtNtCs9bJaZoOZVf6_13tsuzulint_ast7visitor9visit_mut10MutVisitor19visit_list_item_mutB9_
FNDA:0,_RNvYpNtNtNtCs9bJaZoOZVf6_13tsuzulint_ast7visitor9visit_mut10MutVisitor19visit_paragraph_mutB9_
FNDA:0,_RNvYpNtNtNtCs9bJaZoOZVf6_13tsuzulint_ast7visitor9visit_mut10MutVisitor19visit_table_row_mutB9_
FNDA:0,_RNvYpNtNtNtCs9bJaZoOZVf6_13tsuzulint_ast7visitor9visit_mut10MutVisitor20visit_code_block_mutB9_
FNDA:0,_RNvYpNtNtNtCs9bJaZoOZVf6_13tsuzulint_ast7visitor9visit_mut10MutVisitor20visit_definition_mutB9_
FNDA:0,_RNvYpNtNtNtCs9bJaZoOZVf6_13tsuzulint_ast7visitor9visit_mut10MutVisitor20visit_table_cell_mutB9_
FNDA:0,_RNvYpNtNtNtCs9bJaZoOZVf6_13tsuzulint_ast7visitor9visit_mut10MutVisitor21visit_block_quote_mutB9_
FNDA:0,_RNvYpNtNtNtCs9bJaZoOZVf6_13tsuzulint_ast7visitor9visit_mut10MutVisitor24visit_link_reference_mutB9_
FNDA:0,_RNvYpNtNtNtCs9bJaZoOZVf6_13tsuzulint_ast7visitor9visit_mut10MutVisitor25visit_horizontal_rule_mutB9_
FNDA:0,_RNvYpNtNtNtCs9bJaZoOZVf6_13tsuzulint_ast7visitor9visit_mut10MutVisitor25visit_image_reference_mutB9_
FNDA:0,_RNvYpNtNtNtCs9bJaZoOZVf6_13tsuzulint_ast7visitor9visit_mut10MutVisitor28visit_footnote_reference_mutB9_
FNDA:0,_RNvYpNtNtNtCs9bJaZoOZVf6_13tsuzulint_ast7visitor9visit_mut10MutVisitor29visit_footnote_definition_mutB9_
FNDA:3,_RNCNvXNtNtNtCscCfipWx6sdZ_13tsuzulint_ast7visitor9visit_mut5testsNtB4_20UppercaseTransformerNtB6_10MutVisitor13visit_str_mut0Ba_
FNDA:2,_RNvYNtNtNtNtCscCfipWx6sdZ_13tsuzulint_ast7visitor9visit_mut5tests19HeaderDepthAdjusterNtB6_10MutVisitor13visit_str_mutBa_
FNDA:0,_RNvYNtNtNtNtCscCfipWx6sdZ_13tsuzulint_ast7visitor9visit_mut5tests19HeaderDepthAdjusterNtB6_10MutVisitor14visit_code_mutBa_
FNDA:0,_RNvYNtNtNtNtCscCfipWx6sdZ_13tsuzulint_ast7visitor9visit_mut5tests19HeaderDepthAdjusterNtB6_10MutVisitor14visit_html_mutBa_
FNDA:0,_RNvYNtNtNtNtCscCfipWx6sdZ_13tsuzulint_ast7visitor9visit_mut5tests19HeaderDepthAdjusterNtB6_10MutVisitor14visit_link_mutBa_
FNDA:0,_RNvYNtNtNtNtCscCfipWx6sdZ_13tsuzulint_ast7visitor9visit_mut5tests19HeaderDepthAdjusterNtB6_10MutVisitor14visit_list_mutBa_
FNDA:2,_RNvYNtNtNtNtCscCfipWx6sdZ_13tsuzulint_ast7visitor9visit_mut5tests19HeaderDepthAdjusterNtB6_10MutVisitor14visit_node_mutBa_
FNDA:0,_RNvYNtNtNtNtCscCfipWx6sdZ_13tsuzulint_ast7visitor9visit_mut5tests19HeaderDepthAdjusterNtB6_10MutVisitor15visit_break_mutBa_
FNDA:0,_RNvYNtNtNtNtCscCfipWx6sdZ_13tsuzulint_ast7visitor9visit_mut5tests19HeaderDepthAdjusterNtB6_10MutVisitor15visit_image_mutBa_
FNDA:0,_RNvYNtNtNtNtCscCfipWx6sdZ_13tsuzulint_ast7visitor9visit_mut5tests19HeaderDepthAdjusterNtB6_10MutVisitor15visit_table_mutBa_
FNDA:0,_RNvYNtNtNtNtCscCfipWx6sdZ_13tsuzulint_ast7visitor9visit_mut5tests19HeaderDepthAdjusterNtB6_10MutVisitor16visit_delete_mutBa_
FNDA:0,_RNvYNtNtNtNtCscCfipWx6sdZ_13tsuzulint_ast7visitor9visit_mut5tests19HeaderDepthAdjusterNtB6_10MutVisitor16visit_strong_mutBa_
FNDA:0,_RNvYNtNtNtNtCscCfipWx6sdZ_13tsuzulint_ast7visitor9visit_mut5tests19HeaderDepthAdjusterNtB6_10MutVisitor18visit_document_mutBa_
FNDA:0,_RNvYNtNtNtNtCscCfipWx6sdZ_13tsuzulint_ast7visitor9visit_mut5tests19HeaderDepthAdjusterNtB6_10MutVisitor18visit_emphasis_mutBa_
FNDA:0,_RNvYNtNtNtNtCscCfipWx6sdZ_13tsuzulint_ast7visitor9visit_mut5tests19HeaderDepthAdjusterNtB6_10MutVisitor19visit_list_item_mutBa_
FNDA:0,_RNvYNtNtNtNtCscCfipWx6sdZ_13tsuzulint_ast7visitor9visit_mut5tests19HeaderDepthAdjusterNtB6_10MutVisitor19visit_paragraph_mutBa_
FNDA:0,_RNvYNtNtNtNtCscCfipWx6sdZ_13tsuzulint_ast7visitor9visit_mut5tests19HeaderDepthAdjusterNtB6_10MutVisitor19visit_table_row_mutBa_
FNDA:0,_RNvYNtNtNtNtCscCfipWx6sdZ_13tsuzulint_ast7visitor9visit_mut5tests19HeaderDepthAdjusterNtB6_10MutVisitor20visit_code_block_mutBa_
FNDA:0,_RNvYNtNtNtNtCscCfipWx6sdZ_13tsuzulint_ast7visitor9visit_mut5tests19HeaderDepthAdjusterNtB6_10MutVisitor20visit_definition_mutBa_
FNDA:0,_RNvYNtNtNtNtCscCfipWx6sdZ_13tsuzulint_ast7visitor9visit_mut5tests19HeaderDepthAdjusterNtB6_10MutVisitor20visit_table_cell_mutBa_
FNDA:0,_RNvYNtNtNtNtCscCfipWx6sdZ_13tsuzulint_ast7visitor9visit_mut5tests19HeaderDepthAdjusterNtB6_10MutVisitor21visit_block_quote_mutBa_
FNDA:0,_RNvYNtNtNtNtCscCfipWx6sdZ_13tsuzulint_ast7visitor9visit_mut5tests19HeaderDepthAdjusterNtB6_10MutVisitor24visit_link_reference_mutBa_
FNDA:0,_RNvYNtNtNtNtCscCfipWx6sdZ_13tsuzulint_ast7visitor9visit_mut5tests19HeaderDepthAdjusterNtB6_10MutVisitor25visit_horizontal_rule_mutBa_
FNDA:0,_RNvYNtNtNtNtCscCfipWx6sdZ_13tsuzulint_ast7visitor9visit_mut5tests19HeaderDepthAdjusterNtB6_10MutVisitor25visit_image_reference_mutBa_
FNDA:0,_RNvYNtNtNtNtCscCfipWx6sdZ_13tsuzulint_ast7visitor9visit_mut5tests19HeaderDepthAdjusterNtB6_10MutVisitor28visit_footnote_reference_mutBa_
FNDA:0,_RNvYNtNtNtNtCscCfipWx6sdZ_13tsuzulint_ast7visitor9visit_mut5tests19HeaderDepthAdjusterNtB6_10MutVisitor29visit_footnote_definition_mutBa_
FNDA:0,_RNvYNtNtNtNtCscCfipWx6sdZ_13tsuzulint_ast7visitor9visit_mut5tests20UppercaseTransformerNtB6_10MutVisitor14visit_code_mutBa_
FNDA:0,_RNvYNtNtNtNtCscCfipWx6sdZ_13tsuzulint_ast7visitor9visit_mut5tests20UppercaseTransformerNtB6_10MutVisitor14visit_html_mutBa_
FNDA:0,_RNvYNtNtNtNtCscCfipWx6sdZ_13tsuzulint_ast7visitor9visit_mut5tests20UppercaseTransformerNtB6_10MutVisitor14visit_link_mutBa_
FNDA:0,_RNvYNtNtNtNtCscCfipWx6sdZ_13tsuzulint_ast7visitor9visit_mut5tests20UppercaseTransformerNtB6_10MutVisitor14visit_list_mutBa_
FNDA:3,_RNvYNtNtNtNtCscCfipWx6sdZ_13tsuzulint_ast7visitor9visit_mut5tests20UppercaseTransformerNtB6_10MutVisitor14visit_node_mutBa_
FNDA:0,_RNvYNtNtNtNtCscCfipWx6sdZ_13tsuzulint_ast7visitor9visit_mut5tests20UppercaseTransformerNtB6_10MutVisitor15visit_break_mutBa_
FNDA:0,_RNvYNtNtNtNtCscCfipWx6sdZ_13tsuzulint_ast7visitor9visit_mut5tests20UppercaseTransformerNtB6_10MutVisitor15visit_image_mutBa_
FNDA:0,_RNvYNtNtNtNtCscCfipWx6sdZ_13tsuzulint_ast7visitor9visit_mut5tests20UppercaseTransformerNtB6_10MutVisitor15visit_table_mutBa_
FNDA:0,_RNvYNtNtNtNtCscCfipWx6sdZ_13tsuzulint_ast7visitor9visit_mut5tests20UppercaseTransformerNtB6_10MutVisitor16visit_delete_mutBa_
FNDA:0,_RNvYNtNtNtNtCscCfipWx6sdZ_13tsuzulint_ast7visitor9visit_mut5tests20UppercaseTransformerNtB6_10MutVisitor16visit_header_mutBa_
FNDA:0,_RNvYNtNtNtNtCscCfipWx6sdZ_13tsuzulint_ast7visitor9visit_mut5tests20UppercaseTransformerNtB6_10MutVisitor16visit_strong_mutBa_
FNDA:1,_RNvYNtNtNtNtCscCfipWx6sdZ_13tsuzulint_ast7visitor9visit_mut5tests20UppercaseTransformerNtB6_10MutVisitor18visit_document_mutBa_
FNDA:0,_RNvYNtNtNtNtCscCfipWx6sdZ_13tsuzulint_ast7visitor9visit_mut5tests20UppercaseTransformerNtB6_10MutVisitor18visit_emphasis_mutBa_
FNDA:0,_RNvYNtNtNtNtCscCfipWx6sdZ_13tsuzulint_ast7visitor9visit_mut5tests20UppercaseTransformerNtB6_10MutVisitor19visit_list_item_mutBa_
FNDA:1,_RNvYNtNtNtNtCscCfipWx6sdZ_13tsuzulint_ast7visitor9visit_mut5tests20UppercaseTransformerNtB6_10MutVisitor19visit_paragraph_mutBa_
FNDA:0,_RNvYNtNtNtNtCscCfipWx6sdZ_13tsuzulint_ast7visitor9visit_mut5tests20UppercaseTransformerNtB6_10MutVisitor19visit_table_row_mutBa_
FNDA:0,_RNvYNtNtNtNtCscCfipWx6sdZ_13tsuzulint_ast7visitor9visit_mut5tests20UppercaseTransformerNtB6_10MutVisitor20visit_code_block_mutBa_
FNDA:0,_RNvYNtNtNtNtCscCfipWx6sdZ_13tsuzulint_ast7visitor9visit_mut5tests20UppercaseTransformerNtB6_10MutVisitor20visit_definition_mutBa_
FNDA:0,_RNvYNtNtNtNtCscCfipWx6sdZ_13tsuzulint_ast7visitor9visit_mut5tests20UppercaseTransformerNtB6_10MutVisitor20visit_table_cell_mutBa_
FNDA:0,_RNvYNtNtNtNtCscCfipWx6sdZ_13tsuzulint_ast7visitor9visit_mut5tests20UppercaseTransformerNtB6_10MutVisitor21visit_block_quote_mutBa_
FNDA:0,_RNvYNtNtNtNtCscCfipWx6sdZ_13tsuzulint_ast7visitor9visit_mut5tests20UppercaseTransformerNtB6_10MutVisitor24visit_link_reference_mutBa_
FNDA:1,_RNvYNtNtNtNtCscCfipWx6sdZ_13tsuzulint_ast7visitor9visit_mut5tests20UppercaseTransformerNtB6_10MutVisitor25visit_horizontal_rule_mutBa_
FNDA:0,_RNvYNtNtNtNtCscCfipWx6sdZ_13tsuzulint_ast7visitor9visit_mut5tests20UppercaseTransformerNtB6_10MutVisitor25visit_image_reference_mutBa_
FNDA:0,_RNvYNtNtNtNtCscCfipWx6sdZ_13tsuzulint_ast7visitor9visit_mut5tests20UppercaseTransformerNtB6_10MutVisitor28visit_footnote_reference_mutBa_
FNDA:0,_RNvYNtNtNtNtCscCfipWx6sdZ_13tsuzulint_ast7visitor9visit_mut5tests20UppercaseTransformerNtB6_10MutVisitor29visit_footnote_definition_mutBa_
FNDA:1,_RNvNtNtNtCscCfipWx6sdZ_13tsuzulint_ast7visitor9visit_mut5testss_31mut_visitor_clamps_header_depth
FNDA:1,_RNvNtNtNtCscCfipWx6sdZ_13tsuzulint_ast7visitor9visit_mut5testss_32mut_visitor_adjusts_header_depth
FNDA:1,_RNvNtNtNtCscCfipWx6sdZ_13tsuzulint_ast7visitor9visit_mut5testss_32walk_children_mut_empty_children
FNDA:1,_RNvNtNtNtCscCfipWx6sdZ_13tsuzulint_ast7visitor9visit_mut5testss_34walk_node_mut_transforms_text_node
FNDA:1,_RNvNtNtNtCscCfipWx6sdZ_13tsuzulint_ast7visitor9visit_mut5testss_40walk_children_mut_transforms_nested_text
FNDA:1,_RNvNtNtNtCscCfipWx6sdZ_13tsuzulint_ast7visitor9visit_mut5testss_46walk_children_mut_returns_none_when_no_changes
FNDA:3,_RNvXNtNtNtCscCfipWx6sdZ_13tsuzulint_ast7visitor9visit_mut5testsNtB2_20UppercaseTransformerNtB4_10MutVisitor13visit_str_mut
FNDA:1,_RNvXNtNtNtCscCfipWx6sdZ_13tsuzulint_ast7visitor9visit_mut5testsNtB2_20UppercaseTransformerNtB4_10MutVisitor5arena
FNDA:2,_RNvXs_NtNtNtCscCfipWx6sdZ_13tsuzulint_ast7visitor9visit_mut5testsNtB4_19HeaderDepthAdjusterNtB6_10MutVisitor16visit_header_mut
FNDA:0,_RNvXs_NtNtNtCscCfipWx6sdZ_13tsuzulint_ast7visitor9visit_mut5testsNtB4_19HeaderDepthAdjusterNtB6_10MutVisitor5arena
FNDA:4,_RINvNtNtCscCfipWx6sdZ_13tsuzulint_ast7visitor9visit_mut13walk_node_mutNtNtB2_5tests19HeaderDepthAdjusterEB6_
FNDA:6,_RINvNtNtCscCfipWx6sdZ_13tsuzulint_ast7visitor9visit_mut13walk_node_mutNtNtB2_5tests20UppercaseTransformerEB6_
FNDA:2,_RINvNtNtCscCfipWx6sdZ_13tsuzulint_ast7visitor9visit_mut17walk_children_mutNtNtB2_5tests19HeaderDepthAdjusterEB6_
FNDA:3,_RINvNtNtCscCfipWx6sdZ_13tsuzulint_ast7visitor9visit_mut17walk_children_mutNtNtB2_5tests20UppercaseTransformerEB6_
FNF:39
FNH:17
DA:61,5
DA:62,5
DA:63,5
DA:68,1
DA:69,1
DA:70,1
DA:73,1
DA:74,1
DA:75,1
DA:78,0
DA:79,0
DA:80,0
DA:83,0
DA:84,0
DA:85,0
DA:88,0
DA:89,0
DA:90,0
DA:93,0
DA:94,0
DA:95,0
DA:98,0
DA:99,0
DA:100,0
DA:103,1
DA:104,1
DA:105,1
DA:108,0
DA:109,0
DA:110,0
DA:115,2
DA:116,2
DA:117,2
DA:120,0
DA:121,0
DA:122,0
DA:125,0
DA:126,0
DA:127,0
DA:130,0
DA:131,0
DA:132,0
DA:135,0
DA:136,0
DA:137,0
DA:140,0
DA:141,0
DA:142,0
DA:145,0
DA:146,0
DA:147,0
DA:150,0
DA:151,0
DA:152,0
DA:157,0
DA:158,0
DA:159,0
DA:162,0
DA:163,0
DA:164,0
DA:167,0
DA:168,0
DA:169,0
DA:174,0
DA:175,0
DA:176,0
DA:179,0
DA:180,0
DA:181,0
DA:184,0
DA:185,0
DA:186,0
DA:191,0
DA:192,0
DA:193,0
DA:196,0
DA:197,0
DA:198,0
DA:204,10
DA:205,10
DA:206,10
DA:208,10
DA:210,1
DA:211,1
DA:212,2
DA:213,0
DA:214,0
DA:215,0
DA:216,0
DA:217,1
DA:218,0
DA:221,5
DA:222,0
DA:223,0
DA:224,0
DA:225,0
DA:226,0
DA:227,0
DA:228,0
DA:231,0
DA:232,0
DA:233,0
DA:236,0
DA:237,0
DA:238,0
DA:241,0
DA:242,0
DA:244,10
DA:250,5
DA:251,5
DA:252,5
DA:254,5
DA:255,1
DA:256,4
DA:258,4
DA:259,4
DA:261,5
DA:262,5
DA:263,2
DA:264,2
DA:265,3
DA:266,3
DA:267,3
DA:270,4
DA:271,1
DA:272,1
DA:273,1
DA:274,1
DA:275,1
DA:276,1
DA:277,1
DA:278,1
DA:280,3
DA:282,5
DA:295,1
DA:296,1
DA:297,1
DA:299,3
DA:300,3
DA:301,3
DA:302,3
DA:303,3
DA:304,3
DA:308,1
DA:309,1
DA:310,1
DA:312,1
DA:313,1
DA:315,1
DA:316,1
DA:317,1
DA:318,1
DA:321,1
DA:322,1
DA:323,1
DA:324,1
DA:325,1
DA:326,1
DA:327,1
DA:328,1
DA:329,1
DA:332,1
DA:333,1
DA:335,1
DA:336,1
DA:337,1
DA:338,1
DA:339,1
DA:340,1
DA:343,1
DA:344,1
DA:345,1
DA:346,1
DA:347,1
DA:348,1
DA:349,1
DA:350,1
DA:353,1
DA:354,1
DA:357,1
DA:358,1
DA:361,1
DA:362,1
DA:363,1
DA:364,1
DA:365,1
DA:366,1
DA:369,1
DA:370,1
DA:372,1
DA:373,1
DA:382,0
DA:383,0
DA:384,0
DA:386,2
DA:388,2
DA:389,2
DA:392,2
DA:393,2
DA:394,2
DA:395,2
DA:397,2
DA:398,2
DA:402,1
DA:403,1
DA:405,1
DA:406,1
DA:407,1
DA:408,1
DA:409,1
DA:411,1
DA:412,1
DA:413,1
DA:414,1
DA:415,1
DA:417,1
DA:418,1
DA:419,1
DA:420,1
DA:423,1
DA:424,1
DA:426,1
DA:427,1
DA:428,1
DA:429,1
DA:430,1
DA:432,1
DA:433,1
DA:434,1
DA:435,1
DA:436,1
DA:438,1
DA:439,1
DA:440,1
DA:441,1
BRF:0
BRH:0
LF:236
LH:149
end_of_record
SF:/app/crates/tsuzulint_ast/src/visitor/walk.rs
FN:93,_RINvNtNtCs9bJaZoOZVf6_13tsuzulint_ast7visitor4walk13walk_childrenNtNvNtCsdHNy3eV5zAX_14tsuzulint_core12ignore_range21extract_ignore_ranges18CodeRangeCollectorEB17_
FN:27,_RINvNtNtCs9bJaZoOZVf6_13tsuzulint_ast7visitor4walk9walk_nodeNtNvNtCsdHNy3eV5zAX_14tsuzulint_core12ignore_range21extract_ignore_ranges18CodeRangeCollectorEB12_
FN:93,_RINvNtNtCs9bJaZoOZVf6_13tsuzulint_ast7visitor4walk13walk_childrenpEB6_
FN:27,_RINvNtNtCs9bJaZoOZVf6_13tsuzulint_ast7visitor4walk9walk_nodepEB6_
FN:117,_RNvMNtNtNtCscCfipWx6sdZ_13tsuzulint_ast7visitor4walk5testsNtB2_11NodeCounter3new
FN:248,_RNvNtNtNtCscCfipWx6sdZ_13tsuzulint_ast7visitor4walk5testss_28walk_children_empty_children
FN:278,_RNvNtNtNtCscCfipWx6sdZ_13tsuzulint_ast7visitor4walk5testss_29visitor_collects_text_content
FN:184,_RNvNtNtNtCscCfipWx6sdZ_13tsuzulint_ast7visitor4walk5testss_33walk_node_visits_nested_structure
FN:150,_RNvNtNtNtCscCfipWx6sdZ_13tsuzulint_ast7visitor4walk5testss_33walk_node_visits_single_text_node
FN:297,_RNvNtNtNtCscCfipWx6sdZ_13tsuzulint_ast7visitor4walk5testss_36walk_node_calls_enter_and_exit_hooks
FN:229,_RNvNtNtNtCscCfipWx6sdZ_13tsuzulint_ast7visitor4walk5testss_36walk_node_supports_early_termination
FN:163,_RNvNtNtNtCscCfipWx6sdZ_13tsuzulint_ast7visitor4walk5testss_36walk_node_visits_parent_and_children
FN:303,_RNvXNvNtNtNtCscCfipWx6sdZ_13tsuzulint_ast7visitor4walk5testss_36walk_node_calls_enter_and_exit_hooksNtB2_11HookTrackerNtNtB8_5visit7Visitor10enter_node
FN:308,_RNvXNvNtNtNtCscCfipWx6sdZ_13tsuzulint_ast7visitor4walk5testss_36walk_node_calls_enter_and_exit_hooksNtB2_11HookTrackerNtNtB8_5visit7Visitor9exit_node
FN:219,_RNvXs0_NtNtNtCscCfipWx6sdZ_13tsuzulint_ast7visitor4walk5testsNtB5_14FirstStrFinderNtNtB9_5visit7Visitor9visit_str
FN:269,_RNvXs1_NtNtNtCscCfipWx6sdZ_13tsuzulint_ast7visitor4walk5testsNtB5_13TextCollectorNtNtB9_5visit7Visitor9visit_str
FN:128,_RNvXs_NtNtNtCscCfipWx6sdZ_13tsuzulint_ast7visitor4walk5testsNtB4_11NodeCounterNtNtB8_5visit7Visitor10enter_node
FN:133,_RNvXs_NtNtNtCscCfipWx6sdZ_13tsuzulint_ast7visitor4walk5testsNtB4_11NodeCounterNtNtB8_5visit7Visitor14visit_document
FN:138,_RNvXs_NtNtNtCscCfipWx6sdZ_13tsuzulint_ast7visitor4walk5testsNtB4_11NodeCounterNtNtB8_5visit7Visitor15visit_paragraph
FN:143,_RNvXs_NtNtNtCscCfipWx6sdZ_13tsuzulint_ast7visitor4walk5testsNtB4_11NodeCounterNtNtB8_5visit7Visitor9visit_str
FN:93,_RINvNtNtCscCfipWx6sdZ_13tsuzulint_ast7visitor4walk13walk_childrenNtNtB2_5tests11NodeCounterEB6_
FN:93,_RINvNtNtCscCfipWx6sdZ_13tsuzulint_ast7visitor4walk13walk_childrenNtNtB2_5tests13TextCollectorEB6_
FN:93,_RINvNtNtCscCfipWx6sdZ_13tsuzulint_ast7visitor4walk13walk_childrenNtNtB2_5tests14FirstStrFinderEB6_
FN:93,_RINvNtNtCscCfipWx6sdZ_13tsuzulint_ast7visitor4walk13walk_childrenNtNvNtB2_5testss_36walk_node_calls_enter_and_exit_hooks11HookTrackerEB6_
FN:27,_RINvNtNtCscCfipWx6sdZ_13tsuzulint_ast7visitor4walk9walk_nodeNtNtB2_5tests11NodeCounterEB6_
FN:27,_RINvNtNtCscCfipWx6sdZ_13tsuzulint_ast7visitor4walk9walk_nodeNtNtB2_5tests13TextCollectorEB6_
FN:27,_RINvNtNtCscCfipWx6sdZ_13tsuzulint_ast7visitor4walk9walk_nodeNtNtB2_5tests14FirstStrFinderEB6_
FN:27,_RINvNtNtCscCfipWx6sdZ_13tsuzulint_ast7visitor4walk9walk_nodeNtNvNtB2_5testss_36walk_node_calls_enter_and_exit_hooks11HookTrackerEB6_
FN:93,_RINvNtNtCs9bJaZoOZVf6_13tsuzulint_ast7visitor4walk13walk_childrenNtNvNtCs47f85yxqTTa_14tsuzulint_core12ignore_range21extract_ignore_ranges18CodeRangeCollectorEB17_
FN:27,_RINvNtNtCs9bJaZoOZVf6_13tsuzulint_ast7visitor4walk9walk_nodeNtNvNtCs47f85yxqTTa_14tsuzulint_core12ignore_range21extract_ignore_ranges18CodeRangeCollectorEB12_
FNDA:70,_RINvNtNtCs9bJaZoOZVf6_13tsuzulint_ast7visitor4walk13walk_childrenNtNvNtCsdHNy3eV5zAX_14tsuzulint_core12ignore_range21extract_ignore_ranges18CodeRangeCollectorEB17_
FNDA:124,_RINvNtNtCs9bJaZoOZVf6_13tsuzulint_ast7visitor4walk9walk_nodeNtNvNtCsdHNy3eV5zAX_14tsuzulint_core12ignore_range21extract_ignore_ranges18CodeRangeCollectorEB12_
FNDA:0,_RINvNtNtCs9bJaZoOZVf6_13tsuzulint_ast7visitor4walk13walk_childrenpEB6_
FNDA:0,_RINvNtNtCs9bJaZoOZVf6_13tsuzulint_ast7visitor4walk9walk_nodepEB6_
FNDA:4,_RNvMNtNtNtCscCfipWx6sdZ_13tsuzulint_ast7visitor4walk5testsNtB2_11NodeCounter3new
FNDA:1,_RNvNtNtNtCscCfipWx6sdZ_13tsuzulint_ast7visitor4walk5testss_28walk_children_empty_children
FNDA:1,_RNvNtNtNtCscCfipWx6sdZ_13tsuzulint_ast7visitor4walk5testss_29visitor_collects_text_content
FNDA:1,_RNvNtNtNtCscCfipWx6sdZ_13tsuzulint_ast7visitor4walk5testss_33walk_node_visits_nested_structure
FNDA:1,_RNvNtNtNtCscCfipWx6sdZ_13tsuzulint_ast7visitor4walk5testss_33walk_node_visits_single_text_node
FNDA:1,_RNvNtNtNtCscCfipWx6sdZ_13tsuzulint_ast7visitor4walk5testss_36walk_node_calls_enter_and_exit_hooks
FNDA:1,_RNvNtNtNtCscCfipWx6sdZ_13tsuzulint_ast7visitor4walk5testss_36walk_node_supports_early_termination
FNDA:1,_RNvNtNtNtCscCfipWx6sdZ_13tsuzulint_ast7visitor4walk5testss_36walk_node_visits_parent_and_children
FNDA:2,_RNvXNvNtNtNtCscCfipWx6sdZ_13tsuzulint_ast7visitor4walk5testss_36walk_node_calls_enter_and_exit_hooksNtB2_11HookTrackerNtNtB8_5visit7Visitor10enter_node
FNDA:2,_RNvXNvNtNtNtCscCfipWx6sdZ_13tsuzulint_ast7visitor4walk5testss_36walk_node_calls_enter_and_exit_hooksNtB2_11HookTrackerNtNtB8_5visit7Visitor9exit_node
FNDA:1,_RNvXs0_NtNtNtCscCfipWx6sdZ_13tsuzulint_ast7visitor4walk5testsNtB5_14FirstStrFinderNtNtB9_5visit7Visitor9visit_str
FNDA:3,_RNvXs1_NtNtNtCscCfipWx6sdZ_13tsuzulint_ast7visitor4walk5testsNtB5_13TextCollectorNtNtB9_5visit7Visitor9visit_str
FNDA:8,_RNvXs_NtNtNtCscCfipWx6sdZ_13tsuzulint_ast7visitor4walk5testsNtB4_11NodeCounterNtNtB8_5visit7Visitor10enter_node
FNDA:1,_RNvXs_NtNtNtCscCfipWx6sdZ_13tsuzulint_ast7visitor4walk5testsNtB4_11NodeCounterNtNtB8_5visit7Visitor14visit_document
FNDA:2,_RNvXs_NtNtNtCscCfipWx6sdZ_13tsuzulint_ast7visitor4walk5testsNtB4_11NodeCounterNtNtB8_5visit7Visitor15visit_paragraph
FNDA:5,_RNvXs_NtNtNtCscCfipWx6sdZ_13tsuzulint_ast7visitor4walk5testsNtB4_11NodeCounterNtNtB8_5visit7Visitor9visit_str
FNDA:4,_RINvNtNtCscCfipWx6sdZ_13tsuzulint_ast7visitor4walk13walk_childrenNtNtB2_5tests11NodeCounterEB6_
FNDA:1,_RINvNtNtCscCfipWx6sdZ_13tsuzulint_ast7visitor4walk13walk_childrenNtNtB2_5tests13TextCollectorEB6_
FNDA:1,_RINvNtNtCscCfipWx6sdZ_13tsuzulint_ast7visitor4walk13walk_childrenNtNtB2_5tests14FirstStrFinderEB6_
FNDA:1,_RINvNtNtCscCfipWx6sdZ_13tsuzulint_ast7visitor4walk13walk_childrenNtNvNtB2_5testss_36walk_node_calls_enter_and_exit_hooks11HookTrackerEB6_
FNDA:8,_RINvNtNtCscCfipWx6sdZ_13tsuzulint_ast7visitor4walk9walk_nodeNtNtB2_5tests11NodeCounterEB6_
FNDA:4,_RINvNtNtCscCfipWx6sdZ_13tsuzulint_ast7visitor4walk9walk_nodeNtNtB2_5tests13TextCollectorEB6_
FNDA:2,_RINvNtNtCscCfipWx6sdZ_13tsuzulint_ast7visitor4walk9walk_nodeNtNtB2_5tests14FirstStrFinderEB6_
FNDA:2,_RINvNtNtCscCfipWx6sdZ_13tsuzulint_ast7visitor4walk9walk_nodeNtNvNtB2_5testss_36walk_node_calls_enter_and_exit_hooks11HookTrackerEB6_
FNDA:202,_RINvNtNtCs9bJaZoOZVf6_13tsuzulint_ast7visitor4walk13walk_childrenNtNvNtCs47f85yxqTTa_14tsuzulint_core12ignore_range21extract_ignore_ranges18CodeRangeCollectorEB17_
FNDA:360,_RINvNtNtCs9bJaZoOZVf6_13tsuzulint_ast7visitor4walk9walk_nodeNtNvNtCs47f85yxqTTa_14tsuzulint_core12ignore_range21extract_ignore_ranges18CodeRangeCollectorEB12_
FNF:18
FNH:18
DA:27,500
DA:28,500
DA:29,500
DA:32,500
DA:35,500
DA:37,37
DA:38,75
DA:39,52
DA:40,0
DA:41,8
DA:42,23
DA:43,11
DA:44,0
DA:45,0
DA:48,179
DA:49,0
DA:50,0
DA:51,12
DA:52,0
DA:53,32
DA:54,0
DA:55,0
DA:58,0
DA:59,0
DA:60,0
DA:63,2
DA:64,23
DA:65,46
DA:68,0
DA:69,0
DA:72,500
DA:75,498
DA:76,500
DA:93,279
DA:94,279
DA:95,279
DA:97,458
DA:98,458
DA:100,278
DA:101,279
DA:117,4
DA:118,4
DA:119,4
DA:120,4
DA:121,4
DA:122,4
DA:123,4
DA:124,4
DA:128,8
DA:129,8
DA:130,8
DA:131,8
DA:133,1
DA:134,1
DA:135,1
DA:136,1
DA:138,2
DA:139,2
DA:140,2
DA:141,2
DA:143,5
DA:144,5
DA:145,5
DA:146,5
DA:150,1
DA:151,1
DA:152,1
DA:154,1
DA:155,1
DA:157,1
DA:158,1
DA:159,1
DA:160,1
DA:163,1
DA:164,1
DA:165,1
DA:166,1
DA:167,1
DA:168,1
DA:169,1
DA:170,1
DA:171,1
DA:174,1
DA:175,1
DA:177,1
DA:178,1
DA:179,1
DA:180,1
DA:181,1
DA:184,1
DA:185,1
DA:188,1
DA:189,1
DA:190,1
DA:191,1
DA:192,1
DA:193,1
DA:194,1
DA:196,1
DA:197,1
DA:198,1
DA:199,1
DA:200,1
DA:203,1
DA:204,1
DA:206,1
DA:207,1
DA:208,1
DA:209,1
DA:210,1
DA:211,1
DA:219,1
DA:220,1
DA:221,1
DA:222,1
DA:223,0
DA:224,0
DA:225,1
DA:229,1
DA:230,1
DA:231,1
DA:232,1
DA:233,1
DA:234,1
DA:235,1
DA:236,1
DA:237,1
DA:240,1
DA:241,1
DA:243,1
DA:244,1
DA:245,1
DA:248,1
DA:249,1
DA:250,1
DA:251,1
DA:252,1
DA:253,1
DA:256,1
DA:257,1
DA:259,1
DA:260,1
DA:261,1
DA:269,3
DA:270,3
DA:271,3
DA:272,3
DA:273,3
DA:274,3
DA:278,1
DA:279,1
DA:280,1
DA:281,1
DA:282,1
DA:283,1
DA:284,1
DA:285,1
DA:286,1
DA:287,1
DA:290,1
DA:291,1
DA:293,1
DA:294,1
DA:297,1
DA:303,2
DA:304,2
DA:305,2
DA:306,2
DA:308,2
DA:309,2
DA:310,2
DA:311,2
DA:314,1
DA:315,1
DA:316,1
DA:317,1
DA:318,1
DA:319,1
DA:320,1
DA:323,1
DA:324,1
DA:326,1
DA:328,1
DA:330,1
BRF:0
BRH:0
LF:184
LH:169
end_of_record
SF:/app/crates/tsuzulint_cache/src/entry.rs
FN:69,_RNCNvMNtCs4O9HcfwEIU_15tsuzulint_cache5entryNtB4_10CacheEntry3new0B6_
FN:54,_RNvMNtCs4O9HcfwEIU_15tsuzulint_cache5entryNtB2_10CacheEntry3new
FN:75,_RNvMNtCs4O9HcfwEIU_15tsuzulint_cache5entryNtB2_10CacheEntry8is_valid
FN:54,_RNvMNtCs33dqzhFZ8Xr_15tsuzulint_cache5entryNtB2_10CacheEntry3new
FN:75,_RNvMNtCs33dqzhFZ8Xr_15tsuzulint_cache5entryNtB2_10CacheEntry8is_valid
FN:69,_RNCNvMNtCs33dqzhFZ8Xr_15tsuzulint_cache5entryNtB4_10CacheEntry3new0B6_
FN:91,_RNvNtNtCs33dqzhFZ8Xr_15tsuzulint_cache5entry5tests10dummy_hash
FN:279,_RNvNtNtCs33dqzhFZ8Xr_15tsuzulint_cache5entry5testss_22test_cache_entry_clone
FN:96,_RNvNtNtCs33dqzhFZ8Xr_15tsuzulint_cache5entry5testss_22test_cache_entry_valid
FN:232,_RNvNtNtCs33dqzhFZ8Xr_15tsuzulint_cache5entry5testss_27test_cache_entry_created_at
FN:203,_RNvNtNtCs33dqzhFZ8Xr_15tsuzulint_cache5entry5testss_28test_cache_entry_with_blocks
FN:240,_RNvNtNtCs33dqzhFZ8Xr_15tsuzulint_cache5entry5testss_30test_cache_entry_serialization
FN:126,_RNvNtNtCs33dqzhFZ8Xr_15tsuzulint_cache5entry5testss_31test_cache_entry_invalid_config
FN:307,_RNvNtNtCs33dqzhFZ8Xr_15tsuzulint_cache5entry5testss_31test_cache_entry_multiple_rules
FN:254,_RNvNtNtCs33dqzhFZ8Xr_15tsuzulint_cache5entry5testss_32test_cache_entry_deserialization
FN:112,_RNvNtNtCs33dqzhFZ8Xr_15tsuzulint_cache5entry5testss_32test_cache_entry_invalid_content
FN:182,_RNvNtNtCs33dqzhFZ8Xr_15tsuzulint_cache5entry5testss_33test_cache_entry_with_diagnostics
FN:299,_RNvNtNtCs33dqzhFZ8Xr_15tsuzulint_cache5entry5testss_37test_cache_entry_empty_versions_valid
FN:168,_RNvNtNtCs33dqzhFZ8Xr_15tsuzulint_cache5entry5testss_37test_cache_entry_invalid_missing_rule
FN:140,_RNvNtNtCs33dqzhFZ8Xr_15tsuzulint_cache5entry5testss_37test_cache_entry_invalid_rule_version
FN:153,_RNvNtNtCs33dqzhFZ8Xr_15tsuzulint_cache5entry5testss_44test_cache_entry_invalid_rule_count_mismatch
FNDA:30,_RNCNvMNtCs4O9HcfwEIU_15tsuzulint_cache5entryNtB4_10CacheEntry3new0B6_
FNDA:30,_RNvMNtCs4O9HcfwEIU_15tsuzulint_cache5entryNtB2_10CacheEntry3new
FNDA:1,_RNvMNtCs4O9HcfwEIU_15tsuzulint_cache5entryNtB2_10CacheEntry8is_valid
FNDA:31,_RNvMNtCs33dqzhFZ8Xr_15tsuzulint_cache5entryNtB2_10CacheEntry3new
FNDA:15,_RNvMNtCs33dqzhFZ8Xr_15tsuzulint_cache5entryNtB2_10CacheEntry8is_valid
FNDA:31,_RNCNvMNtCs33dqzhFZ8Xr_15tsuzulint_cache5entryNtB4_10CacheEntry3new0B6_
FNDA:50,_RNvNtNtCs33dqzhFZ8Xr_15tsuzulint_cache5entry5tests10dummy_hash
FNDA:1,_RNvNtNtCs33dqzhFZ8Xr_15tsuzulint_cache5entry5testss_22test_cache_entry_clone
FNDA:1,_RNvNtNtCs33dqzhFZ8Xr_15tsuzulint_cache5entry5testss_22test_cache_entry_valid
FNDA:1,_RNvNtNtCs33dqzhFZ8Xr_15tsuzulint_cache5entry5testss_27test_cache_entry_created_at
FNDA:1,_RNvNtNtCs33dqzhFZ8Xr_15tsuzulint_cache5entry5testss_28test_cache_entry_with_blocks
FNDA:1,_RNvNtNtCs33dqzhFZ8Xr_15tsuzulint_cache5entry5testss_30test_cache_entry_serialization
FNDA:1,_RNvNtNtCs33dqzhFZ8Xr_15tsuzulint_cache5entry5testss_31test_cache_entry_invalid_config
FNDA:1,_RNvNtNtCs33dqzhFZ8Xr_15tsuzulint_cache5entry5testss_31test_cache_entry_multiple_rules
FNDA:1,_RNvNtNtCs33dqzhFZ8Xr_15tsuzulint_cache5entry5testss_32test_cache_entry_deserialization
FNDA:1,_RNvNtNtCs33dqzhFZ8Xr_15tsuzulint_cache5entry5testss_32test_cache_entry_invalid_content
FNDA:1,_RNvNtNtCs33dqzhFZ8Xr_15tsuzulint_cache5entry5testss_33test_cache_entry_with_diagnostics
FNDA:1,_RNvNtNtCs33dqzhFZ8Xr_15tsuzulint_cache5entry5testss_37test_cache_entry_empty_versions_valid
FNDA:1,_RNvNtNtCs33dqzhFZ8Xr_15tsuzulint_cache5entry5testss_37test_cache_entry_invalid_missing_rule
FNDA:1,_RNvNtNtCs33dqzhFZ8Xr_15tsuzulint_cache5entry5testss_37test_cache_entry_invalid_rule_version
FNDA:1,_RNvNtNtCs33dqzhFZ8Xr_15tsuzulint_cache5entry5testss_44test_cache_entry_invalid_rule_count_mismatch
FNF:18
FNH:18
DA:54,61
DA:55,61
DA:56,61
DA:57,61
DA:58,61
DA:59,61
DA:60,61
DA:62,61
DA:63,61
DA:64,61
DA:65,61
DA:66,61
DA:67,61
DA:68,61
DA:69,61
DA:70,61
DA:72,61
DA:75,16
DA:76,16
DA:77,16
DA:78,16
DA:79,16
DA:80,16
DA:81,16
DA:82,14
DA:83,13
DA:84,16
DA:91,50
DA:92,50
DA:93,50
DA:96,1
DA:97,1
DA:98,1
DA:100,1
DA:101,1
DA:102,1
DA:103,1
DA:104,1
DA:105,1
DA:108,1
DA:109,1
DA:112,1
DA:113,1
DA:114,1
DA:115,1
DA:116,1
DA:117,1
DA:118,1
DA:119,1
DA:122,1
DA:123,1
DA:126,1
DA:127,1
DA:128,1
DA:129,1
DA:130,1
DA:131,1
DA:132,1
DA:133,1
DA:136,1
DA:137,1
DA:140,1
DA:141,1
DA:142,1
DA:144,1
DA:145,1
DA:147,1
DA:149,1
DA:150,1
DA:153,1
DA:154,1
DA:155,1
DA:157,1
DA:158,1
DA:159,1
DA:161,1
DA:164,1
DA:165,1
DA:168,1
DA:169,1
DA:170,1
DA:172,1
DA:173,1
DA:175,1
DA:178,1
DA:179,1
DA:182,1
DA:184,1
DA:185,1
DA:186,1
DA:187,1
DA:190,1
DA:191,1
DA:192,1
DA:193,1
DA:194,1
DA:195,1
DA:198,1
DA:199,1
DA:200,1
DA:203,1
DA:205,1
DA:206,1
DA:207,1
DA:208,1
DA:209,1
DA:210,1
DA:211,1
DA:212,1
DA:213,1
DA:214,1
DA:215,1
DA:216,1
DA:219,1
DA:220,1
DA:221,1
DA:222,1
DA:223,1
DA:224,1
DA:227,1
DA:228,1
DA:229,1
DA:232,1
DA:233,1
DA:236,1
DA:237,1
DA:240,1
DA:241,1
DA:242,1
DA:244,1
DA:246,1
DA:248,1
DA:249,1
DA:250,1
DA:251,1
DA:254,1
DA:256,1
DA:257,1
DA:259,1
DA:270,1
DA:272,1
DA:273,1
DA:274,1
DA:275,1
DA:276,1
DA:279,1
DA:280,1
DA:281,1
DA:283,1
DA:284,1
DA:285,1
DA:286,1
DA:287,1
DA:288,1
DA:291,1
DA:293,1
DA:294,1
DA:295,1
DA:296,1
DA:299,1
DA:300,1
DA:302,1
DA:303,1
DA:304,1
DA:307,1
DA:308,1
DA:309,1
DA:310,1
DA:311,1
DA:313,1
DA:314,1
DA:315,1
DA:316,1
DA:317,1
DA:318,1
DA:321,1
DA:324,1
DA:325,1
DA:327,1
DA:328,1
BRF:0
BRH:0
LF:181
LH:181
end_of_record
SF:/app/crates/tsuzulint_cache/src/error.rs
FN:41,_RINvMNtCs4O9HcfwEIU_15tsuzulint_cache5errorNtB3_10CacheError9corruptedNtNtCsauO83Ko6oyK_5alloc6string6StringEB5_
FN:41,_RINvMNtCs33dqzhFZ8Xr_15tsuzulint_cache5errorNtB3_10CacheError9corruptedNtNtCsauO83Ko6oyK_5alloc6string6StringEB5_
FN:31,_RINvMNtCs33dqzhFZ8Xr_15tsuzulint_cache5errorNtB3_10CacheError4readpEB5_
FN:36,_RINvMNtCs33dqzhFZ8Xr_15tsuzulint_cache5errorNtB3_10CacheError5writepEB5_
FNDA:0,_RINvMNtCs4O9HcfwEIU_15tsuzulint_cache5errorNtB3_10CacheError9corruptedNtNtCsauO83Ko6oyK_5alloc6string6StringEB5_
FNDA:1,_RINvMNtCs33dqzhFZ8Xr_15tsuzulint_cache5errorNtB3_10CacheError9corruptedNtNtCsauO83Ko6oyK_5alloc6string6StringEB5_
FNDA:0,_RINvMNtCs33dqzhFZ8Xr_15tsuzulint_cache5errorNtB3_10CacheError4readpEB5_
FNDA:0,_RINvMNtCs33dqzhFZ8Xr_15tsuzulint_cache5errorNtB3_10CacheError5writepEB5_
FNF:3
FNH:1
DA:31,0
DA:32,0
DA:33,0
DA:36,0
DA:37,0
DA:38,0
DA:41,1
DA:42,1
DA:43,1
BRF:0
BRH:0
LF:9
LH:3
end_of_record
SF:/app/crates/tsuzulint_cache/src/manager.rs
FN:40,_RINvMNtCs4O9HcfwEIU_15tsuzulint_cache7managerNtB3_12CacheManager3newNtNtCsaa59N1qzrfe_3std4path7PathBufECsdHNy3eV5zAX_14tsuzulint_core
FN:40,_RINvMNtCs4O9HcfwEIU_15tsuzulint_cache7managerNtB3_12CacheManager3newReEB5_
FN:214,_RNCNvMNtCs4O9HcfwEIU_15tsuzulint_cache7managerNtB4_12CacheManager15find_best_match0B6_
FN:270,_RNCNvMNtCs4O9HcfwEIU_15tsuzulint_cache7managerNtB4_12CacheManager4load0B6_
FN:289,_RNCNvMNtCs4O9HcfwEIU_15tsuzulint_cache7managerNtB4_12CacheManager4save0B6_
FN:59,_RNvMNtCs4O9HcfwEIU_15tsuzulint_cache7managerNtB2_12CacheManager10is_enabled
FN:64,_RNvMNtCs4O9HcfwEIU_15tsuzulint_cache7managerNtB2_12CacheManager12hash_content
FN:207,_RNvMNtCs4O9HcfwEIU_15tsuzulint_cache7managerNtB2_12CacheManager15find_best_match
FN:118,_RNvMNtCs4O9HcfwEIU_15tsuzulint_cache7managerNtB2_12CacheManager16reconcile_blocks
FN:69,_RNvMNtCs4O9HcfwEIU_15tsuzulint_cache7managerNtB2_12CacheManager3get
FN:303,_RNvMNtCs4O9HcfwEIU_15tsuzulint_cache7managerNtB2_12CacheManager3len
FN:221,_RNvMNtCs4O9HcfwEIU_15tsuzulint_cache7managerNtB2_12CacheManager3set
FN:238,_RNvMNtCs4O9HcfwEIU_15tsuzulint_cache7managerNtB2_12CacheManager4load
FN:279,_RNvMNtCs4O9HcfwEIU_15tsuzulint_cache7managerNtB2_12CacheManager4save
FN:233,_RNvMNtCs4O9HcfwEIU_15tsuzulint_cache7managerNtB2_12CacheManager5clear
FN:54,_RNvMNtCs4O9HcfwEIU_15tsuzulint_cache7managerNtB2_12CacheManager6enable
FN:228,_RNvMNtCs4O9HcfwEIU_15tsuzulint_cache7managerNtB2_12CacheManager6remove
FN:49,_RNvMNtCs4O9HcfwEIU_15tsuzulint_cache7managerNtB2_12CacheManager7disable
FN:308,_RNvMNtCs4O9HcfwEIU_15tsuzulint_cache7managerNtB2_12CacheManager8is_empty
FN:84,_RNvMNtCs4O9HcfwEIU_15tsuzulint_cache7managerNtB2_12CacheManager8is_valid
FN:30,_RNvNtCs4O9HcfwEIU_15tsuzulint_cache7manager8path_keyB3_
FN:314,_RNvXs_NtCs4O9HcfwEIU_15tsuzulint_cache7managerNtB4_12CacheManagerNtNtCs4kUJL3MZFFz_4core7default7Default7default
FN:323,_RNvNtNtCs33dqzhFZ8Xr_15tsuzulint_cache7manager5tests10dummy_hash
FN:394,_RNvNtNtCs33dqzhFZ8Xr_15tsuzulint_cache7manager5testss_17test_hash_content
FN:328,_RNvNtNtCs33dqzhFZ8Xr_15tsuzulint_cache7manager5testss_22test_cache_manager_new
FN:512,_RNvNtNtCs33dqzhFZ8Xr_15tsuzulint_cache7manager5testss_23test_hash_content_empty
FN:427,_RNvNtNtCs33dqzhFZ8Xr_15tsuzulint_cache7manager5testss_24test_cache_manager_clear
FN:404,_RNvNtNtCs33dqzhFZ8Xr_15tsuzulint_cache7manager5testss_25test_cache_manager_enable
FN:414,_RNvNtNtCs33dqzhFZ8Xr_15tsuzulint_cache7manager5testss_25test_cache_manager_remove
FN:520,_RNvNtNtCs33dqzhFZ8Xr_15tsuzulint_cache7manager5testss_25test_hash_content_unicode
FN:505,_RNvNtNtCs33dqzhFZ8Xr_15tsuzulint_cache7manager5testss_26test_cache_manager_default
FN:335,_RNvNtNtCs33dqzhFZ8Xr_15tsuzulint_cache7manager5testss_26test_cache_manager_disable
FN:375,_RNvNtNtCs33dqzhFZ8Xr_15tsuzulint_cache7manager5testss_27test_cache_manager_is_valid
FN:645,_RNvNtNtCs33dqzhFZ8Xr_15tsuzulint_cache7manager5testss_32test_reconcile_blocks_span_shift
FN:530,_RNvNtNtCs33dqzhFZ8Xr_15tsuzulint_cache7manager5testss_33test_cache_manager_multiple_files
FN:342,_RNvNtNtCs33dqzhFZ8Xr_15tsuzulint_cache7manager5testss_33test_cache_manager_set_get_remove
FN:689,_RNvNtNtCs33dqzhFZ8Xr_15tsuzulint_cache7manager5testss_33test_reconcile_blocks_tie_breaker
FN:449,_RNvNtNtCs33dqzhFZ8Xr_15tsuzulint_cache7manager5testss_36test_cache_manager_get_when_disabled
FN:482,_RNvNtNtCs33dqzhFZ8Xr_15tsuzulint_cache7manager5testss_36test_cache_manager_set_when_disabled
FN:496,_RNvNtNtCs33dqzhFZ8Xr_15tsuzulint_cache7manager5testss_41test_cache_manager_is_valid_missing_entry
FN:462,_RNvNtNtCs33dqzhFZ8Xr_15tsuzulint_cache7manager5testss_41test_cache_manager_is_valid_when_disabled
FN:358,_RNvNtNtCs33dqzhFZ8Xr_15tsuzulint_cache7manager5testss_47test_cache_manager_set_get_remove_non_utf8_path
FN:568,_RNvNtNtCs33dqzhFZ8Xr_15tsuzulint_cache7manager5testss_56test_reconcile_blocks_with_multiple_candidates_and_order
FN:40,_RINvMNtCs33dqzhFZ8Xr_15tsuzulint_cache7managerNtB3_12CacheManager3newRNtNtCsaa59N1qzrfe_3std4path4PathEB5_
FN:40,_RINvMNtCs33dqzhFZ8Xr_15tsuzulint_cache7managerNtB3_12CacheManager3newReEB5_
FN:214,_RNCNvMNtCs33dqzhFZ8Xr_15tsuzulint_cache7managerNtB4_12CacheManager15find_best_match0B6_
FN:270,_RNCNvMNtCs33dqzhFZ8Xr_15tsuzulint_cache7managerNtB4_12CacheManager4load0B6_
FN:640,_RNCNvNtNtCs33dqzhFZ8Xr_15tsuzulint_cache7manager5testss_56test_reconcile_blocks_with_multiple_candidates_and_orders0_0B7_
FN:641,_RNCNvNtNtCs33dqzhFZ8Xr_15tsuzulint_cache7manager5testss_56test_reconcile_blocks_with_multiple_candidates_and_orders1_0B7_
FN:639,_RNCNvNtNtCs33dqzhFZ8Xr_15tsuzulint_cache7manager5testss_56test_reconcile_blocks_with_multiple_candidates_and_orders_0B7_
FN:59,_RNvMNtCs33dqzhFZ8Xr_15tsuzulint_cache7managerNtB2_12CacheManager10is_enabled
FN:64,_RNvMNtCs33dqzhFZ8Xr_15tsuzulint_cache7managerNtB2_12CacheManager12hash_content
FN:207,_RNvMNtCs33dqzhFZ8Xr_15tsuzulint_cache7managerNtB2_12CacheManager15find_best_match
FN:118,_RNvMNtCs33dqzhFZ8Xr_15tsuzulint_cache7managerNtB2_12CacheManager16reconcile_blocks
FN:69,_RNvMNtCs33dqzhFZ8Xr_15tsuzulint_cache7managerNtB2_12CacheManager3get
FN:303,_RNvMNtCs33dqzhFZ8Xr_15tsuzulint_cache7managerNtB2_12CacheManager3len
FN:221,_RNvMNtCs33dqzhFZ8Xr_15tsuzulint_cache7managerNtB2_12CacheManager3set
FN:238,_RNvMNtCs33dqzhFZ8Xr_15tsuzulint_cache7managerNtB2_12CacheManager4load
FN:233,_RNvMNtCs33dqzhFZ8Xr_15tsuzulint_cache7managerNtB2_12CacheManager5clear
FN:54,_RNvMNtCs33dqzhFZ8Xr_15tsuzulint_cache7managerNtB2_12CacheManager6enable
FN:228,_RNvMNtCs33dqzhFZ8Xr_15tsuzulint_cache7managerNtB2_12CacheManager6remove
FN:49,_RNvMNtCs33dqzhFZ8Xr_15tsuzulint_cache7managerNtB2_12CacheManager7disable
FN:308,_RNvMNtCs33dqzhFZ8Xr_15tsuzulint_cache7managerNtB2_12CacheManager8is_empty
FN:84,_RNvMNtCs33dqzhFZ8Xr_15tsuzulint_cache7managerNtB2_12CacheManager8is_valid
FN:30,_RNvNtCs33dqzhFZ8Xr_15tsuzulint_cache7manager8path_keyB3_
FN:314,_RNvXs_NtCs33dqzhFZ8Xr_15tsuzulint_cache7managerNtB4_12CacheManagerNtNtCs4kUJL3MZFFz_4core7default7Default7default
FN:754,_RNvNtNtCs33dqzhFZ8Xr_15tsuzulint_cache7manager11tests_extras_32test_load_cache_exceeds_max_size
FN:776,_RNvNtNtCs33dqzhFZ8Xr_15tsuzulint_cache7manager11tests_extras_33test_load_cache_at_exact_max_size
FN:289,_RNCNvMNtCs33dqzhFZ8Xr_15tsuzulint_cache7managerNtB4_12CacheManager4save0B6_
FN:279,_RNvMNtCs33dqzhFZ8Xr_15tsuzulint_cache7managerNtB2_12CacheManager4save
FN:40,_RINvMNtCs4O9HcfwEIU_15tsuzulint_cache7managerNtB3_12CacheManager3newNtNtCsaa59N1qzrfe_3std4path7PathBufECs47f85yxqTTa_14tsuzulint_core
FNDA:24,_RINvMNtCs4O9HcfwEIU_15tsuzulint_cache7managerNtB3_12CacheManager3newNtNtCsaa59N1qzrfe_3std4path7PathBufECsdHNy3eV5zAX_14tsuzulint_core
FNDA:0,_RINvMNtCs4O9HcfwEIU_15tsuzulint_cache7managerNtB3_12CacheManager3newReEB5_
FNDA:0,_RNCNvMNtCs4O9HcfwEIU_15tsuzulint_cache7managerNtB4_12CacheManager15find_best_match0B6_
FNDA:0,_RNCNvMNtCs4O9HcfwEIU_15tsuzulint_cache7managerNtB4_12CacheManager4load0B6_
FNDA:0,_RNCNvMNtCs4O9HcfwEIU_15tsuzulint_cache7managerNtB4_12CacheManager4save0B6_
FNDA:0,_RNvMNtCs4O9HcfwEIU_15tsuzulint_cache7managerNtB2_12CacheManager10is_enabled
FNDA:145,_RNvMNtCs4O9HcfwEIU_15tsuzulint_cache7managerNtB2_12CacheManager12hash_content
FNDA:0,_RNvMNtCs4O9HcfwEIU_15tsuzulint_cache7managerNtB2_12CacheManager15find_best_match
FNDA:30,_RNvMNtCs4O9HcfwEIU_15tsuzulint_cache7managerNtB2_12CacheManager16reconcile_blocks
FNDA:1,_RNvMNtCs4O9HcfwEIU_15tsuzulint_cache7managerNtB2_12CacheManager3get
FNDA:0,_RNvMNtCs4O9HcfwEIU_15tsuzulint_cache7managerNtB2_12CacheManager3len
FNDA:30,_RNvMNtCs4O9HcfwEIU_15tsuzulint_cache7managerNtB2_12CacheManager3set
FNDA:49,_RNvMNtCs4O9HcfwEIU_15tsuzulint_cache7managerNtB2_12CacheManager4load
FNDA:22,_RNvMNtCs4O9HcfwEIU_15tsuzulint_cache7managerNtB2_12CacheManager4save
FNDA:0,_RNvMNtCs4O9HcfwEIU_15tsuzulint_cache7managerNtB2_12CacheManager5clear
FNDA:0,_RNvMNtCs4O9HcfwEIU_15tsuzulint_cache7managerNtB2_12CacheManager6enable
FNDA:0,_RNvMNtCs4O9HcfwEIU_15tsuzulint_cache7managerNtB2_12CacheManager6remove
FNDA:17,_RNvMNtCs4O9HcfwEIU_15tsuzulint_cache7managerNtB2_12CacheManager7disable
FNDA:0,_RNvMNtCs4O9HcfwEIU_15tsuzulint_cache7managerNtB2_12CacheManager8is_empty
FNDA:31,_RNvMNtCs4O9HcfwEIU_15tsuzulint_cache7managerNtB2_12CacheManager8is_valid
FNDA:38,_RNvNtCs4O9HcfwEIU_15tsuzulint_cache7manager8path_keyB3_
FNDA:0,_RNvXs_NtCs4O9HcfwEIU_15tsuzulint_cache7managerNtB4_12CacheManagerNtNtCs4kUJL3MZFFz_4core7default7Default7default
FNDA:53,_RNvNtNtCs33dqzhFZ8Xr_15tsuzulint_cache7manager5tests10dummy_hash
FNDA:1,_RNvNtNtCs33dqzhFZ8Xr_15tsuzulint_cache7manager5testss_17test_hash_content
FNDA:1,_RNvNtNtCs33dqzhFZ8Xr_15tsuzulint_cache7manager5testss_22test_cache_manager_new
FNDA:1,_RNvNtNtCs33dqzhFZ8Xr_15tsuzulint_cache7manager5testss_23test_hash_content_empty
FNDA:1,_RNvNtNtCs33dqzhFZ8Xr_15tsuzulint_cache7manager5testss_24test_cache_manager_clear
FNDA:1,_RNvNtNtCs33dqzhFZ8Xr_15tsuzulint_cache7manager5testss_25test_cache_manager_enable
FNDA:1,_RNvNtNtCs33dqzhFZ8Xr_15tsuzulint_cache7manager5testss_25test_cache_manager_remove
FNDA:1,_RNvNtNtCs33dqzhFZ8Xr_15tsuzulint_cache7manager5testss_25test_hash_content_unicode
FNDA:1,_RNvNtNtCs33dqzhFZ8Xr_15tsuzulint_cache7manager5testss_26test_cache_manager_default
FNDA:1,_RNvNtNtCs33dqzhFZ8Xr_15tsuzulint_cache7manager5testss_26test_cache_manager_disable
FNDA:1,_RNvNtNtCs33dqzhFZ8Xr_15tsuzulint_cache7manager5testss_27test_cache_manager_is_valid
FNDA:1,_RNvNtNtCs33dqzhFZ8Xr_15tsuzulint_cache7manager5testss_32test_reconcile_blocks_span_shift
FNDA:1,_RNvNtNtCs33dqzhFZ8Xr_15tsuzulint_cache7manager5testss_33test_cache_manager_multiple_files
FNDA:1,_RNvNtNtCs33dqzhFZ8Xr_15tsuzulint_cache7manager5testss_33test_cache_manager_set_get_remove
FNDA:1,_RNvNtNtCs33dqzhFZ8Xr_15tsuzulint_cache7manager5testss_33test_reconcile_blocks_tie_breaker
FNDA:1,_RNvNtNtCs33dqzhFZ8Xr_15tsuzulint_cache7manager5testss_36test_cache_manager_get_when_disabled
FNDA:1,_RNvNtNtCs33dqzhFZ8Xr_15tsuzulint_cache7manager5testss_36test_cache_manager_set_when_disabled
FNDA:1,_RNvNtNtCs33dqzhFZ8Xr_15tsuzulint_cache7manager5testss_41test_cache_manager_is_valid_missing_entry
FNDA:1,_RNvNtNtCs33dqzhFZ8Xr_15tsuzulint_cache7manager5testss_41test_cache_manager_is_valid_when_disabled
FNDA:1,_RNvNtNtCs33dqzhFZ8Xr_15tsuzulint_cache7manager5testss_47test_cache_manager_set_get_remove_non_utf8_path
FNDA:1,_RNvNtNtCs33dqzhFZ8Xr_15tsuzulint_cache7manager5testss_56test_reconcile_blocks_with_multiple_candidates_and_order
FNDA:2,_RINvMNtCs33dqzhFZ8Xr_15tsuzulint_cache7managerNtB3_12CacheManager3newRNtNtCsaa59N1qzrfe_3std4path4PathEB5_
FNDA:17,_RINvMNtCs33dqzhFZ8Xr_15tsuzulint_cache7managerNtB3_12CacheManager3newReEB5_
FNDA:9,_RNCNvMNtCs33dqzhFZ8Xr_15tsuzulint_cache7managerNtB4_12CacheManager15find_best_match0B6_
FNDA:0,_RNCNvMNtCs33dqzhFZ8Xr_15tsuzulint_cache7managerNtB4_12CacheManager4load0B6_
FNDA:3,_RNCNvNtNtCs33dqzhFZ8Xr_15tsuzulint_cache7manager5testss_56test_reconcile_blocks_with_multiple_candidates_and_orders0_0B7_
FNDA:2,_RNCNvNtNtCs33dqzhFZ8Xr_15tsuzulint_cache7manager5testss_56test_reconcile_blocks_with_multiple_candidates_and_orders1_0B7_
FNDA:1,_RNCNvNtNtCs33dqzhFZ8Xr_15tsuzulint_cache7manager5testss_56test_reconcile_blocks_with_multiple_candidates_and_orders_0B7_
FNDA:5,_RNvMNtCs33dqzhFZ8Xr_15tsuzulint_cache7managerNtB2_12CacheManager10is_enabled
FNDA:7,_RNvMNtCs33dqzhFZ8Xr_15tsuzulint_cache7managerNtB2_12CacheManager12hash_content
FNDA:5,_RNvMNtCs33dqzhFZ8Xr_15tsuzulint_cache7managerNtB2_12CacheManager15find_best_match
FNDA:3,_RNvMNtCs33dqzhFZ8Xr_15tsuzulint_cache7managerNtB2_12CacheManager16reconcile_blocks
FNDA:5,_RNvMNtCs33dqzhFZ8Xr_15tsuzulint_cache7managerNtB2_12CacheManager3get
FNDA:4,_RNvMNtCs33dqzhFZ8Xr_15tsuzulint_cache7managerNtB2_12CacheManager3len
FNDA:18,_RNvMNtCs33dqzhFZ8Xr_15tsuzulint_cache7managerNtB2_12CacheManager3set
FNDA:2,_RNvMNtCs33dqzhFZ8Xr_15tsuzulint_cache7managerNtB2_12CacheManager4load
FNDA:1,_RNvMNtCs33dqzhFZ8Xr_15tsuzulint_cache7managerNtB2_12CacheManager5clear
FNDA:1,_RNvMNtCs33dqzhFZ8Xr_15tsuzulint_cache7managerNtB2_12CacheManager6enable
FNDA:3,_RNvMNtCs33dqzhFZ8Xr_15tsuzulint_cache7managerNtB2_12CacheManager6remove
FNDA:5,_RNvMNtCs33dqzhFZ8Xr_15tsuzulint_cache7managerNtB2_12CacheManager7disable
FNDA:5,_RNvMNtCs33dqzhFZ8Xr_15tsuzulint_cache7managerNtB2_12CacheManager8is_empty
FNDA:7,_RNvMNtCs33dqzhFZ8Xr_15tsuzulint_cache7managerNtB2_12CacheManager8is_valid
FNDA:33,_RNvNtCs33dqzhFZ8Xr_15tsuzulint_cache7manager8path_keyB3_
FNDA:1,_RNvXs_NtCs33dqzhFZ8Xr_15tsuzulint_cache7managerNtB4_12CacheManagerNtNtCs4kUJL3MZFFz_4core7default7Default7default
FNDA:1,_RNvNtNtCs33dqzhFZ8Xr_15tsuzulint_cache7manager11tests_extras_32test_load_cache_exceeds_max_size
FNDA:1,_RNvNtNtCs33dqzhFZ8Xr_15tsuzulint_cache7manager11tests_extras_33test_load_cache_at_exact_max_size
FNDA:0,_RNCNvMNtCs33dqzhFZ8Xr_15tsuzulint_cache7managerNtB4_12CacheManager4save0B6_
FNDA:0,_RNvMNtCs33dqzhFZ8Xr_15tsuzulint_cache7managerNtB2_12CacheManager4save
FNDA:26,_RINvMNtCs4O9HcfwEIU_15tsuzulint_cache7managerNtB3_12CacheManager3newNtNtCsaa59N1qzrfe_3std4path7PathBufECs47f85yxqTTa_14tsuzulint_core
FNF:47
FNH:45
DA:30,71
DA:31,71
DA:32,71
DA:40,69
DA:41,69
DA:42,69
DA:43,69
DA:44,69
DA:45,69
DA:46,69
DA:49,22
DA:50,22
DA:51,22
DA:54,1
DA:55,1
DA:56,1
DA:59,5
DA:60,5
DA:61,5
DA:64,152
DA:65,152
DA:66,152
DA:69,6
DA:70,6
DA:71,1
DA:72,5
DA:73,5
DA:74,6
DA:84,38
DA:85,38
DA:86,38
DA:87,38
DA:88,38
DA:89,38
DA:90,38
DA:91,38
DA:92,19
DA:93,19
DA:95,19
DA:96,6
DA:97,13
DA:99,38
DA:118,33
DA:119,33
DA:120,33
DA:121,33
DA:122,33
DA:123,33
DA:124,33
DA:125,33
DA:126,33
DA:128,33
DA:129,18
DA:130,15
DA:132,15
DA:133,3
DA:134,12
DA:138,3
DA:139,3
DA:141,0
DA:142,3
DA:144,3
DA:145,0
DA:146,0
DA:147,0
DA:156,3
DA:157,3
DA:158,6
DA:159,6
DA:160,6
DA:163,5
DA:164,5
DA:165,5
DA:172,5
DA:173,5
DA:176,5
DA:179,5
DA:180,5
DA:182,5
DA:183,5
DA:184,5
DA:187,5
DA:188,0
DA:189,0
DA:190,0
DA:191,5
DA:195,5
DA:197,5
DA:199,0
DA:202,3
DA:203,33
DA:207,5
DA:208,5
DA:209,5
DA:210,5
DA:211,5
DA:212,5
DA:213,5
DA:214,9
DA:215,9
DA:216,9
DA:217,5
DA:218,5
DA:221,48
DA:222,48
DA:223,29
DA:224,29
DA:225,48
DA:228,3
DA:229,3
DA:230,3
DA:233,1
DA:234,1
DA:235,1
DA:238,51
DA:239,51
DA:240,17
DA:241,34
DA:243,34
DA:245,34
DA:246,32
DA:247,32
DA:248,2
DA:250,2
DA:251,2
DA:252,2
DA:253,1
DA:254,1
DA:255,1
DA:256,1
DA:257,1
DA:259,1
DA:260,1
DA:262,1
DA:263,0
DA:264,0
DA:265,0
DA:266,0
DA:267,1
DA:268,1
DA:269,1
DA:270,1
DA:272,1
DA:273,1
DA:275,1
DA:276,51
DA:279,22
DA:280,22
DA:281,15
DA:282,7
DA:285,7
DA:287,7
DA:288,7
DA:289,7
DA:291,7
DA:293,7
DA:295,0
DA:296,0
DA:299,7
DA:300,22
DA:303,4
DA:304,4
DA:305,4
DA:308,5
DA:309,5
DA:310,5
DA:314,1
DA:315,1
DA:316,1
DA:323,53
DA:324,53
DA:325,53
DA:328,1
DA:329,1
DA:330,1
DA:331,1
DA:332,1
DA:335,1
DA:336,1
DA:337,1
DA:338,1
DA:339,1
DA:342,1
DA:343,1
DA:344,1
DA:345,1
DA:348,1
DA:349,1
DA:352,1
DA:353,1
DA:354,1
DA:358,1
DA:360,1
DA:361,1
DA:364,1
DA:365,1
DA:367,1
DA:368,1
DA:370,1
DA:371,1
DA:372,1
DA:375,1
DA:376,1
DA:377,1
DA:378,1
DA:379,1
DA:380,1
DA:381,1
DA:382,1
DA:383,1
DA:384,1
DA:387,1
DA:389,1
DA:390,1
DA:391,1
DA:394,1
DA:395,1
DA:396,1
DA:397,1
DA:399,1
DA:400,1
DA:401,1
DA:404,1
DA:405,1
DA:406,1
DA:407,1
DA:409,1
DA:410,1
DA:411,1
DA:414,1
DA:415,1
DA:416,1
DA:417,1
DA:419,1
DA:420,1
DA:422,1
DA:423,1
DA:424,1
DA:427,1
DA:428,1
DA:430,5
DA:431,5
DA:432,5
DA:433,5
DA:434,5
DA:435,5
DA:436,5
DA:437,5
DA:438,5
DA:439,5
DA:440,5
DA:442,1
DA:444,1
DA:445,1
DA:446,1
DA:449,1
DA:450,1
DA:451,1
DA:452,1
DA:454,1
DA:455,1
DA:458,1
DA:459,1
DA:462,1
DA:463,1
DA:464,1
DA:465,1
DA:466,1
DA:467,1
DA:468,1
DA:469,1
DA:470,1
DA:471,1
DA:474,1
DA:475,1
DA:478,1
DA:479,1
DA:482,1
DA:483,1
DA:484,1
DA:486,1
DA:487,1
DA:489,1
DA:492,1
DA:493,1
DA:496,1
DA:497,1
DA:498,1
DA:499,1
DA:501,1
DA:502,1
DA:505,1
DA:506,1
DA:507,1
DA:508,1
DA:509,1
DA:512,1
DA:513,1
DA:515,1
DA:516,1
DA:517,1
DA:520,1
DA:521,1
DA:522,1
DA:523,1
DA:525,1
DA:526,1
DA:527,1
DA:530,1
DA:531,1
DA:533,1
DA:534,1
DA:535,1
DA:536,1
DA:539,3
DA:540,3
DA:541,3
DA:542,3
DA:544,1
DA:546,1
DA:547,1
DA:548,1
DA:549,1
DA:550,1
DA:551,1
DA:553,1
DA:554,1
DA:555,1
DA:556,1
DA:557,1
DA:559,1
DA:560,1
DA:561,1
DA:562,1
DA:563,1
DA:565,1
DA:568,1
DA:570,1
DA:571,1
DA:573,1
DA:577,1
DA:578,1
DA:579,1
DA:580,1
DA:581,1
DA:582,1
DA:583,1
DA:584,1
DA:585,1
DA:586,1
DA:587,1
DA:588,1
DA:589,1
DA:590,1
DA:591,1
DA:593,1
DA:594,1
DA:595,1
DA:596,1
DA:597,1
DA:598,1
DA:599,1
DA:600,1
DA:602,1
DA:612,1
DA:613,1
DA:614,1
DA:615,1
DA:616,1
DA:617,1
DA:618,1
DA:619,1
DA:620,1
DA:621,1
DA:622,1
DA:623,1
DA:624,1
DA:625,1
DA:626,1
DA:627,1
DA:630,1
DA:631,1
DA:634,1
DA:635,1
DA:639,1
DA:640,3
DA:641,2
DA:642,1
DA:645,1
DA:647,1
DA:648,1
DA:650,1
DA:653,1
DA:654,1
DA:655,1
DA:656,1
DA:657,1
DA:659,1
DA:660,1
DA:661,1
DA:662,1
DA:663,1
DA:664,1
DA:665,1
DA:667,1
DA:670,1
DA:671,1
DA:672,1
DA:673,1
DA:674,1
DA:676,1
DA:677,1
DA:680,1
DA:681,1
DA:684,1
DA:685,1
DA:686,1
DA:689,1
DA:691,1
DA:692,1
DA:694,1
DA:699,1
DA:700,1
DA:701,1
DA:702,1
DA:703,1
DA:704,1
DA:705,1
DA:706,1
DA:707,1
DA:708,1
DA:710,1
DA:711,1
DA:712,1
DA:713,1
DA:714,1
DA:715,1
DA:716,1
DA:718,1
DA:725,1
DA:726,1
DA:727,1
DA:728,1
DA:729,1
DA:731,1
DA:732,1
DA:735,1
DA:736,1
DA:743,1
DA:744,1
DA:754,1
DA:755,1
DA:756,1
DA:759,1
DA:760,1
DA:761,1
DA:763,1
DA:764,1
DA:766,1
DA:767,1
DA:768,1
DA:770,0
DA:771,0
DA:773,1
DA:776,1
DA:777,1
DA:778,1
DA:781,1
DA:782,1
DA:783,1
DA:785,1
DA:787,0
DA:788,0
DA:789,0
DA:791,0
DA:792,1
DA:796,1
DA:797,1
DA:798,1
BRF:0
BRH:0
LF:485
LH:458
end_of_record
SF:/app/crates/tsuzulint_cli/src/commands/init.rs
FN:9,_RNvNtNtCs1t6klNcusb6_6tzlint8commands4init8run_init
FN:9,_RNvNtNtCsiGQo9BHC4pH_6tzlint8commands4init8run_init
FNDA:6,_RNvNtNtCs1t6klNcusb6_6tzlint8commands4init8run_init
FNDA:0,_RNvNtNtCsiGQo9BHC4pH_6tzlint8commands4init8run_init
FNF:1
FNH:1
DA:9,6
DA:10,6
DA:12,6
DA:13,6
DA:14,6
DA:15,6
DA:16,6
DA:17,6
DA:20,8
DA:21,8
DA:26,8
DA:29,8
DA:30,4
DA:32,4
DA:33,4
DA:34,4
DA:35,4
DA:37,4
DA:38,4
DA:39,2
DA:40,2
DA:41,2
DA:42,2
DA:44,2
DA:45,2
DA:46,0
DA:47,0
DA:50,0
DA:53,6
BRF:0
BRH:0
LF:29
LH:26
end_of_record
SF:/app/crates/tsuzulint_cli/src/commands/lint.rs
FN:194,_RNvNtNtCs1t6klNcusb6_6tzlint8commands4lint11find_config
FN:76,_RNvNtNtCs1t6klNcusb6_6tzlint8commands4lint13resolve_rules
FN:160,_RNvNtNtCs1t6klNcusb6_6tzlint8commands4lint19extract_plugin_spec
FN:125,_RNvNtNtCs1t6klNcusb6_6tzlint8commands4lint19resolve_single_rule
FN:14,_RNvNtNtCs1t6klNcusb6_6tzlint8commands4lint8run_lint
FN:66,_RNCNCNvNtNtCs1t6klNcusb6_6tzlint8commands4lint8run_lint00B9_
FN:182,_RNCNvNtNtCs1t6klNcusb6_6tzlint8commands4lint19extract_plugin_spec0B7_
FN:186,_RNCNvNtNtCs1t6klNcusb6_6tzlint8commands4lint19extract_plugin_specs_0B7_
FN:133,_RNCNvNtNtCs1t6klNcusb6_6tzlint8commands4lint19resolve_single_rule0B7_
FN:146,_RNCNvNtNtCs1t6klNcusb6_6tzlint8commands4lint19resolve_single_rules0_0B7_
FN:139,_RNCNvNtNtCs1t6klNcusb6_6tzlint8commands4lint19resolve_single_rules_0B7_
FN:63,_RNCNvNtNtCs1t6klNcusb6_6tzlint8commands4lint8run_lint0B7_
FN:66,_RNCNCNvNtNtCsiGQo9BHC4pH_6tzlint8commands4lint8run_lint00B9_
FN:182,_RNCNvNtNtCsiGQo9BHC4pH_6tzlint8commands4lint19extract_plugin_spec0B7_
FN:186,_RNCNvNtNtCsiGQo9BHC4pH_6tzlint8commands4lint19extract_plugin_specs_0B7_
FN:133,_RNCNvNtNtCsiGQo9BHC4pH_6tzlint8commands4lint19resolve_single_rule0B7_
FN:146,_RNCNvNtNtCsiGQo9BHC4pH_6tzlint8commands4lint19resolve_single_rules0_0B7_
FN:139,_RNCNvNtNtCsiGQo9BHC4pH_6tzlint8commands4lint19resolve_single_rules_0B7_
FN:63,_RNCNvNtNtCsiGQo9BHC4pH_6tzlint8commands4lint8run_lint0B7_
FN:194,_RNvNtNtCsiGQo9BHC4pH_6tzlint8commands4lint11find_config
FN:76,_RNvNtNtCsiGQo9BHC4pH_6tzlint8commands4lint13resolve_rules
FN:160,_RNvNtNtCsiGQo9BHC4pH_6tzlint8commands4lint19extract_plugin_spec
FN:125,_RNvNtNtCsiGQo9BHC4pH_6tzlint8commands4lint19resolve_single_rule
FN:14,_RNvNtNtCsiGQo9BHC4pH_6tzlint8commands4lint8run_lint
FNDA:15,_RNvNtNtCs1t6klNcusb6_6tzlint8commands4lint11find_config
FNDA:16,_RNvNtNtCs1t6klNcusb6_6tzlint8commands4lint13resolve_rules
FNDA:12,_RNvNtNtCs1t6klNcusb6_6tzlint8commands4lint19extract_plugin_spec
FNDA:0,_RNvNtNtCs1t6klNcusb6_6tzlint8commands4lint19resolve_single_rule
FNDA:17,_RNvNtNtCs1t6klNcusb6_6tzlint8commands4lint8run_lint
FNDA:0,_RNCNCNvNtNtCs1t6klNcusb6_6tzlint8commands4lint8run_lint00B9_
FNDA:0,_RNCNvNtNtCs1t6klNcusb6_6tzlint8commands4lint19extract_plugin_spec0B7_
FNDA:0,_RNCNvNtNtCs1t6klNcusb6_6tzlint8commands4lint19extract_plugin_specs_0B7_
FNDA:0,_RNCNvNtNtCs1t6klNcusb6_6tzlint8commands4lint19resolve_single_rule0B7_
FNDA:0,_RNCNvNtNtCs1t6klNcusb6_6tzlint8commands4lint19resolve_single_rules0_0B7_
FNDA:0,_RNCNvNtNtCs1t6klNcusb6_6tzlint8commands4lint19resolve_single_rules_0B7_
FNDA:1,_RNCNvNtNtCs1t6klNcusb6_6tzlint8commands4lint8run_lint0B7_
FNDA:0,_RNCNCNvNtNtCsiGQo9BHC4pH_6tzlint8commands4lint8run_lint00B9_
FNDA:0,_RNCNvNtNtCsiGQo9BHC4pH_6tzlint8commands4lint19extract_plugin_spec0B7_
FNDA:0,_RNCNvNtNtCsiGQo9BHC4pH_6tzlint8commands4lint19extract_plugin_specs_0B7_
FNDA:0,_RNCNvNtNtCsiGQo9BHC4pH_6tzlint8commands4lint19resolve_single_rule0B7_
FNDA:0,_RNCNvNtNtCsiGQo9BHC4pH_6tzlint8commands4lint19resolve_single_rules0_0B7_
FNDA:0,_RNCNvNtNtCsiGQo9BHC4pH_6tzlint8commands4lint19resolve_single_rules_0B7_
FNDA:0,_RNCNvNtNtCsiGQo9BHC4pH_6tzlint8commands4lint8run_lint0B7_
FNDA:0,_RNvNtNtCsiGQo9BHC4pH_6tzlint8commands4lint11find_config
FNDA:0,_RNvNtNtCsiGQo9BHC4pH_6tzlint8commands4lint13resolve_rules
FNDA:0,_RNvNtNtCsiGQo9BHC4pH_6tzlint8commands4lint19extract_plugin_spec
FNDA:0,_RNvNtNtCsiGQo9BHC4pH_6tzlint8commands4lint19resolve_single_rule
FNDA:0,_RNvNtNtCsiGQo9BHC4pH_6tzlint8commands4lint8run_lint
FNF:12
FNH:5
DA:14,17
DA:15,17
DA:16,17
DA:17,17
DA:18,17
DA:19,17
DA:20,17
DA:21,17
DA:22,17
DA:23,17
DA:24,2
DA:26,15
DA:29,16
DA:30,16
DA:32,16
DA:34,16
DA:35,1
DA:36,15
DA:38,16
DA:39,16
DA:40,16
DA:42,16
DA:44,16
DA:46,16
DA:48,15
DA:49,0
DA:50,0
DA:51,0
DA:52,0
DA:53,15
DA:55,15
DA:56,2
DA:57,2
DA:59,2
DA:60,1
DA:61,1
DA:63,1
DA:64,1
DA:65,1
DA:66,1
DA:67,1
DA:68,1
DA:69,13
DA:71,13
DA:73,13
DA:74,17
DA:76,16
DA:77,16
DA:78,16
DA:79,16
DA:80,16
DA:81,16
DA:82,16
DA:84,16
DA:85,12
DA:86,0
DA:87,0
DA:88,0
DA:89,0
DA:90,0
DA:91,0
DA:92,0
DA:93,0
DA:94,0
DA:95,0
DA:96,0
DA:97,0
DA:98,0
DA:99,0
DA:100,0
DA:101,0
DA:102,0
DA:106,12
DA:107,12
DA:108,12
DA:112,16
DA:113,16
DA:125,0
DA:126,0
DA:127,0
DA:128,0
DA:129,0
DA:130,0
DA:131,0
DA:133,0
DA:135,0
DA:136,0
DA:137,0
DA:138,0
DA:139,0
DA:140,0
DA:141,0
DA:142,0
DA:143,0
DA:144,0
DA:145,0
DA:146,0
DA:147,0
DA:148,0
DA:149,0
DA:150,0
DA:151,0
DA:153,0
DA:154,0
DA:158,0
DA:160,12
DA:161,12
DA:162,0
DA:163,0
DA:164,0
DA:165,0
DA:166,0
DA:169,0
DA:171,0
DA:174,12
DA:175,12
DA:176,0
DA:177,0
DA:178,0
DA:179,0
DA:180,0
DA:181,0
DA:182,0
DA:183,12
DA:184,0
DA:185,0
DA:186,0
DA:188,12
DA:192,12
DA:194,15
DA:195,15
DA:196,12
DA:197,12
DA:198,3
DA:200,3
DA:201,3
DA:202,15
BRF:0
BRH:0
LF:143
LH:72
end_of_record
SF:/app/crates/tsuzulint_cli/src/commands/lsp.rs
FN:7,_RNvNtNtCs1t6klNcusb6_6tzlint8commands3lsp7run_lsp
FN:8,_RNCNvNtNtCs1t6klNcusb6_6tzlint8commands3lsp7run_lsp0B7_
FN:8,_RNCNvNtNtCsiGQo9BHC4pH_6tzlint8commands3lsp7run_lsp0B7_
FN:7,_RNvNtNtCsiGQo9BHC4pH_6tzlint8commands3lsp7run_lsp
FNDA:0,_RNvNtNtCs1t6klNcusb6_6tzlint8commands3lsp7run_lsp
FNDA:0,_RNCNvNtNtCs1t6klNcusb6_6tzlint8commands3lsp7run_lsp0B7_
FNDA:0,_RNCNvNtNtCsiGQo9BHC4pH_6tzlint8commands3lsp7run_lsp0B7_
FNDA:0,_RNvNtNtCsiGQo9BHC4pH_6tzlint8commands3lsp7run_lsp
FNF:2
FNH:0
DA:7,0
DA:8,0
DA:9,0
DA:10,0
DA:11,0
DA:12,0
BRF:0
BRH:0
LF:7
LH:0
end_of_record
SF:/app/crates/tsuzulint_cli/src/commands/plugin.rs
FN:48,_RNCNvNtNtCs1t6klNcusb6_6tzlint8commands6plugin18run_plugin_install0B7_
FN:64,_RNCNvNtNtCs1t6klNcusb6_6tzlint8commands6plugin18run_plugin_installs_0B7_
FN:22,_RNvNtNtCs1t6klNcusb6_6tzlint8commands6plugin18run_plugin_install
FN:12,_RNvNtNtCs1t6klNcusb6_6tzlint8commands6plugin22run_plugin_cache_clean
FN:48,_RNCNvNtNtCsiGQo9BHC4pH_6tzlint8commands6plugin18run_plugin_install0B7_
FN:64,_RNCNvNtNtCsiGQo9BHC4pH_6tzlint8commands6plugin18run_plugin_installs_0B7_
FN:22,_RNvNtNtCsiGQo9BHC4pH_6tzlint8commands6plugin18run_plugin_install
FN:12,_RNvNtNtCsiGQo9BHC4pH_6tzlint8commands6plugin22run_plugin_cache_clean
FNDA:0,_RNCNvNtNtCs1t6klNcusb6_6tzlint8commands6plugin18run_plugin_install0B7_
FNDA:1,_RNCNvNtNtCs1t6klNcusb6_6tzlint8commands6plugin18run_plugin_installs_0B7_
FNDA:4,_RNvNtNtCs1t6klNcusb6_6tzlint8commands6plugin18run_plugin_install
FNDA:1,_RNvNtNtCs1t6klNcusb6_6tzlint8commands6plugin22run_plugin_cache_clean
FNDA:0,_RNCNvNtNtCsiGQo9BHC4pH_6tzlint8commands6plugin18run_plugin_install0B7_
FNDA:0,_RNCNvNtNtCsiGQo9BHC4pH_6tzlint8commands6plugin18run_plugin_installs_0B7_
FNDA:0,_RNvNtNtCsiGQo9BHC4pH_6tzlint8commands6plugin18run_plugin_install
FNDA:0,_RNvNtNtCsiGQo9BHC4pH_6tzlint8commands6plugin22run_plugin_cache_clean
FNF:4
FNH:3
DA:12,1
DA:15,1
DA:16,1
DA:18,1
DA:19,1
DA:20,1
DA:22,4
DA:23,4
DA:24,4
DA:25,4
DA:26,4
DA:27,4
DA:28,4
DA:29,4
DA:30,2
DA:31,1
DA:32,1
DA:33,1
DA:34,1
DA:35,1
DA:36,1
DA:38,1
DA:39,1
DA:40,0
DA:42,0
DA:43,0
DA:44,0
DA:45,0
DA:46,2
DA:47,1
DA:48,1
DA:49,1
DA:51,1
DA:52,0
DA:53,1
DA:54,1
DA:56,1
DA:59,1
DA:60,1
DA:62,1
DA:64,1
DA:66,1
DA:67,1
DA:68,0
DA:69,0
DA:70,0
DA:72,0
DA:76,0
DA:81,1
DA:82,1
DA:83,4
BRF:0
BRH:0
LF:53
LH:41
end_of_record
SF:/app/crates/tsuzulint_cli/src/commands/rules.rs
FN:262,_RNvNtNtCs1t6klNcusb6_6tzlint8commands5rules12run_add_rule
FN:171,_RNvNtNtCs1t6klNcusb6_6tzlint8commands5rules13find_manifest
FN:179,_RNvNtNtCs1t6klNcusb6_6tzlint8commands5rules13load_manifest
FN:35,_RNvNtNtCs1t6klNcusb6_6tzlint8commands5rules15run_create_rule
FN:228,_RNvNtNtCs1t6klNcusb6_6tzlint8commands5rules17copy_plugin_files
FN:157,_RNvNtNtCs1t6klNcusb6_6tzlint8commands5rules18validate_wasm_path
FN:318,_RNvNtNtCs1t6klNcusb6_6tzlint8commands5rules22build_spec_from_detail
FN:186,_RNvNtNtCs1t6klNcusb6_6tzlint8commands5rules25generate_minimal_manifest
FN:275,_RNCNCNvNtNtCs1t6klNcusb6_6tzlint8commands5rules12run_add_rules_00B9_
FN:276,_RNCNCNvNtNtCs1t6klNcusb6_6tzlint8commands5rules12run_add_rules_0s_0B9_
FN:269,_RNCNvNtNtCs1t6klNcusb6_6tzlint8commands5rules12run_add_rule0B7_
FN:272,_RNCNvNtNtCs1t6klNcusb6_6tzlint8commands5rules12run_add_rules_0B7_
FN:251,_RNCNvNtNtCs1t6klNcusb6_6tzlint8commands5rules17copy_plugin_files0B7_
FN:162,_RNCNvNtNtCs1t6klNcusb6_6tzlint8commands5rules18validate_wasm_path0B7_
FN:168,_RNCNvNtNtCs1t6klNcusb6_6tzlint8commands5rules18validate_wasm_paths_0B7_
FN:35,_RNvNtNtCsiGQo9BHC4pH_6tzlint8commands5rules15run_create_rule
FN:275,_RNCNCNvNtNtCsiGQo9BHC4pH_6tzlint8commands5rules12run_add_rules_00B9_
FN:276,_RNCNCNvNtNtCsiGQo9BHC4pH_6tzlint8commands5rules12run_add_rules_0s_0B9_
FN:269,_RNCNvNtNtCsiGQo9BHC4pH_6tzlint8commands5rules12run_add_rule0B7_
FN:272,_RNCNvNtNtCsiGQo9BHC4pH_6tzlint8commands5rules12run_add_rules_0B7_
FN:251,_RNCNvNtNtCsiGQo9BHC4pH_6tzlint8commands5rules17copy_plugin_files0B7_
FN:162,_RNCNvNtNtCsiGQo9BHC4pH_6tzlint8commands5rules18validate_wasm_path0B7_
FN:168,_RNCNvNtNtCsiGQo9BHC4pH_6tzlint8commands5rules18validate_wasm_paths_0B7_
FN:406,_RNvNtNtNtCsiGQo9BHC4pH_6tzlint8commands5rules14add_rule_testss_29test_validate_wasm_path_valid
FN:418,_RNvNtNtNtCsiGQo9BHC4pH_6tzlint8commands5rules14add_rule_testss_33test_validate_wasm_path_not_found
FN:424,_RNvNtNtNtCsiGQo9BHC4pH_6tzlint8commands5rules14add_rule_testss_41test_validate_wasm_path_invalid_extension
FN:526,_RNvNtNtNtCsiGQo9BHC4pH_6tzlint8commands5rules14manifest_testss_22test_copy_plugin_files
FN:452,_RNvNtNtNtCsiGQo9BHC4pH_6tzlint8commands5rules14manifest_testss_23test_find_manifest_none
FN:462,_RNvNtNtNtCsiGQo9BHC4pH_6tzlint8commands5rules14manifest_testss_24test_load_manifest_valid
FN:439,_RNvNtNtNtCsiGQo9BHC4pH_6tzlint8commands5rules14manifest_testss_26test_find_manifest_sibling
FN:497,_RNvNtNtNtCsiGQo9BHC4pH_6tzlint8commands5rules14manifest_testss_30test_generate_minimal_manifest
FN:486,_RNvNtNtNtCsiGQo9BHC4pH_6tzlint8commands5rules14manifest_testss_31test_load_manifest_invalid_json
FN:554,_RNvNtNtNtCsiGQo9BHC4pH_6tzlint8commands5rules14manifest_testss_40test_copy_plugin_files_recomputes_sha256
FN:635,_RNvNtNtNtCsiGQo9BHC4pH_6tzlint8commands5rules14manifest_testss_40test_run_add_rule_invalid_alias_too_long
FN:623,_RNvNtNtNtCsiGQo9BHC4pH_6tzlint8commands5rules14manifest_testss_42test_run_add_rule_invalid_alias_with_space
FN:519,_RNvNtNtNtCsiGQo9BHC4pH_6tzlint8commands5rules14manifest_testss_43test_generate_minimal_manifest_missing_file
FN:648,_RNvNtNtNtCsiGQo9BHC4pH_6tzlint8commands5rules14manifest_testss_47test_run_add_rule_retries_on_incomplete_install
FN:357,_RNvNtNtNtCsiGQo9BHC4pH_6tzlint8commands5rules5testss_27test_build_spec_from_detail
FN:372,_RNvNtNtNtCsiGQo9BHC4pH_6tzlint8commands5rules5testss_31test_build_spec_from_detail_url
FN:388,_RNvNtNtNtCsiGQo9BHC4pH_6tzlint8commands5rules5testss_43test_build_spec_from_detail_github_no_alias
FN:262,_RNvNtNtCsiGQo9BHC4pH_6tzlint8commands5rules12run_add_rule
FN:171,_RNvNtNtCsiGQo9BHC4pH_6tzlint8commands5rules13find_manifest
FN:179,_RNvNtNtCsiGQo9BHC4pH_6tzlint8commands5rules13load_manifest
FN:228,_RNvNtNtCsiGQo9BHC4pH_6tzlint8commands5rules17copy_plugin_files
FN:157,_RNvNtNtCsiGQo9BHC4pH_6tzlint8commands5rules18validate_wasm_path
FN:318,_RNvNtNtCsiGQo9BHC4pH_6tzlint8commands5rules22build_spec_from_detail
FN:186,_RNvNtNtCsiGQo9BHC4pH_6tzlint8commands5rules25generate_minimal_manifest
FNDA:3,_RNvNtNtCs1t6klNcusb6_6tzlint8commands5rules12run_add_rule
FNDA:1,_RNvNtNtCs1t6klNcusb6_6tzlint8commands5rules13find_manifest
FNDA:0,_RNvNtNtCs1t6klNcusb6_6tzlint8commands5rules13load_manifest
FNDA:2,_RNvNtNtCs1t6klNcusb6_6tzlint8commands5rules15run_create_rule
FNDA:1,_RNvNtNtCs1t6klNcusb6_6tzlint8commands5rules17copy_plugin_files
FNDA:3,_RNvNtNtCs1t6klNcusb6_6tzlint8commands5rules18validate_wasm_path
FNDA:0,_RNvNtNtCs1t6klNcusb6_6tzlint8commands5rules22build_spec_from_detail
FNDA:1,_RNvNtNtCs1t6klNcusb6_6tzlint8commands5rules25generate_minimal_manifest
FNDA:1,_RNCNCNvNtNtCs1t6klNcusb6_6tzlint8commands5rules12run_add_rules_00B9_
FNDA:0,_RNCNCNvNtNtCs1t6klNcusb6_6tzlint8commands5rules12run_add_rules_0s_0B9_
FNDA:0,_RNCNvNtNtCs1t6klNcusb6_6tzlint8commands5rules12run_add_rule0B7_
FNDA:1,_RNCNvNtNtCs1t6klNcusb6_6tzlint8commands5rules12run_add_rules_0B7_
FNDA:0,_RNCNvNtNtCs1t6klNcusb6_6tzlint8commands5rules17copy_plugin_files0B7_
FNDA:2,_RNCNvNtNtCs1t6klNcusb6_6tzlint8commands5rules18validate_wasm_path0B7_
FNDA:0,_RNCNvNtNtCs1t6klNcusb6_6tzlint8commands5rules18validate_wasm_paths_0B7_
FNDA:0,_RNvNtNtCsiGQo9BHC4pH_6tzlint8commands5rules15run_create_rule
FNDA:1,_RNCNCNvNtNtCsiGQo9BHC4pH_6tzlint8commands5rules12run_add_rules_00B9_
FNDA:0,_RNCNCNvNtNtCsiGQo9BHC4pH_6tzlint8commands5rules12run_add_rules_0s_0B9_
FNDA:0,_RNCNvNtNtCsiGQo9BHC4pH_6tzlint8commands5rules12run_add_rule0B7_
FNDA:1,_RNCNvNtNtCsiGQo9BHC4pH_6tzlint8commands5rules12run_add_rules_0B7_
FNDA:0,_RNCNvNtNtCsiGQo9BHC4pH_6tzlint8commands5rules17copy_plugin_files0B7_
FNDA:4,_RNCNvNtNtCsiGQo9BHC4pH_6tzlint8commands5rules18validate_wasm_path0B7_
FNDA:0,_RNCNvNtNtCsiGQo9BHC4pH_6tzlint8commands5rules18validate_wasm_paths_0B7_
FNDA:1,_RNvNtNtNtCsiGQo9BHC4pH_6tzlint8commands5rules14add_rule_testss_29test_validate_wasm_path_valid
FNDA:1,_RNvNtNtNtCsiGQo9BHC4pH_6tzlint8commands5rules14add_rule_testss_33test_validate_wasm_path_not_found
FNDA:1,_RNvNtNtNtCsiGQo9BHC4pH_6tzlint8commands5rules14add_rule_testss_41test_validate_wasm_path_invalid_extension
FNDA:1,_RNvNtNtNtCsiGQo9BHC4pH_6tzlint8commands5rules14manifest_testss_22test_copy_plugin_files
FNDA:1,_RNvNtNtNtCsiGQo9BHC4pH_6tzlint8commands5rules14manifest_testss_23test_find_manifest_none
FNDA:1,_RNvNtNtNtCsiGQo9BHC4pH_6tzlint8commands5rules14manifest_testss_24test_load_manifest_valid
FNDA:1,_RNvNtNtNtCsiGQo9BHC4pH_6tzlint8commands5rules14manifest_testss_26test_find_manifest_sibling
FNDA:1,_RNvNtNtNtCsiGQo9BHC4pH_6tzlint8commands5rules14manifest_testss_30test_generate_minimal_manifest
FNDA:1,_RNvNtNtNtCsiGQo9BHC4pH_6tzlint8commands5rules14manifest_testss_31test_load_manifest_invalid_json
FNDA:1,_RNvNtNtNtCsiGQo9BHC4pH_6tzlint8commands5rules14manifest_testss_40test_copy_plugin_files_recomputes_sha256
FNDA:1,_RNvNtNtNtCsiGQo9BHC4pH_6tzlint8commands5rules14manifest_testss_40test_run_add_rule_invalid_alias_too_long
FNDA:1,_RNvNtNtNtCsiGQo9BHC4pH_6tzlint8commands5rules14manifest_testss_42test_run_add_rule_invalid_alias_with_space
FNDA:1,_RNvNtNtNtCsiGQo9BHC4pH_6tzlint8commands5rules14manifest_testss_43test_generate_minimal_manifest_missing_file
FNDA:1,_RNvNtNtNtCsiGQo9BHC4pH_6tzlint8commands5rules14manifest_testss_47test_run_add_rule_retries_on_incomplete_install
FNDA:1,_RNvNtNtNtCsiGQo9BHC4pH_6tzlint8commands5rules5testss_27test_build_spec_from_detail
FNDA:1,_RNvNtNtNtCsiGQo9BHC4pH_6tzlint8commands5rules5testss_31test_build_spec_from_detail_url
FNDA:1,_RNvNtNtNtCsiGQo9BHC4pH_6tzlint8commands5rules5testss_43test_build_spec_from_detail_github_no_alias
FNDA:3,_RNvNtNtCsiGQo9BHC4pH_6tzlint8commands5rules12run_add_rule
FNDA:5,_RNvNtNtCsiGQo9BHC4pH_6tzlint8commands5rules13find_manifest
FNDA:2,_RNvNtNtCsiGQo9BHC4pH_6tzlint8commands5rules13load_manifest
FNDA:3,_RNvNtNtCsiGQo9BHC4pH_6tzlint8commands5rules17copy_plugin_files
FNDA:6,_RNvNtNtCsiGQo9BHC4pH_6tzlint8commands5rules18validate_wasm_path
FNDA:4,_RNvNtNtCsiGQo9BHC4pH_6tzlint8commands5rules22build_spec_from_detail
FNDA:6,_RNvNtNtCsiGQo9BHC4pH_6tzlint8commands5rules25generate_minimal_manifest
FNF:32
FNH:28
DA:35,2
DA:36,2
DA:38,2
DA:39,1
DA:40,1
DA:42,1
DA:44,1
DA:59,1
DA:62,1
DA:64,1
DA:145,1
DA:146,1
DA:148,1
DA:149,1
DA:154,1
DA:155,2
DA:157,9
DA:158,9
DA:159,2
DA:160,7
DA:162,7
DA:163,7
DA:164,2
DA:165,5
DA:167,5
DA:168,5
DA:169,9
DA:171,6
DA:172,6
DA:173,6
DA:174,1
DA:175,5
DA:176,5
DA:177,6
DA:179,2
DA:180,2
DA:181,2
DA:183,2
DA:184,2
DA:186,7
DA:187,7
DA:188,7
DA:189,7
DA:193,7
DA:194,6
DA:196,6
DA:197,6
DA:198,6
DA:199,6
DA:200,6
DA:201,6
DA:202,6
DA:203,6
DA:204,6
DA:205,6
DA:206,6
DA:207,6
DA:208,6
DA:209,6
DA:210,6
DA:211,6
DA:212,6
DA:213,6
DA:214,6
DA:215,6
DA:216,6
DA:217,6
DA:218,6
DA:219,6
DA:220,6
DA:221,6
DA:222,6
DA:223,6
DA:224,6
DA:225,6
DA:226,7
DA:228,4
DA:229,4
DA:230,4
DA:231,4
DA:232,4
DA:233,4
DA:235,4
DA:236,4
DA:238,4
DA:240,4
DA:241,4
DA:243,4
DA:244,4
DA:245,4
DA:246,4
DA:247,4
DA:248,4
DA:249,4
DA:251,4
DA:252,0
DA:253,0
DA:254,0
DA:255,0
DA:257,4
DA:259,4
DA:260,4
DA:262,6
DA:263,6
DA:265,4
DA:266,0
DA:267,0
DA:268,0
DA:269,0
DA:270,0
DA:272,4
DA:273,2
DA:274,2
DA:275,2
DA:276,2
DA:277,2
DA:278,4
DA:280,0
DA:282,4
DA:283,4
DA:286,4
DA:287,2
DA:288,2
DA:290,2
DA:291,2
DA:293,2
DA:294,0
DA:297,0
DA:299,0
DA:300,2
DA:302,2
DA:304,2
DA:306,2
DA:307,2
DA:308,2
DA:309,2
DA:311,2
DA:313,2
DA:314,2
DA:315,6
DA:318,4
DA:319,4
DA:320,4
DA:321,4
DA:322,4
DA:323,4
DA:324,4
DA:325,4
DA:326,4
DA:327,4
DA:329,4
DA:330,0
DA:331,0
DA:332,0
DA:333,0
DA:334,4
DA:335,4
DA:336,2
DA:337,2
DA:338,4
DA:339,4
DA:340,3
DA:341,1
DA:342,1
DA:346,1
DA:349,4
DA:357,1
DA:358,1
DA:359,1
DA:360,1
DA:361,1
DA:364,1
DA:366,1
DA:367,1
DA:368,1
DA:369,1
DA:372,1
DA:373,1
DA:374,1
DA:375,1
DA:376,1
DA:377,1
DA:378,1
DA:379,1
DA:380,1
DA:381,1
DA:384,1
DA:385,1
DA:388,1
DA:389,1
DA:390,1
DA:391,1
DA:392,1
DA:395,1
DA:396,1
DA:406,1
DA:407,1
DA:408,1
DA:409,1
DA:411,1
DA:412,1
DA:414,1
DA:415,1
DA:418,1
DA:419,1
DA:420,1
DA:421,1
DA:424,1
DA:425,1
DA:426,1
DA:428,1
DA:429,1
DA:430,1
DA:439,1
DA:440,1
DA:441,1
DA:442,1
DA:444,1
DA:445,1
DA:447,1
DA:448,1
DA:449,1
DA:452,1
DA:453,1
DA:454,1
DA:455,1
DA:457,1
DA:458,1
DA:459,1
DA:462,1
DA:463,1
DA:464,1
DA:466,1
DA:467,1
DA:468,1
DA:469,1
DA:470,1
DA:471,1
DA:472,1
DA:473,1
DA:474,1
DA:475,1
DA:476,1
DA:478,1
DA:479,1
DA:480,1
DA:481,1
DA:482,1
DA:483,1
DA:486,1
DA:487,1
DA:488,1
DA:490,1
DA:492,1
DA:493,1
DA:494,1
DA:497,1
DA:498,1
DA:499,1
DA:501,1
DA:502,1
DA:504,1
DA:506,1
DA:507,1
DA:508,1
DA:509,1
DA:510,1
DA:511,1
DA:512,1
DA:514,0
DA:516,1
DA:519,1
DA:520,1
DA:521,1
DA:522,1
DA:523,1
DA:526,1
DA:527,1
DA:528,1
DA:529,1
DA:531,1
DA:532,1
DA:534,1
DA:535,1
DA:537,1
DA:538,1
DA:540,1
DA:541,1
DA:542,1
DA:543,1
DA:544,1
DA:545,1
DA:547,1
DA:549,1
DA:550,1
DA:551,1
DA:554,1
DA:555,1
DA:556,1
DA:557,1
DA:558,1
DA:560,1
DA:562,1
DA:563,1
DA:564,1
DA:565,1
DA:566,1
DA:567,1
DA:568,1
DA:569,1
DA:570,1
DA:571,1
DA:572,1
DA:573,1
DA:574,1
DA:575,1
DA:576,1
DA:577,1
DA:578,1
DA:579,1
DA:580,1
DA:581,1
DA:582,1
DA:583,1
DA:584,1
DA:585,1
DA:586,1
DA:587,1
DA:588,1
DA:589,1
DA:590,1
DA:591,1
DA:592,1
DA:593,1
DA:594,1
DA:597,1
DA:598,1
DA:599,1
DA:601,1
DA:602,1
DA:603,1
DA:604,1
DA:605,1
DA:606,1
DA:608,1
DA:610,1
DA:611,1
DA:613,1
DA:614,1
DA:616,1
DA:617,1
DA:620,1
DA:623,1
DA:624,1
DA:625,1
DA:626,1
DA:628,1
DA:629,1
DA:630,1
DA:631,1
DA:632,1
DA:635,1
DA:636,1
DA:637,1
DA:638,1
DA:640,1
DA:641,1
DA:642,1
DA:643,1
DA:644,1
DA:645,1
DA:648,1
DA:649,1
DA:650,1
DA:651,1
DA:653,1
DA:654,1
DA:656,1
DA:657,1
DA:659,1
DA:660,1
DA:662,1
DA:663,1
BRF:0
BRH:0
LF:391
LH:368
end_of_record
SF:/app/crates/tsuzulint_cli/src/config/editor.rs
FN:36,_RNCNvNtNtCs1t6klNcusb6_6tzlint6config6editor25update_config_with_plugin0B7_
FN:49,_RNCNvNtNtCs1t6klNcusb6_6tzlint6config6editor25update_config_with_plugins0_0B7_
FN:53,_RNCNvNtNtCs1t6klNcusb6_6tzlint6config6editor25update_config_with_plugins1_0B7_
FN:62,_RNCNvNtNtCs1t6klNcusb6_6tzlint6config6editor25update_config_with_plugins2_0B7_
FN:71,_RNCNvNtNtCs1t6klNcusb6_6tzlint6config6editor25update_config_with_plugins3_0B7_
FN:72,_RNCNvNtNtCs1t6klNcusb6_6tzlint6config6editor25update_config_with_plugins4_0B7_
FN:77,_RNCNvNtNtCs1t6klNcusb6_6tzlint6config6editor25update_config_with_plugins5_0B7_
FN:102,_RNCNvNtNtCs1t6klNcusb6_6tzlint6config6editor25update_config_with_plugins6_0B7_
FN:103,_RNCNvNtNtCs1t6klNcusb6_6tzlint6config6editor25update_config_with_plugins7_0B7_
FN:109,_RNCNvNtNtCs1t6klNcusb6_6tzlint6config6editor25update_config_with_plugins8_0B7_
FN:162,_RNCNvNtNtCs1t6klNcusb6_6tzlint6config6editor25update_config_with_plugins9_0B7_
FN:44,_RNCNvNtNtCs1t6klNcusb6_6tzlint6config6editor25update_config_with_plugins_0B7_
FN:174,_RNvNtNtCs1t6klNcusb6_6tzlint6config6editor17generate_rule_def
FN:234,_RNvNtNtCs1t6klNcusb6_6tzlint6config6editor20generate_options_def
FN:21,_RNvNtNtCs1t6klNcusb6_6tzlint6config6editor25update_config_with_plugin
FN:36,_RNCNvNtNtCsiGQo9BHC4pH_6tzlint6config6editor25update_config_with_plugin0B7_
FN:49,_RNCNvNtNtCsiGQo9BHC4pH_6tzlint6config6editor25update_config_with_plugins0_0B7_
FN:53,_RNCNvNtNtCsiGQo9BHC4pH_6tzlint6config6editor25update_config_with_plugins1_0B7_
FN:62,_RNCNvNtNtCsiGQo9BHC4pH_6tzlint6config6editor25update_config_with_plugins2_0B7_
FN:71,_RNCNvNtNtCsiGQo9BHC4pH_6tzlint6config6editor25update_config_with_plugins3_0B7_
FN:72,_RNCNvNtNtCsiGQo9BHC4pH_6tzlint6config6editor25update_config_with_plugins4_0B7_
FN:77,_RNCNvNtNtCsiGQo9BHC4pH_6tzlint6config6editor25update_config_with_plugins5_0B7_
FN:102,_RNCNvNtNtCsiGQo9BHC4pH_6tzlint6config6editor25update_config_with_plugins6_0B7_
FN:103,_RNCNvNtNtCsiGQo9BHC4pH_6tzlint6config6editor25update_config_with_plugins7_0B7_
FN:109,_RNCNvNtNtCsiGQo9BHC4pH_6tzlint6config6editor25update_config_with_plugins8_0B7_
FN:162,_RNCNvNtNtCsiGQo9BHC4pH_6tzlint6config6editor25update_config_with_plugins9_0B7_
FN:44,_RNCNvNtNtCsiGQo9BHC4pH_6tzlint6config6editor25update_config_with_plugins_0B7_
FN:318,_RNCNvNtNtNtCsiGQo9BHC4pH_6tzlint6config6editor5testss_54test_update_config_empty_object_adds_rules_and_options0B9_
FN:427,_RNCNvNtNtNtCsiGQo9BHC4pH_6tzlint6config6editor5testss_56test_update_config_existing_both_appends_rule_and_option0B9_
FN:357,_RNCNvNtNtNtCsiGQo9BHC4pH_6tzlint6config6editor5testss_63test_update_config_existing_rules_appends_rule_and_adds_options0B9_
FN:394,_RNCNvNtNtNtCsiGQo9BHC4pH_6tzlint6config6editor5testss_68test_update_config_existing_options_adds_rules_and_preserves_options0B9_
FN:174,_RNvNtNtCsiGQo9BHC4pH_6tzlint6config6editor17generate_rule_def
FN:234,_RNvNtNtCsiGQo9BHC4pH_6tzlint6config6editor20generate_options_def
FN:21,_RNvNtNtCsiGQo9BHC4pH_6tzlint6config6editor25update_config_with_plugin
FN:290,_RNvNtNtNtCsiGQo9BHC4pH_6tzlint6config6editor5tests17create_dummy_spec
FN:254,_RNvNtNtNtCsiGQo9BHC4pH_6tzlint6config6editor5tests21create_dummy_manifest
FN:442,_RNvNtNtNtCsiGQo9BHC4pH_6tzlint6config6editor5testss_34test_update_config_refuses_symlink
FN:303,_RNvNtNtNtCsiGQo9BHC4pH_6tzlint6config6editor5testss_54test_update_config_empty_object_adds_rules_and_options
FN:405,_RNvNtNtNtCsiGQo9BHC4pH_6tzlint6config6editor5testss_56test_update_config_existing_both_appends_rule_and_option
FN:333,_RNvNtNtNtCsiGQo9BHC4pH_6tzlint6config6editor5testss_63test_update_config_existing_rules_appends_rule_and_adds_options
FN:369,_RNvNtNtNtCsiGQo9BHC4pH_6tzlint6config6editor5testss_68test_update_config_existing_options_adds_rules_and_preserves_options
FNDA:2,_RNCNvNtNtCs1t6klNcusb6_6tzlint6config6editor25update_config_with_plugin0B7_
FNDA:0,_RNCNvNtNtCs1t6klNcusb6_6tzlint6config6editor25update_config_with_plugins0_0B7_
FNDA:0,_RNCNvNtNtCs1t6klNcusb6_6tzlint6config6editor25update_config_with_plugins1_0B7_
FNDA:2,_RNCNvNtNtCs1t6klNcusb6_6tzlint6config6editor25update_config_with_plugins2_0B7_
FNDA:2,_RNCNvNtNtCs1t6klNcusb6_6tzlint6config6editor25update_config_with_plugins3_0B7_
FNDA:0,_RNCNvNtNtCs1t6klNcusb6_6tzlint6config6editor25update_config_with_plugins4_0B7_
FNDA:2,_RNCNvNtNtCs1t6klNcusb6_6tzlint6config6editor25update_config_with_plugins5_0B7_
FNDA:1,_RNCNvNtNtCs1t6klNcusb6_6tzlint6config6editor25update_config_with_plugins6_0B7_
FNDA:1,_RNCNvNtNtCs1t6klNcusb6_6tzlint6config6editor25update_config_with_plugins7_0B7_
FNDA:3,_RNCNvNtNtCs1t6klNcusb6_6tzlint6config6editor25update_config_with_plugins8_0B7_
FNDA:2,_RNCNvNtNtCs1t6klNcusb6_6tzlint6config6editor25update_config_with_plugins9_0B7_
FNDA:0,_RNCNvNtNtCs1t6klNcusb6_6tzlint6config6editor25update_config_with_plugins_0B7_
FNDA:2,_RNvNtNtCs1t6klNcusb6_6tzlint6config6editor17generate_rule_def
FNDA:2,_RNvNtNtCs1t6klNcusb6_6tzlint6config6editor20generate_options_def
FNDA:2,_RNvNtNtCs1t6klNcusb6_6tzlint6config6editor25update_config_with_plugin
FNDA:6,_RNCNvNtNtCsiGQo9BHC4pH_6tzlint6config6editor25update_config_with_plugin0B7_
FNDA:0,_RNCNvNtNtCsiGQo9BHC4pH_6tzlint6config6editor25update_config_with_plugins0_0B7_
FNDA:0,_RNCNvNtNtCsiGQo9BHC4pH_6tzlint6config6editor25update_config_with_plugins1_0B7_
FNDA:3,_RNCNvNtNtCsiGQo9BHC4pH_6tzlint6config6editor25update_config_with_plugins2_0B7_
FNDA:5,_RNCNvNtNtCsiGQo9BHC4pH_6tzlint6config6editor25update_config_with_plugins3_0B7_
FNDA:0,_RNCNvNtNtCsiGQo9BHC4pH_6tzlint6config6editor25update_config_with_plugins4_0B7_
FNDA:3,_RNCNvNtNtCsiGQo9BHC4pH_6tzlint6config6editor25update_config_with_plugins5_0B7_
FNDA:3,_RNCNvNtNtCsiGQo9BHC4pH_6tzlint6config6editor25update_config_with_plugins6_0B7_
FNDA:3,_RNCNvNtNtCsiGQo9BHC4pH_6tzlint6config6editor25update_config_with_plugins7_0B7_
FNDA:4,_RNCNvNtNtCsiGQo9BHC4pH_6tzlint6config6editor25update_config_with_plugins8_0B7_
FNDA:4,_RNCNvNtNtCsiGQo9BHC4pH_6tzlint6config6editor25update_config_with_plugins9_0B7_
FNDA:0,_RNCNvNtNtCsiGQo9BHC4pH_6tzlint6config6editor25update_config_with_plugins_0B7_
FNDA:1,_RNCNvNtNtNtCsiGQo9BHC4pH_6tzlint6config6editor5testss_54test_update_config_empty_object_adds_rules_and_options0B9_
FNDA:1,_RNCNvNtNtNtCsiGQo9BHC4pH_6tzlint6config6editor5testss_56test_update_config_existing_both_appends_rule_and_option0B9_
FNDA:2,_RNCNvNtNtNtCsiGQo9BHC4pH_6tzlint6config6editor5testss_63test_update_config_existing_rules_appends_rule_and_adds_options0B9_
FNDA:1,_RNCNvNtNtNtCsiGQo9BHC4pH_6tzlint6config6editor5testss_68test_update_config_existing_options_adds_rules_and_preserves_options0B9_
FNDA:5,_RNvNtNtCsiGQo9BHC4pH_6tzlint6config6editor17generate_rule_def
FNDA:5,_RNvNtNtCsiGQo9BHC4pH_6tzlint6config6editor20generate_options_def
FNDA:6,_RNvNtNtCsiGQo9BHC4pH_6tzlint6config6editor25update_config_with_plugin
FNDA:5,_RNvNtNtNtCsiGQo9BHC4pH_6tzlint6config6editor5tests17create_dummy_spec
FNDA:5,_RNvNtNtNtCsiGQo9BHC4pH_6tzlint6config6editor5tests21create_dummy_manifest
FNDA:1,_RNvNtNtNtCsiGQo9BHC4pH_6tzlint6config6editor5testss_34test_update_config_refuses_symlink
FNDA:1,_RNvNtNtNtCsiGQo9BHC4pH_6tzlint6config6editor5testss_54test_update_config_empty_object_adds_rules_and_options
FNDA:1,_RNvNtNtNtCsiGQo9BHC4pH_6tzlint6config6editor5testss_56test_update_config_existing_both_appends_rule_and_option
FNDA:1,_RNvNtNtNtCsiGQo9BHC4pH_6tzlint6config6editor5testss_63test_update_config_existing_rules_appends_rule_and_adds_options
FNDA:1,_RNvNtNtNtCsiGQo9BHC4pH_6tzlint6config6editor5testss_68test_update_config_existing_options_adds_rules_and_preserves_options
FNF:26
FNH:22
DA:21,8
DA:22,8
DA:23,8
DA:24,8
DA:25,8
DA:26,8
DA:27,8
DA:28,5
DA:29,3
DA:30,2
DA:32,1
DA:33,1
DA:36,8
DA:37,1
DA:38,1
DA:39,1
DA:40,1
DA:41,7
DA:43,7
DA:44,7
DA:46,7
DA:47,7
DA:48,7
DA:49,7
DA:51,7
DA:52,7
DA:53,7
DA:54,7
DA:56,7
DA:58,7
DA:59,7
DA:61,7
DA:62,7
DA:63,5
DA:65,2
DA:68,7
DA:69,7
DA:70,7
DA:71,7
DA:72,7
DA:74,7
DA:76,7
DA:77,6
DA:78,5
DA:79,0
DA:80,5
DA:82,6
DA:83,4
DA:84,4
DA:85,4
DA:86,4
DA:87,4
DA:88,4
DA:89,4
DA:90,4
DA:91,4
DA:93,0
DA:95,2
DA:96,2
DA:97,2
DA:98,1
DA:100,7
DA:101,7
DA:102,7
DA:103,7
DA:104,7
DA:106,7
DA:108,7
DA:109,7
DA:110,7
DA:111,0
DA:112,7
DA:114,6
DA:115,3
DA:116,3
DA:117,3
DA:118,3
DA:119,3
DA:120,3
DA:121,3
DA:122,3
DA:123,3
DA:125,0
DA:126,0
DA:127,0
DA:129,3
DA:130,3
DA:131,3
DA:132,1
DA:134,7
DA:135,7
DA:136,2
DA:137,5
DA:138,7
DA:139,3
DA:140,4
DA:142,7
DA:143,4
DA:144,4
DA:145,4
DA:147,5
DA:148,5
DA:149,5
DA:151,5
DA:152,5
DA:154,5
DA:155,5
DA:156,5
DA:157,5
DA:158,5
DA:160,3
DA:162,7
DA:164,7
DA:165,12
DA:166,12
DA:167,12
DA:169,7
DA:170,7
DA:171,7
DA:172,8
DA:174,7
DA:175,7
DA:176,7
DA:177,7
DA:178,7
DA:181,7
DA:183,4
DA:184,4
DA:185,4
DA:188,4
DA:189,4
DA:190,4
DA:191,4
DA:192,0
DA:193,0
DA:194,0
DA:195,0
DA:196,0
DA:197,0
DA:198,0
DA:200,0
DA:201,0
DA:202,0
DA:203,0
DA:205,4
DA:206,0
DA:207,0
DA:208,0
DA:209,0
DA:210,0
DA:212,4
DA:215,0
DA:216,0
DA:217,0
DA:218,0
DA:219,0
DA:220,0
DA:221,0
DA:223,3
DA:224,3
DA:225,3
DA:226,3
DA:227,3
DA:228,3
DA:229,3
DA:232,7
DA:234,7
DA:235,7
DA:236,4
DA:238,3
DA:241,7
DA:242,7
DA:243,7
DA:244,7
DA:254,5
DA:255,5
DA:256,5
DA:257,5
DA:258,5
DA:259,5
DA:260,5
DA:261,5
DA:262,5
DA:263,5
DA:264,5
DA:265,5
DA:266,5
DA:267,5
DA:268,5
DA:269,5
DA:270,5
DA:271,5
DA:272,5
DA:273,5
DA:274,5
DA:275,5
DA:276,5
DA:277,5
DA:278,5
DA:279,5
DA:280,5
DA:281,5
DA:282,5
DA:283,5
DA:284,5
DA:285,5
DA:286,5
DA:287,5
DA:288,5
DA:290,5
DA:291,5
DA:292,5
DA:293,5
DA:294,5
DA:295,5
DA:296,5
DA:297,5
DA:298,5
DA:299,5
DA:300,5
DA:303,1
DA:304,1
DA:305,1
DA:306,1
DA:308,1
DA:309,1
DA:310,1
DA:312,1
DA:314,1
DA:315,1
DA:317,1
DA:318,1
DA:319,1
DA:320,1
DA:322,0
DA:324,1
DA:326,1
DA:327,1
DA:328,1
DA:329,1
DA:330,1
DA:333,1
DA:334,1
DA:335,1
DA:336,1
DA:338,1
DA:339,1
DA:340,1
DA:347,1
DA:348,1
DA:350,1
DA:352,1
DA:353,1
DA:355,1
DA:356,1
DA:357,2
DA:358,2
DA:359,2
DA:361,0
DA:363,2
DA:365,1
DA:366,1
DA:369,1
DA:370,1
DA:371,1
DA:372,1
DA:374,1
DA:375,1
DA:376,1
DA:383,1
DA:384,1
DA:386,1
DA:388,1
DA:389,1
DA:391,1
DA:392,1
DA:393,1
DA:394,1
DA:395,1
DA:396,1
DA:398,0
DA:400,1
DA:401,1
DA:402,1
DA:405,1
DA:406,1
DA:407,1
DA:408,1
DA:410,1
DA:411,1
DA:412,1
DA:418,1
DA:419,1
DA:421,1
DA:423,1
DA:424,1
DA:426,1
DA:427,1
DA:428,1
DA:429,1
DA:431,0
DA:433,1
DA:434,1
DA:435,1
DA:442,1
DA:445,1
DA:446,1
DA:448,1
DA:450,1
DA:454,1
DA:455,1
DA:457,1
DA:458,1
DA:460,1
DA:461,1
DA:462,1
DA:463,1
DA:465,1
DA:467,1
DA:468,1
DA:469,1
DA:473,1
DA:474,1
BRF:0
BRH:0
LF:339
LH:300
end_of_record
SF:/app/crates/tsuzulint_cli/src/fix.rs
FN:28,_RNCNvNtCs1t6klNcusb6_6tzlint3fix11apply_fixes0B5_
FN:18,_RNvNtCs1t6klNcusb6_6tzlint3fix11apply_fixes
FN:98,_RNvNtCs1t6klNcusb6_6tzlint3fix14print_fix_list
FN:65,_RNvNtCs1t6klNcusb6_6tzlint3fix18output_fix_summary
FN:28,_RNCNvNtCsiGQo9BHC4pH_6tzlint3fix11apply_fixes0B5_
FN:18,_RNvNtCsiGQo9BHC4pH_6tzlint3fix11apply_fixes
FN:98,_RNvNtCsiGQo9BHC4pH_6tzlint3fix14print_fix_list
FN:65,_RNvNtCsiGQo9BHC4pH_6tzlint3fix18output_fix_summary
FNDA:0,_RNCNvNtCs1t6klNcusb6_6tzlint3fix11apply_fixes0B5_
FNDA:2,_RNvNtCs1t6klNcusb6_6tzlint3fix11apply_fixes
FNDA:0,_RNvNtCs1t6klNcusb6_6tzlint3fix14print_fix_list
FNDA:2,_RNvNtCs1t6klNcusb6_6tzlint3fix18output_fix_summary
FNDA:0,_RNCNvNtCsiGQo9BHC4pH_6tzlint3fix11apply_fixes0B5_
FNDA:0,_RNvNtCsiGQo9BHC4pH_6tzlint3fix11apply_fixes
FNDA:0,_RNvNtCsiGQo9BHC4pH_6tzlint3fix14print_fix_list
FNDA:0,_RNvNtCsiGQo9BHC4pH_6tzlint3fix18output_fix_summary
FNF:4
FNH:2
DA:18,2
DA:19,2
DA:20,2
DA:21,2
DA:22,2
DA:24,2
DA:25,2
DA:26,2
DA:27,2
DA:28,2
DA:29,2
DA:31,2
DA:32,2
DA:33,0
DA:35,0
DA:36,0
DA:37,0
DA:38,0
DA:39,0
DA:40,0
DA:41,0
DA:42,0
DA:43,0
DA:44,0
DA:45,0
DA:46,0
DA:48,0
DA:49,0
DA:50,0
DA:56,2
DA:57,2
DA:58,2
DA:59,2
DA:60,2
DA:61,2
DA:62,2
DA:65,2
DA:66,2
DA:67,2
DA:68,1
DA:69,1
DA:70,1
DA:71,1
DA:72,2
DA:73,0
DA:75,0
DA:76,0
DA:77,0
DA:79,0
DA:83,0
DA:85,0
DA:86,0
DA:87,0
DA:88,0
DA:90,0
DA:91,0
DA:92,0
DA:93,0
DA:94,0
DA:95,0
DA:96,2
DA:98,0
DA:99,0
DA:100,0
DA:101,0
DA:102,0
BRF:0
BRH:0
LF:67
LH:29
end_of_record
SF:/app/crates/tsuzulint_cli/src/main.rs
FN:51,_RNvCs1t6klNcusb6_6tzlint3run
FN:21,_RNvCs1t6klNcusb6_6tzlint4main
FN:51,_RNvCsiGQo9BHC4pH_6tzlint3run
FN:21,_RNvCsiGQo9BHC4pH_6tzlint4main
FNDA:32,_RNvCs1t6klNcusb6_6tzlint3run
FNDA:37,_RNvCs1t6klNcusb6_6tzlint4main
FNDA:0,_RNvCsiGQo9BHC4pH_6tzlint3run
FNDA:0,_RNvCsiGQo9BHC4pH_6tzlint4main
FNF:2
FNH:2
DA:21,37
DA:22,37
DA:24,37
DA:25,1
DA:27,36
DA:30,37
DA:31,37
DA:32,37
DA:33,37
DA:34,37
DA:36,37
DA:37,27
DA:38,27
DA:39,0
DA:41,27
DA:44,10
DA:45,10
DA:46,10
DA:49,37
DA:51,32
DA:52,32
DA:54,17
DA:55,17
DA:56,17
DA:57,17
DA:58,17
DA:59,17
DA:60,17
DA:61,17
DA:62,17
DA:63,17
DA:64,17
DA:65,17
DA:66,17
DA:67,17
DA:69,5
DA:70,5
DA:71,2
DA:72,3
DA:73,3
DA:74,3
DA:77,0
DA:78,5
DA:79,1
DA:80,1
DA:83,4
DA:84,4
DA:85,4
DA:86,4
DA:87,4
DA:88,4
DA:89,4
DA:90,4
DA:91,4
DA:92,4
DA:94,4
DA:97,32
BRF:0
BRH:0
LF:57
LH:55
end_of_record
SF:/app/crates/tsuzulint_cli/src/output/json.rs
FN:10,_RINvNtNtCs1t6klNcusb6_6tzlint6output4json14output_json_toNtNtNtCsaa59N1qzrfe_3std2io5stdio6StdoutEB6_
FN:16,_RNCINvNtNtCs1t6klNcusb6_6tzlint6output4json14output_json_toNtNtNtCsaa59N1qzrfe_3std2io5stdio6StdoutE0B8_
FN:6,_RNvNtNtCs1t6klNcusb6_6tzlint6output4json11output_json
FN:10,_RINvNtNtCsiGQo9BHC4pH_6tzlint6output4json14output_json_toQINtNtCsauO83Ko6oyK_5alloc3vec3VechEEB6_
FN:16,_RNCINvNtNtCsiGQo9BHC4pH_6tzlint6output4json14output_json_toQINtNtCsauO83Ko6oyK_5alloc3vec3VechEE0B8_
FN:6,_RNvNtNtCsiGQo9BHC4pH_6tzlint6output4json11output_json
FN:35,_RNvNtNtNtCsiGQo9BHC4pH_6tzlint6output4json5testss_48test_json_output_includes_heuristic_and_metadata
FNDA:1,_RINvNtNtCs1t6klNcusb6_6tzlint6output4json14output_json_toNtNtNtCsaa59N1qzrfe_3std2io5stdio6StdoutEB6_
FNDA:1,_RNCINvNtNtCs1t6klNcusb6_6tzlint6output4json14output_json_toNtNtNtCsaa59N1qzrfe_3std2io5stdio6StdoutE0B8_
FNDA:1,_RNvNtNtCs1t6klNcusb6_6tzlint6output4json11output_json
FNDA:1,_RINvNtNtCsiGQo9BHC4pH_6tzlint6output4json14output_json_toQINtNtCsauO83Ko6oyK_5alloc3vec3VechEEB6_
FNDA:1,_RNCINvNtNtCsiGQo9BHC4pH_6tzlint6output4json14output_json_toQINtNtCsauO83Ko6oyK_5alloc3vec3VechEE0B8_
FNDA:0,_RNvNtNtCsiGQo9BHC4pH_6tzlint6output4json11output_json
FNDA:1,_RNvNtNtNtCsiGQo9BHC4pH_6tzlint6output4json5testss_48test_json_output_includes_heuristic_and_metadata
FNF:4
FNH:4
DA:6,1
DA:7,1
DA:8,1
DA:10,2
DA:11,2
DA:12,2
DA:13,2
DA:14,2
DA:15,2
DA:16,2
DA:17,2
DA:18,2
DA:19,2
DA:21,2
DA:22,2
DA:23,2
DA:24,2
DA:25,2
DA:26,2
DA:35,1
DA:36,1
DA:37,1
DA:38,1
DA:39,1
DA:40,1
DA:41,1
DA:42,1
DA:44,1
DA:46,1
DA:47,1
DA:48,1
DA:49,1
DA:50,1
DA:51,1
DA:53,1
DA:54,1
DA:56,1
DA:57,1
DA:59,1
DA:60,1
DA:61,1
DA:62,1
BRF:0
BRH:0
LF:43
LH:43
end_of_record
SF:/app/crates/tsuzulint_cli/src/output/mod.rs
FN:13,_RNCNvNtCs1t6klNcusb6_6tzlint6output14output_results0B5_
FN:12,_RNvNtCs1t6klNcusb6_6tzlint6output14output_results
FN:13,_RNCNvNtCsiGQo9BHC4pH_6tzlint6output14output_results0B5_
FN:12,_RNvNtCsiGQo9BHC4pH_6tzlint6output14output_results
FNDA:15,_RNCNvNtCs1t6klNcusb6_6tzlint6output14output_results0B5_
FNDA:14,_RNvNtCs1t6klNcusb6_6tzlint6output14output_results
FNDA:0,_RNCNvNtCsiGQo9BHC4pH_6tzlint6output14output_results0B5_
FNDA:0,_RNvNtCsiGQo9BHC4pH_6tzlint6output14output_results
FNF:2
FNH:2
DA:12,14
DA:13,15
DA:15,14
DA:16,1
DA:17,1
DA:18,12
DA:21,14
DA:22,14
BRF:0
BRH:0
LF:9
LH:9
end_of_record
SF:/app/crates/tsuzulint_cli/src/output/sarif.rs
FN:13,_RINvNtNtCs1t6klNcusb6_6tzlint6output5sarif15output_sarif_toINtNtNtNtCsaa59N1qzrfe_3std2io8buffered9bufwriter9BufWriterNtNtB12_5stdio10StdoutLockEEB6_
FN:6,_RNvNtNtCs1t6klNcusb6_6tzlint6output5sarif12output_sarif
FN:6,_RNvNtNtCsiGQo9BHC4pH_6tzlint6output5sarif12output_sarif
FN:13,_RINvNtNtCsiGQo9BHC4pH_6tzlint6output5sarif15output_sarif_toQINtNtCsauO83Ko6oyK_5alloc3vec3VechEEB6_
FN:30,_RNvNtNtNtCsiGQo9BHC4pH_6tzlint6output5sarif5testss_20test_sarif_output_to
FNDA:1,_RINvNtNtCs1t6klNcusb6_6tzlint6output5sarif15output_sarif_toINtNtNtNtCsaa59N1qzrfe_3std2io8buffered9bufwriter9BufWriterNtNtB12_5stdio10StdoutLockEEB6_
FNDA:1,_RNvNtNtCs1t6klNcusb6_6tzlint6output5sarif12output_sarif
FNDA:0,_RNvNtNtCsiGQo9BHC4pH_6tzlint6output5sarif12output_sarif
FNDA:1,_RINvNtNtCsiGQo9BHC4pH_6tzlint6output5sarif15output_sarif_toQINtNtCsauO83Ko6oyK_5alloc3vec3VechEEB6_
FNDA:1,_RNvNtNtNtCsiGQo9BHC4pH_6tzlint6output5sarif5testss_20test_sarif_output_to
FNF:3
FNH:3
DA:6,1
DA:7,1
DA:8,1
DA:9,1
DA:10,1
DA:11,1
DA:13,2
DA:14,2
DA:15,2
DA:16,2
DA:17,2
DA:18,2
DA:19,2
DA:20,2
DA:21,2
DA:30,1
DA:31,1
DA:32,1
DA:33,1
DA:34,1
DA:35,1
DA:36,1
DA:37,1
DA:39,1
DA:41,1
DA:42,1
DA:43,1
DA:44,1
DA:45,1
DA:46,1
DA:48,1
DA:49,1
DA:51,1
DA:52,1
DA:55,1
DA:56,1
DA:57,1
DA:58,1
BRF:0
BRH:0
LF:38
LH:38
end_of_record
SF:/app/crates/tsuzulint_cli/src/output/text.rs
FN:20,_RNvNtNtCs1t6klNcusb6_6tzlint6output4text11output_text
FN:8,_RNvNtNtCs1t6klNcusb6_6tzlint6output4text24count_displayable_issues
FN:25,_RINvNtNtCs1t6klNcusb6_6tzlint6output4text14output_text_toQNtNtNtCsaa59N1qzrfe_3std2io5stdio6StdoutEB6_
FN:74,_RINvNtNtCs1t6klNcusb6_6tzlint6output4text17output_timings_toQQNtNtNtCsaa59N1qzrfe_3std2io5stdio6StdoutEB6_
FN:34,_RNCINvNtNtCs1t6klNcusb6_6tzlint6output4text14output_text_toQNtNtNtCsaa59N1qzrfe_3std2io5stdio6StdoutE0B8_
FN:94,_RNCINvNtNtCs1t6klNcusb6_6tzlint6output4text17output_timings_toQQNtNtNtCsaa59N1qzrfe_3std2io5stdio6StdoutE0B8_
FN:14,_RNCNCNvNtNtCs1t6klNcusb6_6tzlint6output4text24count_displayable_issues00B9_
FN:11,_RNCNvNtNtCs1t6klNcusb6_6tzlint6output4text24count_displayable_issues0B7_
FN:20,_RNvNtNtCsiGQo9BHC4pH_6tzlint6output4text11output_text
FN:8,_RNvNtNtCsiGQo9BHC4pH_6tzlint6output4text24count_displayable_issues
FN:25,_RINvNtNtCsiGQo9BHC4pH_6tzlint6output4text14output_text_toQINtNtCsauO83Ko6oyK_5alloc3vec3VechEEB6_
FN:74,_RINvNtNtCsiGQo9BHC4pH_6tzlint6output4text17output_timings_toQQINtNtCsauO83Ko6oyK_5alloc3vec3VechEEB6_
FN:34,_RNCINvNtNtCsiGQo9BHC4pH_6tzlint6output4text14output_text_toQINtNtCsauO83Ko6oyK_5alloc3vec3VechEE0B8_
FN:94,_RNCINvNtNtCsiGQo9BHC4pH_6tzlint6output4text17output_timings_toQQINtNtCsauO83Ko6oyK_5alloc3vec3VechEE0B8_
FN:14,_RNCNCNvNtNtCsiGQo9BHC4pH_6tzlint6output4text24count_displayable_issues00B9_
FN:11,_RNCNvNtNtCsiGQo9BHC4pH_6tzlint6output4text24count_displayable_issues0B7_
FN:154,_RNvNtNtNtCsiGQo9BHC4pH_6tzlint6output4text5testss_25test_output_text_to_basic
FN:123,_RNvNtNtNtCsiGQo9BHC4pH_6tzlint6output4text5testss_29test_count_displayable_issues
FN:170,_RNvNtNtNtCsiGQo9BHC4pH_6tzlint6output4text5testss_32test_output_text_to_with_timings
FN:193,_RNvNtNtNtCsiGQo9BHC4pH_6tzlint6output4text5testss_36test_output_text_to_with_diagnostics
FNDA:12,_RNvNtNtCs1t6klNcusb6_6tzlint6output4text11output_text
FNDA:12,_RNvNtNtCs1t6klNcusb6_6tzlint6output4text24count_displayable_issues
FNDA:12,_RINvNtNtCs1t6klNcusb6_6tzlint6output4text14output_text_toQNtNtNtCsaa59N1qzrfe_3std2io5stdio6StdoutEB6_
FNDA:1,_RINvNtNtCs1t6klNcusb6_6tzlint6output4text17output_timings_toQQNtNtNtCsaa59N1qzrfe_3std2io5stdio6StdoutEB6_
FNDA:0,_RNCINvNtNtCs1t6klNcusb6_6tzlint6output4text14output_text_toQNtNtNtCsaa59N1qzrfe_3std2io5stdio6StdoutE0B8_
FNDA:0,_RNCINvNtNtCs1t6klNcusb6_6tzlint6output4text17output_timings_toQQNtNtNtCsaa59N1qzrfe_3std2io5stdio6StdoutE0B8_
FNDA:0,_RNCNCNvNtNtCs1t6klNcusb6_6tzlint6output4text24count_displayable_issues00B9_
FNDA:13,_RNCNvNtNtCs1t6klNcusb6_6tzlint6output4text24count_displayable_issues0B7_
FNDA:0,_RNvNtNtCsiGQo9BHC4pH_6tzlint6output4text11output_text
FNDA:4,_RNvNtNtCsiGQo9BHC4pH_6tzlint6output4text24count_displayable_issues
FNDA:3,_RINvNtNtCsiGQo9BHC4pH_6tzlint6output4text14output_text_toQINtNtCsauO83Ko6oyK_5alloc3vec3VechEEB6_
FNDA:1,_RINvNtNtCsiGQo9BHC4pH_6tzlint6output4text17output_timings_toQQINtNtCsauO83Ko6oyK_5alloc3vec3VechEEB6_
FNDA:3,_RNCINvNtNtCsiGQo9BHC4pH_6tzlint6output4text14output_text_toQINtNtCsauO83Ko6oyK_5alloc3vec3VechEE0B8_
FNDA:1,_RNCINvNtNtCsiGQo9BHC4pH_6tzlint6output4text17output_timings_toQQINtNtCsauO83Ko6oyK_5alloc3vec3VechEE0B8_
FNDA:5,_RNCNCNvNtNtCsiGQo9BHC4pH_6tzlint6output4text24count_displayable_issues00B9_
FNDA:4,_RNCNvNtNtCsiGQo9BHC4pH_6tzlint6output4text24count_displayable_issues0B7_
FNDA:1,_RNvNtNtNtCsiGQo9BHC4pH_6tzlint6output4text5testss_25test_output_text_to_basic
FNDA:1,_RNvNtNtNtCsiGQo9BHC4pH_6tzlint6output4text5testss_29test_count_displayable_issues
FNDA:1,_RNvNtNtNtCsiGQo9BHC4pH_6tzlint6output4text5testss_32test_output_text_to_with_timings
FNDA:1,_RNvNtNtNtCsiGQo9BHC4pH_6tzlint6output4text5testss_36test_output_text_to_with_diagnostics
FNF:12
FNH:12
DA:8,16
DA:9,16
DA:10,16
DA:11,17
DA:12,17
DA:13,17
DA:14,17
DA:15,17
DA:16,17
DA:17,16
DA:18,16
DA:20,12
DA:21,12
DA:22,12
DA:23,12
DA:25,15
DA:26,15
DA:27,15
DA:28,15
DA:29,15
DA:30,16
DA:31,16
DA:32,16
DA:33,16
DA:34,16
DA:35,16
DA:37,16
DA:38,15
DA:39,1
DA:41,1
DA:42,3
DA:43,3
DA:44,1
DA:45,1
DA:46,1
DA:48,3
DA:49,3
DA:52,0
DA:56,15
DA:57,15
DA:58,15
DA:60,15
DA:61,15
DA:62,15
DA:65,0
DA:67,15
DA:68,2
DA:69,13
DA:71,15
DA:72,15
DA:74,2
DA:75,2
DA:76,2
DA:77,2
DA:78,2
DA:79,2
DA:81,2
DA:82,2
DA:83,2
DA:84,2
DA:85,2
DA:88,2
DA:89,1
DA:90,1
DA:91,1
DA:93,1
DA:94,1
DA:96,2
DA:97,2
DA:98,2
DA:100,0
DA:102,2
DA:103,2
DA:106,0
DA:108,1
DA:109,1
DA:110,1
DA:112,2
DA:113,2
DA:123,1
DA:124,1
DA:125,1
DA:126,1
DA:127,1
DA:128,1
DA:129,1
DA:131,1
DA:133,1
DA:134,1
DA:135,1
DA:136,1
DA:137,1
DA:138,1
DA:140,1
DA:142,1
DA:143,1
DA:144,1
DA:145,1
DA:146,1
DA:147,1
DA:150,1
DA:151,1
DA:154,1
DA:155,1
DA:156,1
DA:157,1
DA:158,1
DA:159,1
DA:160,1
DA:161,1
DA:163,1
DA:164,1
DA:165,1
DA:166,1
DA:167,1
DA:170,1
DA:171,1
DA:172,1
DA:173,1
DA:174,1
DA:176,1
DA:177,1
DA:178,1
DA:179,1
DA:180,1
DA:181,1
DA:183,1
DA:184,1
DA:185,1
DA:186,1
DA:187,1
DA:188,1
DA:189,1
DA:190,1
DA:193,1
DA:194,1
DA:196,1
DA:197,1
DA:198,1
DA:199,1
DA:200,1
DA:201,1
DA:203,1
DA:205,1
DA:206,1
DA:207,1
DA:208,1
DA:209,1
DA:210,1
DA:212,1
DA:214,1
DA:215,1
DA:216,1
DA:217,1
DA:218,1
DA:219,1
DA:221,1
DA:223,1
DA:224,1
DA:225,1
DA:226,1
DA:227,1
DA:228,1
DA:230,1
DA:231,1
DA:232,1
DA:233,1
DA:234,1
DA:235,1
DA:236,1
DA:237,1
BRF:0
BRH:0
LF:175
LH:170
end_of_record
SF:/app/crates/tsuzulint_cli/src/utils/mod.rs
FN:9,_RNvNtCs1t6klNcusb6_6tzlint5utils20create_tokio_runtime
FN:19,_RNvNtCs1t6klNcusb6_6tzlint5utils25read_to_string_with_limit
FN:9,_RNvNtCsiGQo9BHC4pH_6tzlint5utils20create_tokio_runtime
FN:53,_RNvNtNtCsiGQo9BHC4pH_6tzlint5utils5testss_38test_read_to_string_with_limit_success
FN:80,_RNvNtNtCsiGQo9BHC4pH_6tzlint5utils5testss_42test_read_to_string_with_limit_pseudo_file
FN:63,_RNvNtNtCsiGQo9BHC4pH_6tzlint5utils5testss_53test_read_to_string_with_limit_exceeds_metadata_limit
FN:19,_RNvNtCsiGQo9BHC4pH_6tzlint5utils25read_to_string_with_limit
FNDA:17,_RNvNtCs1t6klNcusb6_6tzlint5utils20create_tokio_runtime
FNDA:2,_RNvNtCs1t6klNcusb6_6tzlint5utils25read_to_string_with_limit
FNDA:0,_RNvNtCsiGQo9BHC4pH_6tzlint5utils20create_tokio_runtime
FNDA:1,_RNvNtNtCsiGQo9BHC4pH_6tzlint5utils5testss_38test_read_to_string_with_limit_success
FNDA:1,_RNvNtNtCsiGQo9BHC4pH_6tzlint5utils5testss_42test_read_to_string_with_limit_pseudo_file
FNDA:1,_RNvNtNtCsiGQo9BHC4pH_6tzlint5utils5testss_53test_read_to_string_with_limit_exceeds_metadata_limit
FNDA:16,_RNvNtCsiGQo9BHC4pH_6tzlint5utils25read_to_string_with_limit
FNF:5
FNH:5
DA:9,17
DA:10,17
DA:11,17
DA:12,17
DA:13,17
DA:14,17
DA:19,18
DA:20,18
DA:21,18
DA:24,18
DA:25,1
DA:26,1
DA:27,1
DA:28,1
DA:29,17
DA:33,17
DA:34,17
DA:36,17
DA:37,1
DA:38,1
DA:39,1
DA:40,1
DA:41,16
DA:43,16
DA:44,18
DA:53,1
DA:54,1
DA:55,1
DA:56,1
DA:58,1
DA:59,1
DA:60,1
DA:63,1
DA:64,1
DA:65,1
DA:66,1
DA:68,1
DA:69,1
DA:70,1
DA:71,1
DA:72,1
DA:73,1
DA:74,1
DA:76,1
DA:80,1
DA:81,1
DA:84,1
DA:85,1
DA:86,1
DA:87,1
DA:88,1
DA:89,1
DA:90,1
DA:92,1
BRF:0
BRH:0
LF:54
LH:54
end_of_record
SF:/app/crates/tsuzulint_core/src/block_extractor.rs
FN:46,_RINvNtCsdHNy3eV5zAX_14tsuzulint_core15block_extractor12visit_blocksNCNvB2_14extract_blocks0EB4_
FN:46,_RINvNtCsdHNy3eV5zAX_14tsuzulint_core15block_extractor12visit_blocksNCNvNtB4_11file_linter18lint_file_internals6_0EB4_
FN:15,_RNCNvNtCsdHNy3eV5zAX_14tsuzulint_core15block_extractor14extract_blocks0B5_
FN:7,_RNvNtCsdHNy3eV5zAX_14tsuzulint_core15block_extractor14extract_blocks
FN:46,_RINvNtCs47f85yxqTTa_14tsuzulint_core15block_extractor12visit_blocksNCNvB2_14extract_blocks0EB4_
FN:46,_RINvNtCs47f85yxqTTa_14tsuzulint_core15block_extractor12visit_blocksNCNvNtB4_11file_linter18lint_file_internals6_0EB4_
FN:15,_RNCNvNtCs47f85yxqTTa_14tsuzulint_core15block_extractor14extract_blocks0B5_
FN:7,_RNvNtCs47f85yxqTTa_14tsuzulint_core15block_extractor14extract_blocks
FN:72,_RNvNtNtCs47f85yxqTTa_14tsuzulint_core15block_extractor5testss_32test_extract_blocks_with_content
FN:63,_RNvNtNtCs47f85yxqTTa_14tsuzulint_core15block_extractor5testss_34test_extract_blocks_empty_document
FN:93,_RNvNtNtCs47f85yxqTTa_14tsuzulint_core15block_extractor5testss_52test_extract_blocks_handles_out_of_bounds_gracefully
FNDA:16,_RINvNtCsdHNy3eV5zAX_14tsuzulint_core15block_extractor12visit_blocksNCNvB2_14extract_blocks0EB4_
FNDA:0,_RINvNtCsdHNy3eV5zAX_14tsuzulint_core15block_extractor12visit_blocksNCNvNtB4_11file_linter18lint_file_internals6_0EB4_
FNDA:54,_RNCNvNtCsdHNy3eV5zAX_14tsuzulint_core15block_extractor14extract_blocks0B5_
FNDA:16,_RNvNtCsdHNy3eV5zAX_14tsuzulint_core15block_extractor14extract_blocks
FNDA:17,_RINvNtCs47f85yxqTTa_14tsuzulint_core15block_extractor12visit_blocksNCNvB2_14extract_blocks0EB4_
FNDA:1,_RINvNtCs47f85yxqTTa_14tsuzulint_core15block_extractor12visit_blocksNCNvNtB4_11file_linter18lint_file_internals6_0EB4_
FNDA:61,_RNCNvNtCs47f85yxqTTa_14tsuzulint_core15block_extractor14extract_blocks0B5_
FNDA:17,_RNvNtCs47f85yxqTTa_14tsuzulint_core15block_extractor14extract_blocks
FNDA:1,_RNvNtNtCs47f85yxqTTa_14tsuzulint_core15block_extractor5testss_32test_extract_blocks_with_content
FNDA:1,_RNvNtNtCs47f85yxqTTa_14tsuzulint_core15block_extractor5testss_34test_extract_blocks_empty_document
FNDA:1,_RNvNtNtCs47f85yxqTTa_14tsuzulint_core15block_extractor5testss_52test_extract_blocks_handles_out_of_bounds_gracefully
FNF:6
FNH:6
DA:7,33
DA:8,33
DA:9,33
DA:11,0
DA:13,33
DA:15,115
DA:16,115
DA:17,115
DA:18,115
DA:20,115
DA:21,114
DA:22,114
DA:24,0
DA:25,0
DA:26,0
DA:29,114
DA:30,114
DA:31,114
DA:32,114
DA:33,114
DA:35,1
DA:38,0
DA:41,115
DA:43,33
DA:44,33
DA:46,34
DA:47,34
DA:48,34
DA:50,34
DA:51,117
DA:52,117
DA:53,117
DA:54,0
DA:55,34
DA:63,1
DA:64,1
DA:65,1
DA:67,1
DA:68,1
DA:69,1
DA:72,1
DA:73,1
DA:74,1
DA:75,1
DA:76,1
DA:77,1
DA:78,1
DA:80,1
DA:81,1
DA:82,1
DA:83,1
DA:86,1
DA:87,1
DA:88,1
DA:89,1
DA:90,1
DA:93,1
DA:94,1
DA:95,1
DA:96,1
DA:97,1
DA:98,1
DA:99,1
DA:101,1
DA:102,1
DA:103,1
DA:104,1
DA:107,1
DA:108,1
DA:109,1
BRF:0
BRH:0
LF:71
LH:65
end_of_record
SF:/app/crates/tsuzulint_core/src/config.rs
FN:177,_RINvMs1_NtCsdHNy3eV5zAX_14tsuzulint_core6configNtB6_12LinterConfig8discoverRNtNtCsaa59N1qzrfe_3std4path7PathBufECsBJS9GT0NqI_13tsuzulint_lsp
FN:205,_RINvMs1_NtCsdHNy3eV5zAX_14tsuzulint_core6configNtB6_12LinterConfig9from_fileRNtNtCsaa59N1qzrfe_3std4path7PathBufECsBJS9GT0NqI_13tsuzulint_lsp
FN:209,_RNCINvMs1_NtCsdHNy3eV5zAX_14tsuzulint_core6configNtB8_12LinterConfig9from_fileRNtNtCsaa59N1qzrfe_3std4path7PathBufE0CsBJS9GT0NqI_13tsuzulint_lsp
FN:232,_RNCINvMs1_NtCsdHNy3eV5zAX_14tsuzulint_core6configNtB8_12LinterConfig9from_fileRNtNtCsaa59N1qzrfe_3std4path7PathBufEs0_0CsBJS9GT0NqI_13tsuzulint_lsp
FN:211,_RNCINvMs1_NtCsdHNy3eV5zAX_14tsuzulint_core6configNtB8_12LinterConfig9from_fileRNtNtCsaa59N1qzrfe_3std4path7PathBufEs_0CsBJS9GT0NqI_13tsuzulint_lsp
FN:291,_RNCNvMs1_NtCsdHNy3eV5zAX_14tsuzulint_core6configNtB7_12LinterConfig13enabled_rules0B9_
FN:292,_RNCNvMs1_NtCsdHNy3eV5zAX_14tsuzulint_core6configNtB7_12LinterConfig13enabled_ruless_0B9_
FN:327,_RNCNvMs1_NtCsdHNy3eV5zAX_14tsuzulint_core6configNtB7_12LinterConfig4hash0B9_
FN:257,_RNCNvMs1_NtCsdHNy3eV5zAX_14tsuzulint_core6configNtB7_12LinterConfig9from_json0B9_
FN:276,_RNCNvMs1_NtCsdHNy3eV5zAX_14tsuzulint_core6configNtB7_12LinterConfig9from_jsons0_0B9_
FN:261,_RNCNvMs1_NtCsdHNy3eV5zAX_14tsuzulint_core6configNtB7_12LinterConfig9from_jsons_0B9_
FN:177,_RINvMs1_NtCsdHNy3eV5zAX_14tsuzulint_core6configNtB6_12LinterConfig8discoverpEB8_
FN:205,_RINvMs1_NtCsdHNy3eV5zAX_14tsuzulint_core6configNtB6_12LinterConfig9from_filepEB8_
FN:209,_RNCINvMs1_NtCsdHNy3eV5zAX_14tsuzulint_core6configNtB8_12LinterConfig9from_filepE0Ba_
FN:232,_RNCINvMs1_NtCsdHNy3eV5zAX_14tsuzulint_core6configNtB8_12LinterConfig9from_filepEs0_0Ba_
FN:211,_RNCINvMs1_NtCsdHNy3eV5zAX_14tsuzulint_core6configNtB8_12LinterConfig9from_filepEs_0Ba_
FN:79,_RNvMNtCsdHNy3eV5zAX_14tsuzulint_core6configNtB2_11CacheConfig10is_enabled
FN:87,_RNvMNtCsdHNy3eV5zAX_14tsuzulint_core6configNtB2_11CacheConfig4path
FN:154,_RNvMs0_NtCsdHNy3eV5zAX_14tsuzulint_core6configNtB5_10RuleOption10is_enabled
FN:163,_RNvMs0_NtCsdHNy3eV5zAX_14tsuzulint_core6configNtB5_10RuleOption7options
FN:301,_RNvMs1_NtCsdHNy3eV5zAX_14tsuzulint_core6configNtB5_12LinterConfig13apply_presets
FN:288,_RNvMs1_NtCsdHNy3eV5zAX_14tsuzulint_core6configNtB5_12LinterConfig13enabled_rules
FN:189,_RNvMs1_NtCsdHNy3eV5zAX_14tsuzulint_core6configNtB5_12LinterConfig3new
FN:325,_RNvMs1_NtCsdHNy3eV5zAX_14tsuzulint_core6configNtB5_12LinterConfig4hash
FN:252,_RNvMs1_NtCsdHNy3eV5zAX_14tsuzulint_core6configNtB5_12LinterConfig9from_json
FN:59,_RNvNtCsdHNy3eV5zAX_14tsuzulint_core6config13default_cache
FN:63,_RNvNtCsdHNy3eV5zAX_14tsuzulint_core6config17default_cache_dir
FN:112,_RNvNtCsdHNy3eV5zAX_14tsuzulint_core6config24default_cache_dir_string
FN:344,_RNvXs2_NtCsdHNy3eV5zAX_14tsuzulint_core6configNtB5_12LinterConfigNtNtCs4kUJL3MZFFz_4core7default7Default7default
FN:96,_RNvXs_NtCsdHNy3eV5zAX_14tsuzulint_core6configNtB4_11CacheConfigNtNtCs4kUJL3MZFFz_4core7default7Default7default
FN:354,_RNvNtNtCs47f85yxqTTa_14tsuzulint_core6config5testss_15test_config_new
FN:434,_RNvNtNtCs47f85yxqTTa_14tsuzulint_core6config5testss_18test_enabled_rules
FN:450,_RNvNtNtCs47f85yxqTTa_14tsuzulint_core6config5testss_19test_config_default
FN:362,_RNvNtNtCs47f85yxqTTa_14tsuzulint_core6config5testss_21test_config_from_json
FN:375,_RNvNtNtCs47f85yxqTTa_14tsuzulint_core6config5testss_22test_config_from_jsonc
FN:390,_RNvNtNtCs47f85yxqTTa_14tsuzulint_core6config5testss_23test_config_rules_array
FN:460,_RNvNtNtCs47f85yxqTTa_14tsuzulint_core6config5testss_23test_rule_option_values
FN:476,_RNvNtNtCs47f85yxqTTa_14tsuzulint_core6config5testss_24test_config_cache_object
FN:421,_RNvNtNtCs47f85yxqTTa_14tsuzulint_core6config5testss_24test_rule_option_enabled
FN:533,_RNvNtNtCs47f85yxqTTa_14tsuzulint_core6config5testss_28test_config_hash_consistency
FN:696,_RNvNtNtCs47f85yxqTTa_14tsuzulint_core6config5testss_29test_config_cache_dir_default
FN:499,_RNvNtNtCs47f85yxqTTa_14tsuzulint_core6config5testss_30test_config_cache_object_empty
FN:584,_RNvNtNtCs47f85yxqTTa_14tsuzulint_core6config5testss_31test_config_from_file_not_found
FN:739,_RNvNtNtCs47f85yxqTTa_14tsuzulint_core6config5testss_31test_config_from_file_too_large
FN:807,_RNvNtNtCs47f85yxqTTa_14tsuzulint_core6config5testss_32test_config_from_file_empty_file
FN:490,_RNvNtNtCs47f85yxqTTa_14tsuzulint_core6config5testss_34test_config_cache_object_path_only
FN:597,_RNvNtNtCs47f85yxqTTa_14tsuzulint_core6config5testss_34test_config_from_file_invalid_json
FN:829,_RNvNtNtCs47f85yxqTTa_14tsuzulint_core6config5testss_34test_config_from_file_invalid_utf8
FN:675,_RNvNtNtCs47f85yxqTTa_14tsuzulint_core6config5testss_34test_rule_option_severity_variants
FN:610,_RNvNtNtCs47f85yxqTTa_14tsuzulint_core6config5testss_35test_config_from_file_jsonc_support
FN:560,_RNvNtNtCs47f85yxqTTa_14tsuzulint_core6config5testss_35test_config_from_file_sets_base_dir
FN:850,_RNvNtNtCs47f85yxqTTa_14tsuzulint_core6config5testss_36test_config_from_file_directory_path
FN:626,_RNvNtNtCs47f85yxqTTa_14tsuzulint_core6config5testss_36test_enabled_rules_excludes_disabled
FN:645,_RNvNtNtCs47f85yxqTTa_14tsuzulint_core6config5testss_36test_rule_definition_detail_equality
FN:762,_RNvNtNtCs47f85yxqTTa_14tsuzulint_core6config5testss_37test_config_from_file_fifo_size_limit
FN:686,_RNvNtNtCs47f85yxqTTa_14tsuzulint_core6config5testss_37test_config_from_json_with_null_value
FN:542,_RNvNtNtCs47f85yxqTTa_14tsuzulint_core6config5testss_37test_config_hash_changes_with_content
FN:870,_RNvNtNtCs47f85yxqTTa_14tsuzulint_core6config5testss_41test_config_from_file_jsonc_only_comments
FN:910,_RNvNtNtCs47f85yxqTTa_14tsuzulint_core6config5testss_41test_config_from_file_one_byte_over_limit
FN:709,_RNvNtNtCs47f85yxqTTa_14tsuzulint_core6config5testss_41test_config_with_complex_rule_definitions
FN:572,_RNvNtNtCs47f85yxqTTa_14tsuzulint_core6config5testss_44test_config_from_file_handles_root_directory
FN:702,_RNvNtNtCs47f85yxqTTa_14tsuzulint_core6config5testss_44test_config_include_exclude_empty_by_default
FN:885,_RNvNtNtCs47f85yxqTTa_14tsuzulint_core6config5testss_45test_config_from_file_exact_max_size_boundary
FN:177,_RINvMs1_NtCs47f85yxqTTa_14tsuzulint_core6configNtB6_12LinterConfig8discoverpEB8_
FN:79,_RNvMNtCs47f85yxqTTa_14tsuzulint_core6configNtB2_11CacheConfig10is_enabled
FN:87,_RNvMNtCs47f85yxqTTa_14tsuzulint_core6configNtB2_11CacheConfig4path
FN:154,_RNvMs0_NtCs47f85yxqTTa_14tsuzulint_core6configNtB5_10RuleOption10is_enabled
FN:163,_RNvMs0_NtCs47f85yxqTTa_14tsuzulint_core6configNtB5_10RuleOption7options
FN:301,_RNvMs1_NtCs47f85yxqTTa_14tsuzulint_core6configNtB5_12LinterConfig13apply_presets
FN:288,_RNvMs1_NtCs47f85yxqTTa_14tsuzulint_core6configNtB5_12LinterConfig13enabled_rules
FN:189,_RNvMs1_NtCs47f85yxqTTa_14tsuzulint_core6configNtB5_12LinterConfig3new
FN:325,_RNvMs1_NtCs47f85yxqTTa_14tsuzulint_core6configNtB5_12LinterConfig4hash
FN:252,_RNvMs1_NtCs47f85yxqTTa_14tsuzulint_core6configNtB5_12LinterConfig9from_json
FN:59,_RNvNtCs47f85yxqTTa_14tsuzulint_core6config13default_cache
FN:63,_RNvNtCs47f85yxqTTa_14tsuzulint_core6config17default_cache_dir
FN:112,_RNvNtCs47f85yxqTTa_14tsuzulint_core6config24default_cache_dir_string
FN:344,_RNvXs2_NtCs47f85yxqTTa_14tsuzulint_core6configNtB5_12LinterConfigNtNtCs4kUJL3MZFFz_4core7default7Default7default
FN:96,_RNvXs_NtCs47f85yxqTTa_14tsuzulint_core6configNtB4_11CacheConfigNtNtCs4kUJL3MZFFz_4core7default7Default7default
FN:639,_RNCNvNtNtCs47f85yxqTTa_14tsuzulint_core6config5testss_36test_enabled_rules_excludes_disabled0B7_
FN:641,_RNCNvNtNtCs47f85yxqTTa_14tsuzulint_core6config5testss_36test_enabled_rules_excludes_disableds0_0B7_
FN:640,_RNCNvNtNtCs47f85yxqTTa_14tsuzulint_core6config5testss_36test_enabled_rules_excludes_disableds_0B7_
FN:781,_RNCNvNtNtCs47f85yxqTTa_14tsuzulint_core6config5testss_37test_config_from_file_fifo_size_limit0B7_
FN:205,_RINvMs1_NtCs47f85yxqTTa_14tsuzulint_core6configNtB6_12LinterConfig9from_fileRNtNtCsaa59N1qzrfe_3std4path7PathBufEB8_
FN:205,_RINvMs1_NtCs47f85yxqTTa_14tsuzulint_core6configNtB6_12LinterConfig9from_fileReEB8_
FN:209,_RNCINvMs1_NtCs47f85yxqTTa_14tsuzulint_core6configNtB8_12LinterConfig9from_fileRNtNtCsaa59N1qzrfe_3std4path7PathBufE0Ba_
FN:232,_RNCINvMs1_NtCs47f85yxqTTa_14tsuzulint_core6configNtB8_12LinterConfig9from_fileRNtNtCsaa59N1qzrfe_3std4path7PathBufEs0_0Ba_
FN:211,_RNCINvMs1_NtCs47f85yxqTTa_14tsuzulint_core6configNtB8_12LinterConfig9from_fileRNtNtCsaa59N1qzrfe_3std4path7PathBufEs_0Ba_
FN:209,_RNCINvMs1_NtCs47f85yxqTTa_14tsuzulint_core6configNtB8_12LinterConfig9from_fileReE0Ba_
FN:232,_RNCINvMs1_NtCs47f85yxqTTa_14tsuzulint_core6configNtB8_12LinterConfig9from_fileReEs0_0Ba_
FN:211,_RNCINvMs1_NtCs47f85yxqTTa_14tsuzulint_core6configNtB8_12LinterConfig9from_fileReEs_0Ba_
FN:291,_RNCNvMs1_NtCs47f85yxqTTa_14tsuzulint_core6configNtB7_12LinterConfig13enabled_rules0B9_
FN:292,_RNCNvMs1_NtCs47f85yxqTTa_14tsuzulint_core6configNtB7_12LinterConfig13enabled_ruless_0B9_
FN:327,_RNCNvMs1_NtCs47f85yxqTTa_14tsuzulint_core6configNtB7_12LinterConfig4hash0B9_
FN:257,_RNCNvMs1_NtCs47f85yxqTTa_14tsuzulint_core6configNtB7_12LinterConfig9from_json0B9_
FN:276,_RNCNvMs1_NtCs47f85yxqTTa_14tsuzulint_core6configNtB7_12LinterConfig9from_jsons0_0B9_
FN:261,_RNCNvMs1_NtCs47f85yxqTTa_14tsuzulint_core6configNtB7_12LinterConfig9from_jsons_0B9_
FN:177,_RINvMs1_NtCsdHNy3eV5zAX_14tsuzulint_core6configNtB6_12LinterConfig8discoverRNtNtCsaa59N1qzrfe_3std4path7PathBufECslSoYyaIRsdV_13tsuzulint_lsp
FN:205,_RINvMs1_NtCsdHNy3eV5zAX_14tsuzulint_core6configNtB6_12LinterConfig9from_fileRNtNtCsaa59N1qzrfe_3std4path7PathBufECslSoYyaIRsdV_13tsuzulint_lsp
FN:209,_RNCINvMs1_NtCsdHNy3eV5zAX_14tsuzulint_core6configNtB8_12LinterConfig9from_fileRNtNtCsaa59N1qzrfe_3std4path7PathBufE0CslSoYyaIRsdV_13tsuzulint_lsp
FN:232,_RNCINvMs1_NtCsdHNy3eV5zAX_14tsuzulint_core6configNtB8_12LinterConfig9from_fileRNtNtCsaa59N1qzrfe_3std4path7PathBufEs0_0CslSoYyaIRsdV_13tsuzulint_lsp
FN:211,_RNCINvMs1_NtCsdHNy3eV5zAX_14tsuzulint_core6configNtB8_12LinterConfig9from_fileRNtNtCsaa59N1qzrfe_3std4path7PathBufEs_0CslSoYyaIRsdV_13tsuzulint_lsp
FN:177,_RINvMs1_NtCsdHNy3eV5zAX_14tsuzulint_core6configNtB6_12LinterConfig8discoverReECs1t6klNcusb6_6tzlint
FN:177,_RINvMs1_NtCsdHNy3eV5zAX_14tsuzulint_core6configNtB6_12LinterConfig8discoverReECsiGQo9BHC4pH_6tzlint
FNDA:1,_RINvMs1_NtCsdHNy3eV5zAX_14tsuzulint_core6configNtB6_12LinterConfig8discoverRNtNtCsaa59N1qzrfe_3std4path7PathBufECsBJS9GT0NqI_13tsuzulint_lsp
FNDA:14,_RINvMs1_NtCsdHNy3eV5zAX_14tsuzulint_core6configNtB6_12LinterConfig9from_fileRNtNtCsaa59N1qzrfe_3std4path7PathBufECsBJS9GT0NqI_13tsuzulint_lsp
FNDA:0,_RNCINvMs1_NtCsdHNy3eV5zAX_14tsuzulint_core6configNtB8_12LinterConfig9from_fileRNtNtCsaa59N1qzrfe_3std4path7PathBufE0CsBJS9GT0NqI_13tsuzulint_lsp
FNDA:0,_RNCINvMs1_NtCsdHNy3eV5zAX_14tsuzulint_core6configNtB8_12LinterConfig9from_fileRNtNtCsaa59N1qzrfe_3std4path7PathBufEs0_0CsBJS9GT0NqI_13tsuzulint_lsp
FNDA:0,_RNCINvMs1_NtCsdHNy3eV5zAX_14tsuzulint_core6configNtB8_12LinterConfig9from_fileRNtNtCsaa59N1qzrfe_3std4path7PathBufEs_0CsBJS9GT0NqI_13tsuzulint_lsp
FNDA:11,_RNCNvMs1_NtCsdHNy3eV5zAX_14tsuzulint_core6configNtB7_12LinterConfig13enabled_rules0B9_
FNDA:11,_RNCNvMs1_NtCsdHNy3eV5zAX_14tsuzulint_core6configNtB7_12LinterConfig13enabled_ruless_0B9_
FNDA:0,_RNCNvMs1_NtCsdHNy3eV5zAX_14tsuzulint_core6configNtB7_12LinterConfig4hash0B9_
FNDA:1,_RNCNvMs1_NtCsdHNy3eV5zAX_14tsuzulint_core6configNtB7_12LinterConfig9from_json0B9_
FNDA:0,_RNCNvMs1_NtCsdHNy3eV5zAX_14tsuzulint_core6configNtB7_12LinterConfig9from_jsons0_0B9_
FNDA:14,_RNCNvMs1_NtCsdHNy3eV5zAX_14tsuzulint_core6configNtB7_12LinterConfig9from_jsons_0B9_
FNDA:0,_RINvMs1_NtCsdHNy3eV5zAX_14tsuzulint_core6configNtB6_12LinterConfig8discoverpEB8_
FNDA:0,_RINvMs1_NtCsdHNy3eV5zAX_14tsuzulint_core6configNtB6_12LinterConfig9from_filepEB8_
FNDA:0,_RNCINvMs1_NtCsdHNy3eV5zAX_14tsuzulint_core6configNtB8_12LinterConfig9from_filepE0Ba_
FNDA:0,_RNCINvMs1_NtCsdHNy3eV5zAX_14tsuzulint_core6configNtB8_12LinterConfig9from_filepEs0_0Ba_
FNDA:0,_RNCINvMs1_NtCsdHNy3eV5zAX_14tsuzulint_core6configNtB8_12LinterConfig9from_filepEs_0Ba_
FNDA:24,_RNvMNtCsdHNy3eV5zAX_14tsuzulint_core6configNtB2_11CacheConfig10is_enabled
FNDA:24,_RNvMNtCsdHNy3eV5zAX_14tsuzulint_core6configNtB2_11CacheConfig4path
FNDA:11,_RNvMs0_NtCsdHNy3eV5zAX_14tsuzulint_core6configNtB5_10RuleOption10is_enabled
FNDA:11,_RNvMs0_NtCsdHNy3eV5zAX_14tsuzulint_core6configNtB5_10RuleOption7options
FNDA:18,_RNvMs1_NtCsdHNy3eV5zAX_14tsuzulint_core6configNtB5_12LinterConfig13apply_presets
FNDA:15,_RNvMs1_NtCsdHNy3eV5zAX_14tsuzulint_core6configNtB5_12LinterConfig13enabled_rules
FNDA:6,_RNvMs1_NtCsdHNy3eV5zAX_14tsuzulint_core6configNtB5_12LinterConfig3new
FNDA:24,_RNvMs1_NtCsdHNy3eV5zAX_14tsuzulint_core6configNtB5_12LinterConfig4hash
FNDA:19,_RNvMs1_NtCsdHNy3eV5zAX_14tsuzulint_core6configNtB5_12LinterConfig9from_json
FNDA:11,_RNvNtCsdHNy3eV5zAX_14tsuzulint_core6config13default_cache
FNDA:24,_RNvNtCsdHNy3eV5zAX_14tsuzulint_core6config17default_cache_dir
FNDA:0,_RNvNtCsdHNy3eV5zAX_14tsuzulint_core6config24default_cache_dir_string
FNDA:1,_RNvXs2_NtCsdHNy3eV5zAX_14tsuzulint_core6configNtB5_12LinterConfigNtNtCs4kUJL3MZFFz_4core7default7Default7default
FNDA:11,_RNvXs_NtCsdHNy3eV5zAX_14tsuzulint_core6configNtB4_11CacheConfigNtNtCs4kUJL3MZFFz_4core7default7Default7default
FNDA:1,_RNvNtNtCs47f85yxqTTa_14tsuzulint_core6config5testss_15test_config_new
FNDA:1,_RNvNtNtCs47f85yxqTTa_14tsuzulint_core6config5testss_18test_enabled_rules
FNDA:1,_RNvNtNtCs47f85yxqTTa_14tsuzulint_core6config5testss_19test_config_default
FNDA:1,_RNvNtNtCs47f85yxqTTa_14tsuzulint_core6config5testss_21test_config_from_json
FNDA:1,_RNvNtNtCs47f85yxqTTa_14tsuzulint_core6config5testss_22test_config_from_jsonc
FNDA:1,_RNvNtNtCs47f85yxqTTa_14tsuzulint_core6config5testss_23test_config_rules_array
FNDA:1,_RNvNtNtCs47f85yxqTTa_14tsuzulint_core6config5testss_23test_rule_option_values
FNDA:1,_RNvNtNtCs47f85yxqTTa_14tsuzulint_core6config5testss_24test_config_cache_object
FNDA:1,_RNvNtNtCs47f85yxqTTa_14tsuzulint_core6config5testss_24test_rule_option_enabled
FNDA:1,_RNvNtNtCs47f85yxqTTa_14tsuzulint_core6config5testss_28test_config_hash_consistency
FNDA:1,_RNvNtNtCs47f85yxqTTa_14tsuzulint_core6config5testss_29test_config_cache_dir_default
FNDA:1,_RNvNtNtCs47f85yxqTTa_14tsuzulint_core6config5testss_30test_config_cache_object_empty
FNDA:1,_RNvNtNtCs47f85yxqTTa_14tsuzulint_core6config5testss_31test_config_from_file_not_found
FNDA:1,_RNvNtNtCs47f85yxqTTa_14tsuzulint_core6config5testss_31test_config_from_file_too_large
FNDA:1,_RNvNtNtCs47f85yxqTTa_14tsuzulint_core6config5testss_32test_config_from_file_empty_file
FNDA:1,_RNvNtNtCs47f85yxqTTa_14tsuzulint_core6config5testss_34test_config_cache_object_path_only
FNDA:1,_RNvNtNtCs47f85yxqTTa_14tsuzulint_core6config5testss_34test_config_from_file_invalid_json
FNDA:1,_RNvNtNtCs47f85yxqTTa_14tsuzulint_core6config5testss_34test_config_from_file_invalid_utf8
FNDA:1,_RNvNtNtCs47f85yxqTTa_14tsuzulint_core6config5testss_34test_rule_option_severity_variants
FNDA:1,_RNvNtNtCs47f85yxqTTa_14tsuzulint_core6config5testss_35test_config_from_file_jsonc_support
FNDA:1,_RNvNtNtCs47f85yxqTTa_14tsuzulint_core6config5testss_35test_config_from_file_sets_base_dir
FNDA:1,_RNvNtNtCs47f85yxqTTa_14tsuzulint_core6config5testss_36test_config_from_file_directory_path
FNDA:1,_RNvNtNtCs47f85yxqTTa_14tsuzulint_core6config5testss_36test_enabled_rules_excludes_disabled
FNDA:1,_RNvNtNtCs47f85yxqTTa_14tsuzulint_core6config5testss_36test_rule_definition_detail_equality
FNDA:1,_RNvNtNtCs47f85yxqTTa_14tsuzulint_core6config5testss_37test_config_from_file_fifo_size_limit
FNDA:1,_RNvNtNtCs47f85yxqTTa_14tsuzulint_core6config5testss_37test_config_from_json_with_null_value
FNDA:1,_RNvNtNtCs47f85yxqTTa_14tsuzulint_core6config5testss_37test_config_hash_changes_with_content
FNDA:1,_RNvNtNtCs47f85yxqTTa_14tsuzulint_core6config5testss_41test_config_from_file_jsonc_only_comments
FNDA:1,_RNvNtNtCs47f85yxqTTa_14tsuzulint_core6config5testss_41test_config_from_file_one_byte_over_limit
FNDA:1,_RNvNtNtCs47f85yxqTTa_14tsuzulint_core6config5testss_41test_config_with_complex_rule_definitions
FNDA:1,_RNvNtNtCs47f85yxqTTa_14tsuzulint_core6config5testss_44test_config_from_file_handles_root_directory
FNDA:1,_RNvNtNtCs47f85yxqTTa_14tsuzulint_core6config5testss_44test_config_include_exclude_empty_by_default
FNDA:1,_RNvNtNtCs47f85yxqTTa_14tsuzulint_core6config5testss_45test_config_from_file_exact_max_size_boundary
FNDA:0,_RINvMs1_NtCs47f85yxqTTa_14tsuzulint_core6configNtB6_12LinterConfig8discoverpEB8_
FNDA:31,_RNvMNtCs47f85yxqTTa_14tsuzulint_core6configNtB2_11CacheConfig10is_enabled
FNDA:29,_RNvMNtCs47f85yxqTTa_14tsuzulint_core6configNtB2_11CacheConfig4path
FNDA:22,_RNvMs0_NtCs47f85yxqTTa_14tsuzulint_core6configNtB5_10RuleOption10is_enabled
FNDA:11,_RNvMs0_NtCs47f85yxqTTa_14tsuzulint_core6configNtB5_10RuleOption7options
FNDA:13,_RNvMs1_NtCs47f85yxqTTa_14tsuzulint_core6configNtB5_12LinterConfig13apply_presets
FNDA:23,_RNvMs1_NtCs47f85yxqTTa_14tsuzulint_core6configNtB5_12LinterConfig13enabled_rules
FNDA:39,_RNvMs1_NtCs47f85yxqTTa_14tsuzulint_core6configNtB5_12LinterConfig3new
FNDA:33,_RNvMs1_NtCs47f85yxqTTa_14tsuzulint_core6configNtB5_12LinterConfig4hash
FNDA:20,_RNvMs1_NtCs47f85yxqTTa_14tsuzulint_core6configNtB5_12LinterConfig9from_json
FNDA:49,_RNvNtCs47f85yxqTTa_14tsuzulint_core6config13default_cache
FNDA:4,_RNvNtCs47f85yxqTTa_14tsuzulint_core6config17default_cache_dir
FNDA:1,_RNvNtCs47f85yxqTTa_14tsuzulint_core6config24default_cache_dir_string
FNDA:1,_RNvXs2_NtCs47f85yxqTTa_14tsuzulint_core6configNtB5_12LinterConfigNtNtCs4kUJL3MZFFz_4core7default7Default7default
FNDA:47,_RNvXs_NtCs47f85yxqTTa_14tsuzulint_core6configNtB4_11CacheConfigNtNtCs4kUJL3MZFFz_4core7default7Default7default
FNDA:1,_RNCNvNtNtCs47f85yxqTTa_14tsuzulint_core6config5testss_36test_enabled_rules_excludes_disabled0B7_
FNDA:1,_RNCNvNtNtCs47f85yxqTTa_14tsuzulint_core6config5testss_36test_enabled_rules_excludes_disableds0_0B7_
FNDA:1,_RNCNvNtNtCs47f85yxqTTa_14tsuzulint_core6config5testss_36test_enabled_rules_excludes_disableds_0B7_
FNDA:1,_RNCNvNtNtCs47f85yxqTTa_14tsuzulint_core6config5testss_37test_config_from_file_fifo_size_limit0B7_
FNDA:12,_RINvMs1_NtCs47f85yxqTTa_14tsuzulint_core6configNtB6_12LinterConfig9from_fileRNtNtCsaa59N1qzrfe_3std4path7PathBufEB8_
FNDA:1,_RINvMs1_NtCs47f85yxqTTa_14tsuzulint_core6configNtB6_12LinterConfig9from_fileReEB8_
FNDA:0,_RNCINvMs1_NtCs47f85yxqTTa_14tsuzulint_core6configNtB8_12LinterConfig9from_fileRNtNtCsaa59N1qzrfe_3std4path7PathBufE0Ba_
FNDA:2,_RNCINvMs1_NtCs47f85yxqTTa_14tsuzulint_core6configNtB8_12LinterConfig9from_fileRNtNtCsaa59N1qzrfe_3std4path7PathBufEs0_0Ba_
FNDA:0,_RNCINvMs1_NtCs47f85yxqTTa_14tsuzulint_core6configNtB8_12LinterConfig9from_fileRNtNtCsaa59N1qzrfe_3std4path7PathBufEs_0Ba_
FNDA:1,_RNCINvMs1_NtCs47f85yxqTTa_14tsuzulint_core6configNtB8_12LinterConfig9from_fileReE0Ba_
FNDA:0,_RNCINvMs1_NtCs47f85yxqTTa_14tsuzulint_core6configNtB8_12LinterConfig9from_fileReEs0_0Ba_
FNDA:0,_RNCINvMs1_NtCs47f85yxqTTa_14tsuzulint_core6configNtB8_12LinterConfig9from_fileReEs_0Ba_
FNDA:14,_RNCNvMs1_NtCs47f85yxqTTa_14tsuzulint_core6configNtB7_12LinterConfig13enabled_rules0B9_
FNDA:11,_RNCNvMs1_NtCs47f85yxqTTa_14tsuzulint_core6configNtB7_12LinterConfig13enabled_ruless_0B9_
FNDA:0,_RNCNvMs1_NtCs47f85yxqTTa_14tsuzulint_core6configNtB7_12LinterConfig4hash0B9_
FNDA:1,_RNCNvMs1_NtCs47f85yxqTTa_14tsuzulint_core6configNtB7_12LinterConfig9from_json0B9_
FNDA:0,_RNCNvMs1_NtCs47f85yxqTTa_14tsuzulint_core6configNtB7_12LinterConfig9from_jsons0_0B9_
FNDA:1,_RNCNvMs1_NtCs47f85yxqTTa_14tsuzulint_core6configNtB7_12LinterConfig9from_jsons_0B9_
FNDA:7,_RINvMs1_NtCsdHNy3eV5zAX_14tsuzulint_core6configNtB6_12LinterConfig8discoverRNtNtCsaa59N1qzrfe_3std4path7PathBufECslSoYyaIRsdV_13tsuzulint_lsp
FNDA:5,_RINvMs1_NtCsdHNy3eV5zAX_14tsuzulint_core6configNtB6_12LinterConfig9from_fileRNtNtCsaa59N1qzrfe_3std4path7PathBufECslSoYyaIRsdV_13tsuzulint_lsp
FNDA:0,_RNCINvMs1_NtCsdHNy3eV5zAX_14tsuzulint_core6configNtB8_12LinterConfig9from_fileRNtNtCsaa59N1qzrfe_3std4path7PathBufE0CslSoYyaIRsdV_13tsuzulint_lsp
FNDA:0,_RNCINvMs1_NtCsdHNy3eV5zAX_14tsuzulint_core6configNtB8_12LinterConfig9from_fileRNtNtCsaa59N1qzrfe_3std4path7PathBufEs0_0CslSoYyaIRsdV_13tsuzulint_lsp
FNDA:0,_RNCINvMs1_NtCsdHNy3eV5zAX_14tsuzulint_core6configNtB8_12LinterConfig9from_fileRNtNtCsaa59N1qzrfe_3std4path7PathBufEs_0CslSoYyaIRsdV_13tsuzulint_lsp
FNDA:17,_RINvMs1_NtCsdHNy3eV5zAX_14tsuzulint_core6configNtB6_12LinterConfig8discoverReECs1t6klNcusb6_6tzlint
FNDA:1,_RINvMs1_NtCsdHNy3eV5zAX_14tsuzulint_core6configNtB6_12LinterConfig8discoverReECsiGQo9BHC4pH_6tzlint
FNF:62
FNH:59
DA:59,60
DA:60,60
DA:61,60
DA:63,28
DA:64,28
DA:65,28
DA:79,55
DA:80,55
DA:81,29
DA:82,26
DA:84,55
DA:87,53
DA:88,53
DA:89,27
DA:90,26
DA:92,53
DA:96,58
DA:97,58
DA:98,58
DA:112,1
DA:113,1
DA:114,1
DA:154,33
DA:155,33
DA:156,25
DA:157,6
DA:158,2
DA:160,33
DA:163,22
DA:164,22
DA:165,20
DA:166,1
DA:167,1
DA:169,22
DA:177,26
DA:178,26
DA:179,39
DA:180,39
DA:181,39
DA:182,19
DA:183,20
DA:185,7
DA:186,26
DA:189,45
DA:190,45
DA:191,45
DA:192,45
DA:193,45
DA:194,45
DA:195,45
DA:196,45
DA:197,45
DA:198,45
DA:199,45
DA:200,45
DA:205,32
DA:206,32
DA:208,32
DA:209,32
DA:211,31
DA:212,0
DA:214,0
DA:217,0
DA:219,31
DA:220,2
DA:221,2
DA:222,2
DA:223,2
DA:224,2
DA:225,29
DA:227,29
DA:228,29
DA:229,29
DA:230,29
DA:231,29
DA:232,29
DA:234,27
DA:235,1
DA:236,1
DA:237,1
DA:238,1
DA:239,26
DA:241,26
DA:244,22
DA:245,22
DA:246,22
DA:248,22
DA:249,32
DA:252,39
DA:255,37
DA:256,39
DA:257,39
DA:258,37
DA:261,37
DA:262,15
DA:263,15
DA:264,15
DA:265,15
DA:267,37
DA:268,6
DA:269,6
DA:270,6
DA:271,6
DA:272,6
DA:273,31
DA:275,31
DA:276,31
DA:281,31
DA:282,31
DA:283,39
DA:288,38
DA:289,38
DA:290,38
DA:291,38
DA:292,38
DA:293,38
DA:294,38
DA:301,31
DA:302,31
DA:303,31
DA:304,0
DA:305,0
DA:306,0
DA:307,0
DA:308,0
DA:310,0
DA:312,0
DA:313,0
DA:314,0
DA:315,0
DA:316,0
DA:317,0
DA:319,0
DA:322,31
DA:325,57
DA:326,57
DA:327,57
DA:335,57
DA:336,57
DA:337,57
DA:338,57
DA:339,57
DA:340,57
DA:344,2
DA:345,2
DA:346,2
DA:354,1
DA:355,1
DA:356,1
DA:357,1
DA:358,1
DA:359,1
DA:362,1
DA:363,1
DA:364,1
DA:365,1
DA:366,1
DA:367,1
DA:368,1
DA:370,1
DA:371,1
DA:372,1
DA:375,1
DA:376,1
DA:377,1
DA:378,1
DA:379,1
DA:380,1
DA:381,1
DA:382,1
DA:383,1
DA:385,1
DA:386,1
DA:387,1
DA:390,1
DA:391,1
DA:392,1
DA:393,1
DA:394,1
DA:395,1
DA:396,1
DA:397,1
DA:398,1
DA:399,1
DA:401,1
DA:402,1
DA:404,1
DA:405,1
DA:406,1
DA:408,0
DA:411,1
DA:412,1
DA:413,1
DA:414,1
DA:416,0
DA:418,1
DA:421,1
DA:422,1
DA:423,1
DA:424,1
DA:425,1
DA:427,1
DA:428,1
DA:429,1
DA:430,1
DA:431,1
DA:434,1
DA:435,1
DA:436,1
DA:437,1
DA:438,1
DA:439,1
DA:440,1
DA:441,1
DA:443,1
DA:444,1
DA:446,1
DA:447,1
DA:450,1
DA:451,1
DA:452,1
DA:453,1
DA:454,1
DA:455,1
DA:456,1
DA:457,1
DA:460,1
DA:461,1
DA:462,1
DA:463,1
DA:465,1
DA:466,1
DA:467,1
DA:469,1
DA:470,1
DA:471,1
DA:476,1
DA:477,1
DA:478,1
DA:479,1
DA:480,1
DA:481,1
DA:482,1
DA:484,1
DA:485,1
DA:486,1
DA:487,1
DA:490,1
DA:492,1
DA:493,1
DA:494,1
DA:495,1
DA:496,1
DA:499,1
DA:501,1
DA:502,1
DA:503,1
DA:504,1
DA:505,1
DA:533,1
DA:534,1
DA:535,1
DA:538,1
DA:539,1
DA:542,1
DA:543,1
DA:544,1
DA:546,1
DA:549,1
DA:552,1
DA:553,1
DA:554,1
DA:555,1
DA:556,1
DA:557,1
DA:560,1
DA:563,1
DA:564,1
DA:565,1
DA:567,1
DA:568,1
DA:569,1
DA:572,1
DA:575,1
DA:576,1
DA:577,1
DA:579,1
DA:580,1
DA:581,1
DA:584,1
DA:585,1
DA:586,1
DA:587,1
DA:588,1
DA:589,1
DA:590,0
DA:594,1
DA:597,1
DA:600,1
DA:601,1
DA:602,1
DA:604,1
DA:605,1
DA:606,1
DA:607,1
DA:610,1
DA:613,1
DA:614,1
DA:615,1
DA:616,1
DA:617,1
DA:618,1
DA:619,1
DA:621,1
DA:622,1
DA:623,1
DA:626,1
DA:627,1
DA:628,1
DA:629,1
DA:630,1
DA:631,1
DA:632,1
DA:633,1
DA:635,1
DA:636,1
DA:638,1
DA:639,1
DA:640,1
DA:641,1
DA:642,1
DA:645,1
DA:646,1
DA:647,1
DA:648,1
DA:649,1
DA:650,1
DA:651,1
DA:652,1
DA:654,1
DA:655,1
DA:656,1
DA:657,1
DA:658,1
DA:659,1
DA:660,1
DA:662,1
DA:663,1
DA:664,1
DA:665,1
DA:666,1
DA:667,1
DA:668,1
DA:670,1
DA:671,1
DA:672,1
DA:675,1
DA:676,1
DA:677,1
DA:678,1
DA:680,1
DA:681,1
DA:682,1
DA:683,1
DA:686,1
DA:687,1
DA:690,1
DA:692,1
DA:693,1
DA:696,1
DA:697,1
DA:698,1
DA:699,1
DA:702,1
DA:703,1
DA:704,1
DA:705,1
DA:706,1
DA:709,1
DA:710,1
DA:711,1
DA:712,1
DA:713,1
DA:714,1
DA:715,1
DA:716,1
DA:717,1
DA:719,1
DA:720,1
DA:723,1
DA:724,1
DA:725,0
DA:729,1
DA:730,1
DA:731,1
DA:732,1
DA:734,0
DA:736,1
DA:739,1
DA:742,1
DA:743,1
DA:746,1
DA:747,1
DA:748,1
DA:750,1
DA:751,1
DA:752,1
DA:753,1
DA:754,1
DA:755,1
DA:756,1
DA:758,1
DA:762,1
DA:766,1
DA:767,1
DA:771,1
DA:772,1
DA:773,1
DA:775,1
DA:777,0
DA:778,1
DA:780,1
DA:781,1
DA:782,1
DA:784,1
DA:785,1
DA:786,1
DA:787,18
DA:788,17
DA:789,0
DA:790,17
DA:791,17
DA:793,0
DA:794,1
DA:796,1
DA:797,1
DA:798,1
DA:799,1
DA:800,1
DA:804,1
DA:807,1
DA:812,1
DA:813,1
DA:814,1
DA:816,1
DA:817,1
DA:819,1
DA:820,1
DA:821,1
DA:822,1
DA:826,1
DA:829,1
DA:833,1
DA:834,1
DA:836,1
DA:838,1
DA:839,1
DA:840,1
DA:841,1
DA:842,1
DA:846,1
DA:850,1
DA:855,1
DA:856,1
DA:858,1
DA:859,1
DA:862,1
DA:863,1
DA:864,1
DA:867,1
DA:870,1
DA:876,1
DA:877,1
DA:878,1
DA:880,1
DA:881,1
DA:882,1
DA:885,1
DA:890,1
DA:891,1
DA:894,1
DA:895,1
DA:896,1
DA:897,1
DA:898,1
DA:899,1
DA:900,1
DA:904,1
DA:905,1
DA:906,1
DA:907,1
DA:910,1
DA:915,1
DA:916,1
DA:917,1
DA:918,1
DA:919,1
DA:921,1
DA:922,1
DA:923,1
DA:924,1
DA:925,1
DA:930,1
DA:931,1
BRF:0
BRH:0
LF:518
LH:490
end_of_record
SF:/app/crates/tsuzulint_core/src/context.rs
FN:36,_RNCNvMNtCsdHNy3eV5zAX_14tsuzulint_core7contextNtB4_8LineInfo9from_line0B6_
FN:379,_RNCNvMs0_NtCsdHNy3eV5zAX_14tsuzulint_core7contextNtB7_11LintContext15build_structure0B9_
FN:435,_RNCNvMs0_NtCsdHNy3eV5zAX_14tsuzulint_core7contextNtB7_11LintContext16is_in_code_block0B9_
FN:319,_RNCNvMs0_NtCsdHNy3eV5zAX_14tsuzulint_core7contextNtB7_11LintContext19byte_offset_to_line0B9_
FN:194,_RNCNvMs_NtCsdHNy3eV5zAX_14tsuzulint_core7contextNtB6_22ContentCharacteristics16should_skip_rule0B8_
FN:137,_RNCNvMs_NtCsdHNy3eV5zAX_14tsuzulint_core7contextNtB6_22ContentCharacteristics7analyze0B8_
FN:137,_RNCNvMs_NtCsdHNy3eV5zAX_14tsuzulint_core7contextNtB6_22ContentCharacteristics7analyzes_0B8_
FN:56,_RNvMNtCsdHNy3eV5zAX_14tsuzulint_core7contextNtB2_8LineInfo13content_start
FN:27,_RNvMNtCsdHNy3eV5zAX_14tsuzulint_core7contextNtB2_8LineInfo9from_line
FN:299,_RNvMs0_NtCsdHNy3eV5zAX_14tsuzulint_core7contextNtB5_11LintContext10line_count
FN:355,_RNvMs0_NtCsdHNy3eV5zAX_14tsuzulint_core7contextNtB5_11LintContext12extract_text
FN:257,_RNvMs0_NtCsdHNy3eV5zAX_14tsuzulint_core7contextNtB5_11LintContext13compute_lines
FN:378,_RNvMs0_NtCsdHNy3eV5zAX_14tsuzulint_core7contextNtB5_11LintContext15build_structure
FN:439,_RNvMs0_NtCsdHNy3eV5zAX_14tsuzulint_core7contextNtB5_11LintContext15characteristics
FN:431,_RNvMs0_NtCsdHNy3eV5zAX_14tsuzulint_core7contextNtB5_11LintContext16is_in_code_block
FN:444,_RNvMs0_NtCsdHNy3eV5zAX_14tsuzulint_core7contextNtB5_11LintContext16should_skip_rule
FN:386,_RNvMs0_NtCsdHNy3eV5zAX_14tsuzulint_core7contextNtB5_11LintContext17collect_structure
FN:314,_RNvMs0_NtCsdHNy3eV5zAX_14tsuzulint_core7contextNtB5_11LintContext19byte_offset_to_line
FN:226,_RNvMs0_NtCsdHNy3eV5zAX_14tsuzulint_core7contextNtB5_11LintContext3new
FN:294,_RNvMs0_NtCsdHNy3eV5zAX_14tsuzulint_core7contextNtB5_11LintContext6source
FN:241,_RNvMs0_NtCsdHNy3eV5zAX_14tsuzulint_core7contextNtB5_11LintContext8with_ast
FN:304,_RNvMs0_NtCsdHNy3eV5zAX_14tsuzulint_core7contextNtB5_11LintContext9line_info
FN:340,_RNvMs0_NtCsdHNy3eV5zAX_14tsuzulint_core7contextNtB5_11LintContext9line_text
FN:252,_RNvMs0_NtCsdHNy3eV5zAX_14tsuzulint_core7contextNtB5_11LintContext9structure
FN:189,_RNvMs_NtCsdHNy3eV5zAX_14tsuzulint_core7contextNtB4_22ContentCharacteristics16should_skip_rule
FN:124,_RNvMs_NtCsdHNy3eV5zAX_14tsuzulint_core7contextNtB4_22ContentCharacteristics7analyze
FN:1118,_RNvNtNtCs47f85yxqTTa_14tsuzulint_core7context29tests_content_characteristicss_16test_detect_html
FN:1086,_RNvNtNtCs47f85yxqTTa_14tsuzulint_core7context29tests_content_characteristicss_18test_detect_images
FN:1106,_RNvNtNtCs47f85yxqTTa_14tsuzulint_core7context29tests_content_characteristicss_18test_detect_tables
FN:1072,_RNvNtNtCs47f85yxqTTa_14tsuzulint_core7context29tests_content_characteristicss_18test_empty_content
FN:1057,_RNvNtNtCs47f85yxqTTa_14tsuzulint_core7context29tests_content_characteristicss_20test_detect_headings
FN:1064,_RNvNtNtCs47f85yxqTTa_14tsuzulint_core7context29tests_content_characteristicss_20test_detect_multiple
FN:1079,_RNvNtNtCs47f85yxqTTa_14tsuzulint_core7context29tests_content_characteristicss_21test_should_skip_rule
FN:1112,_RNvNtNtCs47f85yxqTTa_14tsuzulint_core7context29tests_content_characteristicss_23test_detect_blockquotes
FN:1093,_RNvNtNtCs47f85yxqTTa_14tsuzulint_core7context29tests_content_characteristicss_23test_detect_code_blocks
FN:1140,_RNvNtNtCs47f85yxqTTa_14tsuzulint_core7context29tests_content_characteristicss_23test_detect_inline_code
FN:1100,_RNvNtNtCs47f85yxqTTa_14tsuzulint_core7context29tests_content_characteristicss_25test_detect_indented_code
FN:1178,_RNvNtNtCs47f85yxqTTa_14tsuzulint_core7context29tests_content_characteristicss_25test_detect_ordered_lists
FN:1166,_RNvNtNtCs47f85yxqTTa_14tsuzulint_core7context29tests_content_characteristicss_30test_detect_setext_headings_h1
FN:1172,_RNvNtNtCs47f85yxqTTa_14tsuzulint_core7context29tests_content_characteristicss_30test_detect_setext_headings_h2
FN:1184,_RNvNtNtCs47f85yxqTTa_14tsuzulint_core7context29tests_content_characteristicss_31test_detect_ordered_lists_paren
FN:1124,_RNvNtNtCs47f85yxqTTa_14tsuzulint_core7context29tests_content_characteristicss_33test_lint_context_characteristics
FN:1132,_RNvNtNtCs47f85yxqTTa_14tsuzulint_core7context29tests_content_characteristicss_34test_lint_context_should_skip_rule
FN:1246,_RNvNtNtCs47f85yxqTTa_14tsuzulint_core7context29tests_content_characteristicss_34test_setext_heading_no_mixed_chars
FN:1237,_RNvNtNtCs47f85yxqTTa_14tsuzulint_core7context29tests_content_characteristicss_34test_setext_with_preceding_content
FN:1202,_RNvNtNtCs47f85yxqTTa_14tsuzulint_core7context29tests_content_characteristicss_36test_detect_ordered_lists_multidigit
FN:1190,_RNvNtNtCs47f85yxqTTa_14tsuzulint_core7context29tests_content_characteristicss_36test_should_skip_rule_multiple_types
FN:1217,_RNvNtNtCs47f85yxqTTa_14tsuzulint_core7context29tests_content_characteristicss_37test_should_skip_rule_code_pascalcase
FN:1228,_RNvNtNtCs47f85yxqTTa_14tsuzulint_core7context29tests_content_characteristicss_38test_no_false_positive_horizontal_rule
FN:1148,_RNvNtNtCs47f85yxqTTa_14tsuzulint_core7context29tests_content_characteristicss_39test_should_skip_rule_code_vs_codeblock
FN:1211,_RNvNtNtCs47f85yxqTTa_14tsuzulint_core7context29tests_content_characteristicss_42test_detect_ordered_lists_multidigit_paren
FN:1256,_RNvNtNtCs47f85yxqTTa_14tsuzulint_core7context29tests_content_characteristicss_46test_should_skip_rule_with_ast_canonical_names
FN:56,_RNvMNtCs47f85yxqTTa_14tsuzulint_core7contextNtB2_8LineInfo13content_start
FN:27,_RNvMNtCs47f85yxqTTa_14tsuzulint_core7contextNtB2_8LineInfo9from_line
FN:299,_RNvMs0_NtCs47f85yxqTTa_14tsuzulint_core7contextNtB5_11LintContext10line_count
FN:355,_RNvMs0_NtCs47f85yxqTTa_14tsuzulint_core7contextNtB5_11LintContext12extract_text
FN:257,_RNvMs0_NtCs47f85yxqTTa_14tsuzulint_core7contextNtB5_11LintContext13compute_lines
FN:378,_RNvMs0_NtCs47f85yxqTTa_14tsuzulint_core7contextNtB5_11LintContext15build_structure
FN:439,_RNvMs0_NtCs47f85yxqTTa_14tsuzulint_core7contextNtB5_11LintContext15characteristics
FN:431,_RNvMs0_NtCs47f85yxqTTa_14tsuzulint_core7contextNtB5_11LintContext16is_in_code_block
FN:444,_RNvMs0_NtCs47f85yxqTTa_14tsuzulint_core7contextNtB5_11LintContext16should_skip_rule
FN:386,_RNvMs0_NtCs47f85yxqTTa_14tsuzulint_core7contextNtB5_11LintContext17collect_structure
FN:314,_RNvMs0_NtCs47f85yxqTTa_14tsuzulint_core7contextNtB5_11LintContext19byte_offset_to_line
FN:226,_RNvMs0_NtCs47f85yxqTTa_14tsuzulint_core7contextNtB5_11LintContext3new
FN:294,_RNvMs0_NtCs47f85yxqTTa_14tsuzulint_core7contextNtB5_11LintContext6source
FN:241,_RNvMs0_NtCs47f85yxqTTa_14tsuzulint_core7contextNtB5_11LintContext8with_ast
FN:304,_RNvMs0_NtCs47f85yxqTTa_14tsuzulint_core7contextNtB5_11LintContext9line_info
FN:340,_RNvMs0_NtCs47f85yxqTTa_14tsuzulint_core7contextNtB5_11LintContext9line_text
FN:252,_RNvMs0_NtCs47f85yxqTTa_14tsuzulint_core7contextNtB5_11LintContext9structure
FN:189,_RNvMs_NtCs47f85yxqTTa_14tsuzulint_core7contextNtB4_22ContentCharacteristics16should_skip_rule
FN:124,_RNvMs_NtCs47f85yxqTTa_14tsuzulint_core7contextNtB4_22ContentCharacteristics7analyze
FN:36,_RNCNvMNtCs47f85yxqTTa_14tsuzulint_core7contextNtB4_8LineInfo9from_line0B6_
FN:379,_RNCNvMs0_NtCs47f85yxqTTa_14tsuzulint_core7contextNtB7_11LintContext15build_structure0B9_
FN:435,_RNCNvMs0_NtCs47f85yxqTTa_14tsuzulint_core7contextNtB7_11LintContext16is_in_code_block0B9_
FN:319,_RNCNvMs0_NtCs47f85yxqTTa_14tsuzulint_core7contextNtB7_11LintContext19byte_offset_to_line0B9_
FN:194,_RNCNvMs_NtCs47f85yxqTTa_14tsuzulint_core7contextNtB6_22ContentCharacteristics16should_skip_rule0B8_
FN:137,_RNCNvMs_NtCs47f85yxqTTa_14tsuzulint_core7contextNtB6_22ContentCharacteristics7analyze0B8_
FN:137,_RNCNvMs_NtCs47f85yxqTTa_14tsuzulint_core7contextNtB6_22ContentCharacteristics7analyzes_0B8_
FN:650,_RNvNtNtCs47f85yxqTTa_14tsuzulint_core7context5tests14make_link_node
FN:637,_RNvNtNtCs47f85yxqTTa_14tsuzulint_core7context5tests16make_header_node
FN:664,_RNvNtNtCs47f85yxqTTa_14tsuzulint_core7context5tests20make_code_block_node
FN:675,_RNvNtNtCs47f85yxqTTa_14tsuzulint_core7context5tests21make_inline_code_node
FN:548,_RNvNtNtCs47f85yxqTTa_14tsuzulint_core7context5testss_14test_line_text
FN:593,_RNvNtNtCs47f85yxqTTa_14tsuzulint_core7context5testss_17test_mixed_indent
FN:565,_RNvNtNtCs47f85yxqTTa_14tsuzulint_core7context5testss_18test_content_start
FN:587,_RNvNtNtCs47f85yxqTTa_14tsuzulint_core7context5testss_18test_multiple_tabs
FN:986,_RNvNtNtCs47f85yxqTTa_14tsuzulint_core7context5testss_18test_only_newlines
FN:905,_RNvNtNtCs47f85yxqTTa_14tsuzulint_core7context5testss_18test_trailing_crlf
FN:619,_RNvNtNtCs47f85yxqTTa_14tsuzulint_core7context5testss_19test_line_info_zero
FN:472,_RNvNtNtCs47f85yxqTTa_14tsuzulint_core7context5testss_20test_line_info_blank
FN:967,_RNvNtNtCs47f85yxqTTa_14tsuzulint_core7context5testss_20test_source_accessor
FN:810,_RNvNtNtCs47f85yxqTTa_14tsuzulint_core7context5testss_21test_is_in_code_block
FN:454,_RNvNtNtCs47f85yxqTTa_14tsuzulint_core7context5testss_21test_line_info_simple
FN:914,_RNvNtNtCs47f85yxqTTa_14tsuzulint_core7context5testss_21test_trailing_cr_only
FN:580,_RNvNtNtCs47f85yxqTTa_14tsuzulint_core7context5testss_22test_line_info_with_cr
FN:606,_RNvNtNtCs47f85yxqTTa_14tsuzulint_core7context5testss_22test_lint_context_crlf
FN:463,_RNvNtNtCs47f85yxqTTa_14tsuzulint_core7context5testss_23test_line_info_indented
FN:495,_RNvNtNtCs47f85yxqTTa_14tsuzulint_core7context5testss_23test_lint_context_empty
FN:625,_RNvNtNtCs47f85yxqTTa_14tsuzulint_core7context5testss_24test_line_info_multibyte
FN:792,_RNvNtNtCs47f85yxqTTa_14tsuzulint_core7context5testss_24test_structure_is_cached
FN:885,_RNvNtNtCs47f85yxqTTa_14tsuzulint_core7context5testss_25test_cr_only_line_endings
FN:489,_RNvNtNtCs47f85yxqTTa_14tsuzulint_core7context5testss_25test_line_info_tab_indent
FN:951,_RNvNtNtCs47f85yxqTTa_14tsuzulint_core7context5testss_27test_line_text_crlf_content
FN:571,_RNvNtNtCs47f85yxqTTa_14tsuzulint_core7context5testss_29test_content_start_tab_indent
FN:501,_RNvNtNtCs47f85yxqTTa_14tsuzulint_core7context5testss_29test_lint_context_single_line
FN:973,_RNvNtNtCs47f85yxqTTa_14tsuzulint_core7context5testss_29test_with_ast_source_accessor
FN:536,_RNvNtNtCs47f85yxqTTa_14tsuzulint_core7context5testss_30test_byte_offset_to_line_empty
FN:481,_RNvNtNtCs47f85yxqTTa_14tsuzulint_core7context5testss_30test_line_info_whitespace_only
FN:524,_RNvNtNtCs47f85yxqTTa_14tsuzulint_core7context5testss_31test_byte_offset_to_line_simple
FN:943,_RNvNtNtCs47f85yxqTTa_14tsuzulint_core7context5testss_32test_line_text_blank_middle_line
FN:509,_RNvNtNtCs47f85yxqTTa_14tsuzulint_core7context5testss_32test_lint_context_multiple_lines
FN:858,_RNvNtNtCs47f85yxqTTa_14tsuzulint_core7context5testss_32test_nested_structure_collection
FN:599,_RNvNtNtCs47f85yxqTTa_14tsuzulint_core7context5testss_34test_lint_context_trailing_newline
FN:996,_RNvNtNtCs47f85yxqTTa_14tsuzulint_core7context5testss_35test_extract_text_from_nested_nodes
FN:558,_RNvNtNtCs47f85yxqTTa_14tsuzulint_core7context5testss_36test_line_text_with_trailing_newline
FN:837,_RNvNtNtCs47f85yxqTTa_14tsuzulint_core7context5testss_37test_is_in_code_block_multiple_blocks
FN:893,_RNvNtNtCs47f85yxqTTa_14tsuzulint_core7context5testss_37test_multiple_consecutive_blank_lines
FN:958,_RNvNtNtCs47f85yxqTTa_14tsuzulint_core7context5testss_38test_byte_offset_to_line_at_source_end
FN:542,_RNvNtNtCs47f85yxqTTa_14tsuzulint_core7context5testss_38test_byte_offset_to_line_out_of_bounds
FN:922,_RNvNtNtCs47f85yxqTTa_14tsuzulint_core7context5testss_40test_byte_offset_to_line_at_newline_char
FN:932,_RNvNtNtCs47f85yxqTTa_14tsuzulint_core7context5testss_40test_byte_offset_to_line_crlf_at_newline
FN:782,_RNvNtNtCs47f85yxqTTa_14tsuzulint_core7context5testss_40test_structure_without_ast_returns_empty
FN:736,_RNvNtNtCs47f85yxqTTa_14tsuzulint_core7context5testss_41test_with_ast_builds_structure_from_image
FN:710,_RNvNtNtCs47f85yxqTTa_14tsuzulint_core7context5testss_41test_with_ast_builds_structure_from_links
FN:1026,_RNvNtNtCs47f85yxqTTa_14tsuzulint_core7context5testss_42test_extract_text_from_deeply_nested_nodes
FN:684,_RNvNtNtCs47f85yxqTTa_14tsuzulint_core7context5testss_44test_with_ast_builds_structure_from_headings
FN:759,_RNvNtNtCs47f85yxqTTa_14tsuzulint_core7context5testss_47test_with_ast_builds_structure_from_code_blocks
FNDA:0,_RNCNvMNtCsdHNy3eV5zAX_14tsuzulint_core7contextNtB4_8LineInfo9from_line0B6_
FNDA:0,_RNCNvMs0_NtCsdHNy3eV5zAX_14tsuzulint_core7contextNtB7_11LintContext15build_structure0B9_
FNDA:0,_RNCNvMs0_NtCsdHNy3eV5zAX_14tsuzulint_core7contextNtB7_11LintContext16is_in_code_block0B9_
FNDA:0,_RNCNvMs0_NtCsdHNy3eV5zAX_14tsuzulint_core7contextNtB7_11LintContext19byte_offset_to_line0B9_
FNDA:0,_RNCNvMs_NtCsdHNy3eV5zAX_14tsuzulint_core7contextNtB6_22ContentCharacteristics16should_skip_rule0B8_
FNDA:0,_RNCNvMs_NtCsdHNy3eV5zAX_14tsuzulint_core7contextNtB6_22ContentCharacteristics7analyze0B8_
FNDA:0,_RNCNvMs_NtCsdHNy3eV5zAX_14tsuzulint_core7contextNtB6_22ContentCharacteristics7analyzes_0B8_
FNDA:0,_RNvMNtCsdHNy3eV5zAX_14tsuzulint_core7contextNtB2_8LineInfo13content_start
FNDA:0,_RNvMNtCsdHNy3eV5zAX_14tsuzulint_core7contextNtB2_8LineInfo9from_line
FNDA:0,_RNvMs0_NtCsdHNy3eV5zAX_14tsuzulint_core7contextNtB5_11LintContext10line_count
FNDA:0,_RNvMs0_NtCsdHNy3eV5zAX_14tsuzulint_core7contextNtB5_11LintContext12extract_text
FNDA:0,_RNvMs0_NtCsdHNy3eV5zAX_14tsuzulint_core7contextNtB5_11LintContext13compute_lines
FNDA:0,_RNvMs0_NtCsdHNy3eV5zAX_14tsuzulint_core7contextNtB5_11LintContext15build_structure
FNDA:0,_RNvMs0_NtCsdHNy3eV5zAX_14tsuzulint_core7contextNtB5_11LintContext15characteristics
FNDA:0,_RNvMs0_NtCsdHNy3eV5zAX_14tsuzulint_core7contextNtB5_11LintContext16is_in_code_block
FNDA:0,_RNvMs0_NtCsdHNy3eV5zAX_14tsuzulint_core7contextNtB5_11LintContext16should_skip_rule
FNDA:0,_RNvMs0_NtCsdHNy3eV5zAX_14tsuzulint_core7contextNtB5_11LintContext17collect_structure
FNDA:0,_RNvMs0_NtCsdHNy3eV5zAX_14tsuzulint_core7contextNtB5_11LintContext19byte_offset_to_line
FNDA:0,_RNvMs0_NtCsdHNy3eV5zAX_14tsuzulint_core7contextNtB5_11LintContext3new
FNDA:0,_RNvMs0_NtCsdHNy3eV5zAX_14tsuzulint_core7contextNtB5_11LintContext6source
FNDA:0,_RNvMs0_NtCsdHNy3eV5zAX_14tsuzulint_core7contextNtB5_11LintContext8with_ast
FNDA:0,_RNvMs0_NtCsdHNy3eV5zAX_14tsuzulint_core7contextNtB5_11LintContext9line_info
FNDA:0,_RNvMs0_NtCsdHNy3eV5zAX_14tsuzulint_core7contextNtB5_11LintContext9line_text
FNDA:0,_RNvMs0_NtCsdHNy3eV5zAX_14tsuzulint_core7contextNtB5_11LintContext9structure
FNDA:0,_RNvMs_NtCsdHNy3eV5zAX_14tsuzulint_core7contextNtB4_22ContentCharacteristics16should_skip_rule
FNDA:0,_RNvMs_NtCsdHNy3eV5zAX_14tsuzulint_core7contextNtB4_22ContentCharacteristics7analyze
FNDA:1,_RNvNtNtCs47f85yxqTTa_14tsuzulint_core7context29tests_content_characteristicss_16test_detect_html
FNDA:1,_RNvNtNtCs47f85yxqTTa_14tsuzulint_core7context29tests_content_characteristicss_18test_detect_images
FNDA:1,_RNvNtNtCs47f85yxqTTa_14tsuzulint_core7context29tests_content_characteristicss_18test_detect_tables
FNDA:1,_RNvNtNtCs47f85yxqTTa_14tsuzulint_core7context29tests_content_characteristicss_18test_empty_content
FNDA:1,_RNvNtNtCs47f85yxqTTa_14tsuzulint_core7context29tests_content_characteristicss_20test_detect_headings
FNDA:1,_RNvNtNtCs47f85yxqTTa_14tsuzulint_core7context29tests_content_characteristicss_20test_detect_multiple
FNDA:1,_RNvNtNtCs47f85yxqTTa_14tsuzulint_core7context29tests_content_characteristicss_21test_should_skip_rule
FNDA:1,_RNvNtNtCs47f85yxqTTa_14tsuzulint_core7context29tests_content_characteristicss_23test_detect_blockquotes
FNDA:1,_RNvNtNtCs47f85yxqTTa_14tsuzulint_core7context29tests_content_characteristicss_23test_detect_code_blocks
FNDA:1,_RNvNtNtCs47f85yxqTTa_14tsuzulint_core7context29tests_content_characteristicss_23test_detect_inline_code
FNDA:1,_RNvNtNtCs47f85yxqTTa_14tsuzulint_core7context29tests_content_characteristicss_25test_detect_indented_code
FNDA:1,_RNvNtNtCs47f85yxqTTa_14tsuzulint_core7context29tests_content_characteristicss_25test_detect_ordered_lists
FNDA:1,_RNvNtNtCs47f85yxqTTa_14tsuzulint_core7context29tests_content_characteristicss_30test_detect_setext_headings_h1
FNDA:1,_RNvNtNtCs47f85yxqTTa_14tsuzulint_core7context29tests_content_characteristicss_30test_detect_setext_headings_h2
FNDA:1,_RNvNtNtCs47f85yxqTTa_14tsuzulint_core7context29tests_content_characteristicss_31test_detect_ordered_lists_paren
FNDA:1,_RNvNtNtCs47f85yxqTTa_14tsuzulint_core7context29tests_content_characteristicss_33test_lint_context_characteristics
FNDA:1,_RNvNtNtCs47f85yxqTTa_14tsuzulint_core7context29tests_content_characteristicss_34test_lint_context_should_skip_rule
FNDA:1,_RNvNtNtCs47f85yxqTTa_14tsuzulint_core7context29tests_content_characteristicss_34test_setext_heading_no_mixed_chars
FNDA:1,_RNvNtNtCs47f85yxqTTa_14tsuzulint_core7context29tests_content_characteristicss_34test_setext_with_preceding_content
FNDA:1,_RNvNtNtCs47f85yxqTTa_14tsuzulint_core7context29tests_content_characteristicss_36test_detect_ordered_lists_multidigit
FNDA:1,_RNvNtNtCs47f85yxqTTa_14tsuzulint_core7context29tests_content_characteristicss_36test_should_skip_rule_multiple_types
FNDA:1,_RNvNtNtCs47f85yxqTTa_14tsuzulint_core7context29tests_content_characteristicss_37test_should_skip_rule_code_pascalcase
FNDA:1,_RNvNtNtCs47f85yxqTTa_14tsuzulint_core7context29tests_content_characteristicss_38test_no_false_positive_horizontal_rule
FNDA:1,_RNvNtNtCs47f85yxqTTa_14tsuzulint_core7context29tests_content_characteristicss_39test_should_skip_rule_code_vs_codeblock
FNDA:1,_RNvNtNtCs47f85yxqTTa_14tsuzulint_core7context29tests_content_characteristicss_42test_detect_ordered_lists_multidigit_paren
FNDA:1,_RNvNtNtCs47f85yxqTTa_14tsuzulint_core7context29tests_content_characteristicss_46test_should_skip_rule_with_ast_canonical_names
FNDA:2,_RNvMNtCs47f85yxqTTa_14tsuzulint_core7contextNtB2_8LineInfo13content_start
FNDA:69,_RNvMNtCs47f85yxqTTa_14tsuzulint_core7contextNtB2_8LineInfo9from_line
FNDA:12,_RNvMs0_NtCs47f85yxqTTa_14tsuzulint_core7contextNtB5_11LintContext10line_count
FNDA:5,_RNvMs0_NtCs47f85yxqTTa_14tsuzulint_core7contextNtB5_11LintContext12extract_text
FNDA:37,_RNvMs0_NtCs47f85yxqTTa_14tsuzulint_core7contextNtB5_11LintContext13compute_lines
FNDA:11,_RNvMs0_NtCs47f85yxqTTa_14tsuzulint_core7contextNtB5_11LintContext15build_structure
FNDA:3,_RNvMs0_NtCs47f85yxqTTa_14tsuzulint_core7contextNtB5_11LintContext15characteristics
FNDA:8,_RNvMs0_NtCs47f85yxqTTa_14tsuzulint_core7contextNtB5_11LintContext16is_in_code_block
FNDA:3,_RNvMs0_NtCs47f85yxqTTa_14tsuzulint_core7contextNtB5_11LintContext16should_skip_rule
FNDA:135,_RNvMs0_NtCs47f85yxqTTa_14tsuzulint_core7contextNtB5_11LintContext17collect_structure
FNDA:17,_RNvMs0_NtCs47f85yxqTTa_14tsuzulint_core7contextNtB5_11LintContext19byte_offset_to_line
FNDA:37,_RNvMs0_NtCs47f85yxqTTa_14tsuzulint_core7contextNtB5_11LintContext3new
FNDA:2,_RNvMs0_NtCs47f85yxqTTa_14tsuzulint_core7contextNtB5_11LintContext6source
FNDA:11,_RNvMs0_NtCs47f85yxqTTa_14tsuzulint_core7contextNtB5_11LintContext8with_ast
FNDA:42,_RNvMs0_NtCs47f85yxqTTa_14tsuzulint_core7contextNtB5_11LintContext9line_info
FNDA:19,_RNvMs0_NtCs47f85yxqTTa_14tsuzulint_core7contextNtB5_11LintContext9line_text
FNDA:12,_RNvMs0_NtCs47f85yxqTTa_14tsuzulint_core7contextNtB5_11LintContext9structure
FNDA:22,_RNvMs_NtCs47f85yxqTTa_14tsuzulint_core7contextNtB4_22ContentCharacteristics16should_skip_rule
FNDA:64,_RNvMs_NtCs47f85yxqTTa_14tsuzulint_core7contextNtB4_22ContentCharacteristics7analyze
FNDA:27,_RNCNvMNtCs47f85yxqTTa_14tsuzulint_core7contextNtB4_8LineInfo9from_line0B6_
FNDA:11,_RNCNvMs0_NtCs47f85yxqTTa_14tsuzulint_core7contextNtB7_11LintContext15build_structure0B9_
FNDA:13,_RNCNvMs0_NtCs47f85yxqTTa_14tsuzulint_core7contextNtB7_11LintContext16is_in_code_block0B9_
FNDA:29,_RNCNvMs0_NtCs47f85yxqTTa_14tsuzulint_core7contextNtB7_11LintContext19byte_offset_to_line0B9_
FNDA:22,_RNCNvMs_NtCs47f85yxqTTa_14tsuzulint_core7contextNtB6_22ContentCharacteristics16should_skip_rule0B8_
FNDA:43,_RNCNvMs_NtCs47f85yxqTTa_14tsuzulint_core7contextNtB6_22ContentCharacteristics7analyze0B8_
FNDA:33,_RNCNvMs_NtCs47f85yxqTTa_14tsuzulint_core7contextNtB6_22ContentCharacteristics7analyzes_0B8_
FNDA:1,_RNvNtNtCs47f85yxqTTa_14tsuzulint_core7context5tests14make_link_node
FNDA:4,_RNvNtNtCs47f85yxqTTa_14tsuzulint_core7context5tests16make_header_node
FNDA:4,_RNvNtNtCs47f85yxqTTa_14tsuzulint_core7context5tests20make_code_block_node
FNDA:2,_RNvNtNtCs47f85yxqTTa_14tsuzulint_core7context5tests21make_inline_code_node
FNDA:1,_RNvNtNtCs47f85yxqTTa_14tsuzulint_core7context5testss_14test_line_text
FNDA:1,_RNvNtNtCs47f85yxqTTa_14tsuzulint_core7context5testss_17test_mixed_indent
FNDA:1,_RNvNtNtCs47f85yxqTTa_14tsuzulint_core7context5testss_18test_content_start
FNDA:1,_RNvNtNtCs47f85yxqTTa_14tsuzulint_core7context5testss_18test_multiple_tabs
FNDA:1,_RNvNtNtCs47f85yxqTTa_14tsuzulint_core7context5testss_18test_only_newlines
FNDA:1,_RNvNtNtCs47f85yxqTTa_14tsuzulint_core7context5testss_18test_trailing_crlf
FNDA:1,_RNvNtNtCs47f85yxqTTa_14tsuzulint_core7context5testss_19test_line_info_zero
FNDA:1,_RNvNtNtCs47f85yxqTTa_14tsuzulint_core7context5testss_20test_line_info_blank
FNDA:1,_RNvNtNtCs47f85yxqTTa_14tsuzulint_core7context5testss_20test_source_accessor
FNDA:1,_RNvNtNtCs47f85yxqTTa_14tsuzulint_core7context5testss_21test_is_in_code_block
FNDA:1,_RNvNtNtCs47f85yxqTTa_14tsuzulint_core7context5testss_21test_line_info_simple
FNDA:1,_RNvNtNtCs47f85yxqTTa_14tsuzulint_core7context5testss_21test_trailing_cr_only
FNDA:1,_RNvNtNtCs47f85yxqTTa_14tsuzulint_core7context5testss_22test_line_info_with_cr
FNDA:1,_RNvNtNtCs47f85yxqTTa_14tsuzulint_core7context5testss_22test_lint_context_crlf
FNDA:1,_RNvNtNtCs47f85yxqTTa_14tsuzulint_core7context5testss_23test_line_info_indented
FNDA:1,_RNvNtNtCs47f85yxqTTa_14tsuzulint_core7context5testss_23test_lint_context_empty
FNDA:1,_RNvNtNtCs47f85yxqTTa_14tsuzulint_core7context5testss_24test_line_info_multibyte
FNDA:1,_RNvNtNtCs47f85yxqTTa_14tsuzulint_core7context5testss_24test_structure_is_cached
FNDA:1,_RNvNtNtCs47f85yxqTTa_14tsuzulint_core7context5testss_25test_cr_only_line_endings
FNDA:1,_RNvNtNtCs47f85yxqTTa_14tsuzulint_core7context5testss_25test_line_info_tab_indent
FNDA:1,_RNvNtNtCs47f85yxqTTa_14tsuzulint_core7context5testss_27test_line_text_crlf_content
FNDA:1,_RNvNtNtCs47f85yxqTTa_14tsuzulint_core7context5testss_29test_content_start_tab_indent
FNDA:1,_RNvNtNtCs47f85yxqTTa_14tsuzulint_core7context5testss_29test_lint_context_single_line
FNDA:1,_RNvNtNtCs47f85yxqTTa_14tsuzulint_core7context5testss_29test_with_ast_source_accessor
FNDA:1,_RNvNtNtCs47f85yxqTTa_14tsuzulint_core7context5testss_30test_byte_offset_to_line_empty
FNDA:1,_RNvNtNtCs47f85yxqTTa_14tsuzulint_core7context5testss_30test_line_info_whitespace_only
FNDA:1,_RNvNtNtCs47f85yxqTTa_14tsuzulint_core7context5testss_31test_byte_offset_to_line_simple
FNDA:1,_RNvNtNtCs47f85yxqTTa_14tsuzulint_core7context5testss_32test_line_text_blank_middle_line
FNDA:1,_RNvNtNtCs47f85yxqTTa_14tsuzulint_core7context5testss_32test_lint_context_multiple_lines
FNDA:1,_RNvNtNtCs47f85yxqTTa_14tsuzulint_core7context5testss_32test_nested_structure_collection
FNDA:1,_RNvNtNtCs47f85yxqTTa_14tsuzulint_core7context5testss_34test_lint_context_trailing_newline
FNDA:1,_RNvNtNtCs47f85yxqTTa_14tsuzulint_core7context5testss_35test_extract_text_from_nested_nodes
FNDA:1,_RNvNtNtCs47f85yxqTTa_14tsuzulint_core7context5testss_36test_line_text_with_trailing_newline
FNDA:1,_RNvNtNtCs47f85yxqTTa_14tsuzulint_core7context5testss_37test_is_in_code_block_multiple_blocks
FNDA:1,_RNvNtNtCs47f85yxqTTa_14tsuzulint_core7context5testss_37test_multiple_consecutive_blank_lines
FNDA:1,_RNvNtNtCs47f85yxqTTa_14tsuzulint_core7context5testss_38test_byte_offset_to_line_at_source_end
FNDA:1,_RNvNtNtCs47f85yxqTTa_14tsuzulint_core7context5testss_38test_byte_offset_to_line_out_of_bounds
FNDA:1,_RNvNtNtCs47f85yxqTTa_14tsuzulint_core7context5testss_40test_byte_offset_to_line_at_newline_char
FNDA:1,_RNvNtNtCs47f85yxqTTa_14tsuzulint_core7context5testss_40test_byte_offset_to_line_crlf_at_newline
FNDA:1,_RNvNtNtCs47f85yxqTTa_14tsuzulint_core7context5testss_40test_structure_without_ast_returns_empty
FNDA:1,_RNvNtNtCs47f85yxqTTa_14tsuzulint_core7context5testss_41test_with_ast_builds_structure_from_image
FNDA:1,_RNvNtNtCs47f85yxqTTa_14tsuzulint_core7context5testss_41test_with_ast_builds_structure_from_links
FNDA:1,_RNvNtNtCs47f85yxqTTa_14tsuzulint_core7context5testss_42test_extract_text_from_deeply_nested_nodes
FNDA:1,_RNvNtNtCs47f85yxqTTa_14tsuzulint_core7context5testss_44test_with_ast_builds_structure_from_headings
FNDA:1,_RNvNtNtCs47f85yxqTTa_14tsuzulint_core7context5testss_47test_with_ast_builds_structure_from_code_blocks
FNF:101
FNH:101
DA:27,69
DA:28,69
DA:29,69
DA:30,69
DA:31,69
DA:32,9
DA:34,60
DA:35,60
DA:36,60
DA:37,27
DA:38,5
DA:40,22
DA:42,27
DA:43,60
DA:46,69
DA:47,69
DA:48,69
DA:49,69
DA:50,69
DA:51,69
DA:52,69
DA:53,69
DA:56,2
DA:57,2
DA:58,2
DA:124,64
DA:125,64
DA:126,64
DA:128,111
DA:129,111
DA:131,111
DA:132,8
DA:133,103
DA:134,111
DA:135,94
DA:136,32
DA:137,43
DA:138,3
DA:139,3
DA:140,108
DA:141,111
DA:142,3
DA:143,108
DA:144,111
DA:145,2
DA:146,109
DA:147,111
DA:148,8
DA:149,103
DA:150,6
DA:151,97
DA:152,111
DA:153,2
DA:154,109
DA:155,111
DA:156,5
DA:157,106
DA:158,100
DA:159,100
DA:160,95
DA:161,6
DA:162,89
DA:163,4
DA:164,4
DA:166,85
DA:169,6
DA:170,111
DA:171,1
DA:172,110
DA:173,111
DA:174,2
DA:175,109
DA:176,111
DA:177,1
DA:178,110
DA:179,111
DA:182,64
DA:183,64
DA:189,22
DA:190,22
DA:191,1
DA:192,21
DA:194,22
DA:195,22
DA:196,16
DA:197,16
DA:198,16
DA:199,12
DA:200,5
DA:201,4
DA:202,3
DA:203,1
DA:204,1
DA:205,22
DA:206,22
DA:226,37
DA:227,37
DA:228,37
DA:229,37
DA:230,37
DA:231,37
DA:232,37
DA:233,37
DA:234,37
DA:235,37
DA:241,11
DA:242,11
DA:243,11
DA:244,11
DA:245,11
DA:252,12
DA:253,12
DA:254,12
DA:257,37
DA:258,37
DA:259,37
DA:261,59
DA:262,59
DA:263,59
DA:264,59
DA:265,59
DA:266,29
DA:267,29
DA:268,5
DA:269,24
DA:270,24
DA:271,24
DA:272,30
DA:275,37
DA:276,5
DA:278,5
DA:279,5
DA:280,5
DA:281,5
DA:282,5
DA:283,5
DA:284,5
DA:285,5
DA:286,5
DA:287,5
DA:288,32
DA:290,37
DA:291,37
DA:294,2
DA:295,2
DA:296,2
DA:299,12
DA:300,12
DA:301,12
DA:304,42
DA:305,42
DA:306,1
DA:307,41
DA:308,41
DA:309,42
DA:314,17
DA:315,17
DA:316,1
DA:317,16
DA:319,29
DA:321,16
DA:322,0
DA:323,16
DA:325,16
DA:326,16
DA:328,16
DA:329,3
DA:330,2
DA:332,16
DA:333,14
DA:335,2
DA:337,17
DA:340,19
DA:341,19
DA:342,18
DA:343,15
DA:344,1
DA:346,14
DA:349,3
DA:351,18
DA:352,19
DA:355,5
DA:356,5
DA:357,5
DA:358,17
DA:359,12
DA:360,6
DA:361,6
DA:362,12
DA:364,5
DA:365,5
DA:378,11
DA:379,11
DA:380,11
DA:381,11
DA:382,11
DA:383,11
DA:384,11
DA:386,135
DA:387,135
DA:388,5
DA:389,5
DA:390,5
DA:391,5
DA:392,5
DA:393,5
DA:394,5
DA:395,5
DA:396,5
DA:397,2
DA:398,2
DA:399,2
DA:400,2
DA:401,2
DA:402,2
DA:403,2
DA:404,2
DA:405,2
DA:406,2
DA:407,4
DA:408,4
DA:409,4
DA:410,4
DA:411,4
DA:412,4
DA:413,4
DA:414,4
DA:415,2
DA:416,2
DA:417,2
DA:418,2
DA:419,2
DA:420,2
DA:421,2
DA:422,122
DA:425,135
DA:426,124
DA:427,124
DA:428,135
DA:431,8
DA:432,8
DA:433,8
DA:434,8
DA:435,13
DA:436,8
DA:439,3
DA:440,3
DA:441,3
DA:444,3
DA:445,3
DA:446,3
DA:454,1
DA:455,1
DA:456,1
DA:457,1
DA:458,1
DA:459,1
DA:460,1
DA:463,1
DA:464,1
DA:465,1
DA:466,1
DA:467,1
DA:468,1
DA:469,1
DA:472,1
DA:473,1
DA:474,1
DA:475,1
DA:476,1
DA:477,1
DA:478,1
DA:481,1
DA:482,1
DA:483,1
DA:484,1
DA:485,1
DA:486,1
DA:489,1
DA:490,1
DA:491,1
DA:492,1
DA:495,1
DA:496,1
DA:497,1
DA:498,1
DA:501,1
DA:502,1
DA:503,1
DA:504,1
DA:505,1
DA:506,1
DA:509,1
DA:510,1
DA:511,1
DA:513,1
DA:514,1
DA:516,1
DA:517,1
DA:519,1
DA:520,1
DA:521,1
DA:524,1
DA:525,1
DA:527,1
DA:528,1
DA:529,1
DA:530,1
DA:531,1
DA:532,1
DA:533,1
DA:536,1
DA:537,1
DA:538,1
DA:539,1
DA:542,1
DA:543,1
DA:544,1
DA:545,1
DA:548,1
DA:549,1
DA:551,1
DA:552,1
DA:553,1
DA:554,1
DA:555,1
DA:558,1
DA:559,1
DA:560,1
DA:561,1
DA:562,1
DA:565,1
DA:566,1
DA:567,1
DA:568,1
DA:571,1
DA:573,1
DA:574,1
DA:575,1
DA:576,1
DA:577,1
DA:580,1
DA:581,1
DA:582,1
DA:583,1
DA:584,1
DA:587,1
DA:588,1
DA:589,1
DA:590,1
DA:593,1
DA:594,1
DA:595,1
DA:596,1
DA:599,1
DA:600,1
DA:601,1
DA:602,1
DA:603,1
DA:606,1
DA:607,1
DA:608,1
DA:609,1
DA:610,1
DA:612,1
DA:613,1
DA:614,1
DA:615,1
DA:616,1
DA:619,1
DA:620,1
DA:621,1
DA:622,1
DA:625,1
DA:626,1
DA:627,1
DA:628,1
DA:629,1
DA:630,1
DA:631,1
DA:637,4
DA:638,4
DA:639,4
DA:640,4
DA:641,4
DA:642,4
DA:643,4
DA:644,4
DA:645,4
DA:646,4
DA:647,4
DA:648,4
DA:650,1
DA:651,1
DA:652,1
DA:653,1
DA:654,1
DA:655,1
DA:656,1
DA:657,1
DA:658,1
DA:659,1
DA:660,1
DA:661,1
DA:662,1
DA:664,4
DA:665,4
DA:666,4
DA:667,4
DA:668,4
DA:669,4
DA:670,4
DA:671,4
DA:672,4
DA:673,4
DA:675,2
DA:676,2
DA:677,2
DA:678,2
DA:679,2
DA:680,2
DA:681,2
DA:684,1
DA:689,1
DA:690,1
DA:691,1
DA:692,1
DA:693,1
DA:694,1
DA:695,1
DA:696,1
DA:699,1
DA:700,1
DA:702,1
DA:703,1
DA:704,1
DA:705,1
DA:706,1
DA:707,1
DA:710,1
DA:711,1
DA:712,1
DA:713,1
DA:714,1
DA:715,1
DA:716,1
DA:717,1
DA:719,1
DA:720,1
DA:721,1
DA:722,1
DA:723,1
DA:726,1
DA:727,1
DA:729,1
DA:730,1
DA:731,1
DA:732,1
DA:733,1
DA:736,1
DA:737,1
DA:738,1
DA:739,1
DA:740,1
DA:741,1
DA:742,1
DA:743,1
DA:744,1
DA:745,1
DA:746,1
DA:747,1
DA:750,1
DA:751,1
DA:753,1
DA:754,1
DA:755,1
DA:756,1
DA:759,1
DA:760,1
DA:761,1
DA:762,1
DA:763,1
DA:764,1
DA:765,1
DA:766,1
DA:767,1
DA:770,1
DA:771,1
DA:772,1
DA:774,1
DA:775,1
DA:776,1
DA:777,1
DA:778,1
DA:779,1
DA:782,1
DA:783,1
DA:784,1
DA:786,1
DA:787,1
DA:788,1
DA:789,1
DA:792,1
DA:793,1
DA:794,1
DA:795,1
DA:796,1
DA:797,1
DA:798,1
DA:799,1
DA:802,1
DA:803,1
DA:804,1
DA:806,1
DA:807,1
DA:810,1
DA:811,1
DA:812,1
DA:813,1
DA:814,1
DA:815,1
DA:816,1
DA:817,1
DA:818,1
DA:821,1
DA:822,1
DA:823,1
DA:826,1
DA:827,1
DA:829,1
DA:831,1
DA:833,1
DA:834,1
DA:837,1
DA:838,1
DA:839,1
DA:840,1
DA:841,1
DA:842,1
DA:843,1
DA:844,1
DA:845,1
DA:848,1
DA:849,1
DA:850,1
DA:852,1
DA:853,1
DA:854,1
DA:855,1
DA:858,1
DA:860,1
DA:861,1
DA:862,1
DA:863,1
DA:864,1
DA:865,1
DA:866,1
DA:868,1
DA:869,1
DA:870,1
DA:871,1
DA:872,1
DA:875,1
DA:876,1
DA:878,1
DA:879,1
DA:880,1
DA:885,1
DA:888,1
DA:889,1
DA:890,1
DA:893,1
DA:894,1
DA:895,1
DA:896,1
DA:897,1
DA:898,1
DA:899,1
DA:900,1
DA:901,1
DA:902,1
DA:905,1
DA:906,1
DA:907,1
DA:908,1
DA:910,1
DA:911,1
DA:914,1
DA:916,1
DA:917,1
DA:918,1
DA:919,1
DA:922,1
DA:924,1
DA:926,1
DA:928,1
DA:929,1
DA:932,1
DA:934,1
DA:935,1
DA:936,1
DA:937,1
DA:938,1
DA:939,1
DA:940,1
DA:943,1
DA:944,1
DA:945,1
DA:946,1
DA:947,1
DA:948,1
DA:951,1
DA:952,1
DA:953,1
DA:954,1
DA:955,1
DA:958,1
DA:959,1
DA:961,1
DA:963,1
DA:964,1
DA:967,1
DA:968,1
DA:969,1
DA:970,1
DA:973,1
DA:974,1
DA:975,1
DA:976,1
DA:977,1
DA:978,1
DA:980,1
DA:981,1
DA:982,1
DA:983,1
DA:986,1
DA:987,1
DA:989,1
DA:990,1
DA:991,1
DA:992,1
DA:993,1
DA:996,1
DA:997,1
DA:998,1
DA:999,1
DA:1000,1
DA:1001,1
DA:1002,1
DA:1003,1
DA:1004,1
DA:1006,1
DA:1007,1
DA:1008,1
DA:1009,1
DA:1011,1
DA:1012,1
DA:1013,1
DA:1014,1
DA:1015,1
DA:1018,1
DA:1019,1
DA:1021,1
DA:1022,1
DA:1023,1
DA:1026,1
DA:1027,1
DA:1028,1
DA:1030,1
DA:1031,1
DA:1032,100
DA:1033,100
DA:1034,100
DA:1035,100
DA:1036,100
DA:1037,100
DA:1039,1
DA:1040,1
DA:1041,1
DA:1042,1
DA:1043,1
DA:1046,1
DA:1047,1
DA:1048,1
DA:1049,1
DA:1057,1
DA:1058,1
DA:1059,1
DA:1060,1
DA:1061,1
DA:1064,1
DA:1065,1
DA:1066,1
DA:1067,1
DA:1068,1
DA:1069,1
DA:1072,1
DA:1073,1
DA:1074,1
DA:1075,1
DA:1076,1
DA:1079,1
DA:1080,1
DA:1081,1
DA:1082,1
DA:1083,1
DA:1086,1
DA:1087,1
DA:1088,1
DA:1089,1
DA:1090,1
DA:1093,1
DA:1094,1
DA:1095,1
DA:1096,1
DA:1097,1
DA:1100,1
DA:1101,1
DA:1102,1
DA:1103,1
DA:1106,1
DA:1107,1
DA:1108,1
DA:1109,1
DA:1112,1
DA:1113,1
DA:1114,1
DA:1115,1
DA:1118,1
DA:1119,1
DA:1120,1
DA:1121,1
DA:1124,1
DA:1125,1
DA:1126,1
DA:1127,1
DA:1128,1
DA:1129,1
DA:1132,1
DA:1133,1
DA:1134,1
DA:1135,1
DA:1136,1
DA:1137,1
DA:1140,1
DA:1141,1
DA:1142,1
DA:1143,1
DA:1144,1
DA:1145,1
DA:1148,1
DA:1150,1
DA:1151,1
DA:1152,1
DA:1155,1
DA:1156,1
DA:1157,1
DA:1160,1
DA:1161,1
DA:1162,1
DA:1163,1
DA:1166,1
DA:1167,1
DA:1168,1
DA:1169,1
DA:1172,1
DA:1173,1
DA:1174,1
DA:1175,1
DA:1178,1
DA:1179,1
DA:1180,1
DA:1181,1
DA:1184,1
DA:1185,1
DA:1186,1
DA:1187,1
DA:1190,1
DA:1191,1
DA:1194,1
DA:1195,1
DA:1198,1
DA:1199,1
DA:1202,1
DA:1203,1
DA:1204,1
DA:1205,1
DA:1208,1
DA:1211,1
DA:1212,1
DA:1213,1
DA:1214,1
DA:1217,1
DA:1218,1
DA:1219,1
DA:1220,1
DA:1222,1
DA:1223,1
DA:1224,1
DA:1225,1
DA:1228,1
DA:1229,1
DA:1230,1
DA:1231,1
DA:1234,1
DA:1237,1
DA:1238,1
DA:1239,1
DA:1240,1
DA:1243,1
DA:1246,1
DA:1248,1
DA:1249,1
DA:1250,1
DA:1253,1
DA:1256,1
DA:1258,1
DA:1261,1
DA:1262,1
DA:1266,1
DA:1267,1
DA:1272,1
DA:1273,1
DA:1277,1
DA:1278,1
DA:1281,1
BRF:0
BRH:0
LF:833
LH:832
end_of_record
SF:/app/crates/tsuzulint_core/src/diagnostic_dist.rs
FN:15,_RNvNtCsdHNy3eV5zAX_14tsuzulint_core15diagnostic_dist22distribute_diagnostics
FN:38,_RNCNvNtCsdHNy3eV5zAX_14tsuzulint_core15diagnostic_dist22distribute_diagnosticss0_0B5_
FN:23,_RNCNvNtCsdHNy3eV5zAX_14tsuzulint_core15diagnostic_dist22distribute_diagnosticss1_0B5_
FN:31,_RNCNvNtCsdHNy3eV5zAX_14tsuzulint_core15diagnostic_dist22distribute_diagnosticss_0B5_
FN:15,_RNvNtCs47f85yxqTTa_14tsuzulint_core15diagnostic_dist22distribute_diagnostics
FN:38,_RNCNvNtCs47f85yxqTTa_14tsuzulint_core15diagnostic_dist22distribute_diagnosticss0_0B5_
FN:23,_RNCNvNtCs47f85yxqTTa_14tsuzulint_core15diagnostic_dist22distribute_diagnosticss1_0B5_
FN:31,_RNCNvNtCs47f85yxqTTa_14tsuzulint_core15diagnostic_dist22distribute_diagnosticss_0B5_
FN:87,_RNvNtNtCs47f85yxqTTa_14tsuzulint_core15diagnostic_dist5tests10make_block
FN:74,_RNvNtNtCs47f85yxqTTa_14tsuzulint_core15diagnostic_dist5tests9make_diag
FN:96,_RNvNtNtCs47f85yxqTTa_14tsuzulint_core15diagnostic_dist5testss_33test_distribute_diagnostics_basic
FN:142,_RNvNtNtCs47f85yxqTTa_14tsuzulint_core15diagnostic_dist5testss_36test_distribute_diagnostics_boundary
FN:121,_RNvNtNtCs47f85yxqTTa_14tsuzulint_core15diagnostic_dist5testss_41test_distribute_diagnostics_filter_global
FNDA:16,_RNvNtCsdHNy3eV5zAX_14tsuzulint_core15diagnostic_dist22distribute_diagnostics
FNDA:54,_RNCNvNtCsdHNy3eV5zAX_14tsuzulint_core15diagnostic_dist22distribute_diagnosticss0_0B5_
FNDA:0,_RNCNvNtCsdHNy3eV5zAX_14tsuzulint_core15diagnostic_dist22distribute_diagnosticss1_0B5_
FNDA:0,_RNCNvNtCsdHNy3eV5zAX_14tsuzulint_core15diagnostic_dist22distribute_diagnosticss_0B5_
FNDA:17,_RNvNtCs47f85yxqTTa_14tsuzulint_core15diagnostic_dist22distribute_diagnostics
FNDA:64,_RNCNvNtCs47f85yxqTTa_14tsuzulint_core15diagnostic_dist22distribute_diagnosticss0_0B5_
FNDA:5,_RNCNvNtCs47f85yxqTTa_14tsuzulint_core15diagnostic_dist22distribute_diagnosticss1_0B5_
FNDA:9,_RNCNvNtCs47f85yxqTTa_14tsuzulint_core15diagnostic_dist22distribute_diagnosticss_0B5_
FNDA:5,_RNvNtNtCs47f85yxqTTa_14tsuzulint_core15diagnostic_dist5tests10make_block
FNDA:8,_RNvNtNtCs47f85yxqTTa_14tsuzulint_core15diagnostic_dist5tests9make_diag
FNDA:1,_RNvNtNtCs47f85yxqTTa_14tsuzulint_core15diagnostic_dist5testss_33test_distribute_diagnostics_basic
FNDA:1,_RNvNtNtCs47f85yxqTTa_14tsuzulint_core15diagnostic_dist5testss_36test_distribute_diagnostics_boundary
FNDA:1,_RNvNtNtCs47f85yxqTTa_14tsuzulint_core15diagnostic_dist5testss_41test_distribute_diagnostics_filter_global
FNF:9
FNH:9
DA:15,33
DA:16,33
DA:17,33
DA:18,33
DA:19,33
DA:20,33
DA:21,33
DA:22,33
DA:23,33
DA:27,33
DA:29,33
DA:30,33
DA:31,33
DA:32,33
DA:34,33
DA:36,33
DA:37,33
DA:38,118
DA:39,121
DA:40,10
DA:41,3
DA:42,3
DA:43,3
DA:45,118
DA:46,118
DA:48,123
DA:49,9
DA:51,9
DA:52,4
DA:53,5
DA:55,5
DA:56,4
DA:57,4
DA:59,5
DA:62,118
DA:63,118
DA:64,118
DA:65,33
DA:66,33
DA:74,8
DA:75,8
DA:76,8
DA:77,8
DA:78,8
DA:79,8
DA:80,8
DA:81,8
DA:82,8
DA:83,8
DA:84,8
DA:85,8
DA:87,5
DA:88,5
DA:89,5
DA:90,5
DA:91,5
DA:92,5
DA:93,5
DA:96,1
DA:97,1
DA:99,1
DA:100,1
DA:101,1
DA:103,1
DA:104,1
DA:105,1
DA:106,1
DA:108,1
DA:109,1
DA:111,1
DA:113,1
DA:114,1
DA:115,1
DA:116,1
DA:117,1
DA:118,1
DA:121,1
DA:122,1
DA:123,1
DA:124,1
DA:126,1
DA:127,1
DA:128,1
DA:129,1
DA:131,1
DA:132,1
DA:134,1
DA:136,1
DA:137,1
DA:138,1
DA:139,1
DA:142,1
DA:143,1
DA:144,1
DA:145,1
DA:147,1
DA:148,1
DA:150,1
DA:152,1
DA:153,1
BRF:0
BRH:0
LF:103
LH:103
end_of_record
SF:/app/crates/tsuzulint_core/src/error.rs
FN:44,_RINvMNtCsdHNy3eV5zAX_14tsuzulint_core5errorNtB3_11LinterError4fileNtNtCsauO83Ko6oyK_5alloc6string6StringEB5_
FN:49,_RINvMNtCsdHNy3eV5zAX_14tsuzulint_core5errorNtB3_11LinterError5parseNtNtCsauO83Ko6oyK_5alloc6string6StringEB5_
FN:39,_RINvMNtCsdHNy3eV5zAX_14tsuzulint_core5errorNtB3_11LinterError6configNtNtCsauO83Ko6oyK_5alloc6string6StringEB5_
FN:44,_RINvMNtCs47f85yxqTTa_14tsuzulint_core5errorNtB3_11LinterError4fileNtNtCsauO83Ko6oyK_5alloc6string6StringEB5_
FN:49,_RINvMNtCs47f85yxqTTa_14tsuzulint_core5errorNtB3_11LinterError5parseNtNtCsauO83Ko6oyK_5alloc6string6StringEB5_
FN:39,_RINvMNtCs47f85yxqTTa_14tsuzulint_core5errorNtB3_11LinterError6configNtNtCsauO83Ko6oyK_5alloc6string6StringEB5_
FNDA:0,_RINvMNtCsdHNy3eV5zAX_14tsuzulint_core5errorNtB3_11LinterError4fileNtNtCsauO83Ko6oyK_5alloc6string6StringEB5_
FNDA:0,_RINvMNtCsdHNy3eV5zAX_14tsuzulint_core5errorNtB3_11LinterError5parseNtNtCsauO83Ko6oyK_5alloc6string6StringEB5_
FNDA:3,_RINvMNtCsdHNy3eV5zAX_14tsuzulint_core5errorNtB3_11LinterError6configNtNtCsauO83Ko6oyK_5alloc6string6StringEB5_
FNDA:18,_RINvMNtCs47f85yxqTTa_14tsuzulint_core5errorNtB3_11LinterError4fileNtNtCsauO83Ko6oyK_5alloc6string6StringEB5_
FNDA:0,_RINvMNtCs47f85yxqTTa_14tsuzulint_core5errorNtB3_11LinterError5parseNtNtCsauO83Ko6oyK_5alloc6string6StringEB5_
FNDA:15,_RINvMNtCs47f85yxqTTa_14tsuzulint_core5errorNtB3_11LinterError6configNtNtCsauO83Ko6oyK_5alloc6string6StringEB5_
FNF:3
FNH:2
DA:39,18
DA:40,18
DA:41,18
DA:44,18
DA:45,18
DA:46,18
DA:49,0
DA:50,0
DA:51,0
BRF:0
BRH:0
LF:9
LH:6
end_of_record
SF:/app/crates/tsuzulint_core/src/file_finder.rs
FN:24,_RNvMNtCsdHNy3eV5zAX_14tsuzulint_core11file_finderNtB2_10FileFinder13build_globset
FN:44,_RNvMNtCsdHNy3eV5zAX_14tsuzulint_core11file_finderNtB2_10FileFinder13should_ignore
FN:64,_RNvMNtCsdHNy3eV5zAX_14tsuzulint_core11file_finderNtB2_10FileFinder14discover_files
FN:14,_RNvMNtCsdHNy3eV5zAX_14tsuzulint_core11file_finderNtB2_10FileFinder3new
FN:142,_RNCNCNCNvMNtCsdHNy3eV5zAX_14tsuzulint_core11file_finderNtB8_10FileFinder14discover_filess1_000Ba_
FN:159,_RNCNCNCNvMNtCsdHNy3eV5zAX_14tsuzulint_core11file_finderNtB8_10FileFinder14discover_filess1_00s0_0Ba_
FN:152,_RNCNCNCNvMNtCsdHNy3eV5zAX_14tsuzulint_core11file_finderNtB8_10FileFinder14discover_filess1_00s_0Ba_
FN:139,_RNCNCNvMNtCsdHNy3eV5zAX_14tsuzulint_core11file_finderNtB6_10FileFinder14discover_filess1_00B8_
FN:32,_RNCNvMNtCsdHNy3eV5zAX_14tsuzulint_core11file_finderNtB4_10FileFinder13build_globset0B6_
FN:38,_RNCNvMNtCsdHNy3eV5zAX_14tsuzulint_core11file_finderNtB4_10FileFinder13build_globsets_0B6_
FN:48,_RNCNvMNtCsdHNy3eV5zAX_14tsuzulint_core11file_finderNtB4_10FileFinder13should_ignore0B6_
FN:56,_RNCNvMNtCsdHNy3eV5zAX_14tsuzulint_core11file_finderNtB4_10FileFinder13should_ignores_0B6_
FN:78,_RNCNvMNtCsdHNy3eV5zAX_14tsuzulint_core11file_finderNtB4_10FileFinder14discover_files0B6_
FN:114,_RNCNvMNtCsdHNy3eV5zAX_14tsuzulint_core11file_finderNtB4_10FileFinder14discover_filess0_0B6_
FN:133,_RNCNvMNtCsdHNy3eV5zAX_14tsuzulint_core11file_finderNtB4_10FileFinder14discover_filess1_0B6_
FN:184,_RNCNvMNtCsdHNy3eV5zAX_14tsuzulint_core11file_finderNtB4_10FileFinder14discover_filess2_0B6_
FN:107,_RNCNvMNtCsdHNy3eV5zAX_14tsuzulint_core11file_finderNtB4_10FileFinder14discover_filess_0B6_
FN:142,_RNCNCNCNvMNtCs47f85yxqTTa_14tsuzulint_core11file_finderNtB8_10FileFinder14discover_filess1_000Ba_
FN:159,_RNCNCNCNvMNtCs47f85yxqTTa_14tsuzulint_core11file_finderNtB8_10FileFinder14discover_filess1_00s0_0Ba_
FN:152,_RNCNCNCNvMNtCs47f85yxqTTa_14tsuzulint_core11file_finderNtB8_10FileFinder14discover_filess1_00s_0Ba_
FN:139,_RNCNCNvMNtCs47f85yxqTTa_14tsuzulint_core11file_finderNtB6_10FileFinder14discover_filess1_00B8_
FN:32,_RNCNvMNtCs47f85yxqTTa_14tsuzulint_core11file_finderNtB4_10FileFinder13build_globset0B6_
FN:38,_RNCNvMNtCs47f85yxqTTa_14tsuzulint_core11file_finderNtB4_10FileFinder13build_globsets_0B6_
FN:48,_RNCNvMNtCs47f85yxqTTa_14tsuzulint_core11file_finderNtB4_10FileFinder13should_ignore0B6_
FN:56,_RNCNvMNtCs47f85yxqTTa_14tsuzulint_core11file_finderNtB4_10FileFinder13should_ignores_0B6_
FN:78,_RNCNvMNtCs47f85yxqTTa_14tsuzulint_core11file_finderNtB4_10FileFinder14discover_files0B6_
FN:114,_RNCNvMNtCs47f85yxqTTa_14tsuzulint_core11file_finderNtB4_10FileFinder14discover_filess0_0B6_
FN:133,_RNCNvMNtCs47f85yxqTTa_14tsuzulint_core11file_finderNtB4_10FileFinder14discover_filess1_0B6_
FN:184,_RNCNvMNtCs47f85yxqTTa_14tsuzulint_core11file_finderNtB4_10FileFinder14discover_filess2_0B6_
FN:107,_RNCNvMNtCs47f85yxqTTa_14tsuzulint_core11file_finderNtB4_10FileFinder14discover_filess_0B6_
FN:205,_RNvNtNtCs47f85yxqTTa_14tsuzulint_core11file_finder5testss_18test_build_globset
FN:213,_RNvNtNtCs47f85yxqTTa_14tsuzulint_core11file_finder5testss_24test_build_globset_empty
FN:348,_RNvNtNtCs47f85yxqTTa_14tsuzulint_core11file_finder5testss_32test_discover_files_deduplicates
FN:398,_RNvNtNtCs47f85yxqTTa_14tsuzulint_core11file_finder5testss_32test_discover_files_invalid_glob
FN:221,_RNvNtNtCs47f85yxqTTa_14tsuzulint_core11file_finder5testss_34test_build_globset_invalid_pattern
FN:247,_RNvNtNtCs47f85yxqTTa_14tsuzulint_core11file_finder5testss_36test_build_globset_multiple_patterns
FN:407,_RNvNtNtCs47f85yxqTTa_14tsuzulint_core11file_finder5testss_36test_discover_files_ignores_symlinks
FN:263,_RNvNtNtCs47f85yxqTTa_14tsuzulint_core11file_finder5testss_36test_discover_files_respects_exclude
FN:292,_RNvNtNtCs47f85yxqTTa_14tsuzulint_core11file_finder5testss_36test_discover_files_respects_include
FN:436,_RNvNtNtCs47f85yxqTTa_14tsuzulint_core11file_finder5testss_38test_discover_files_respects_gitignore
FN:238,_RNvNtNtCs47f85yxqTTa_14tsuzulint_core11file_finder5testss_38test_file_finder_with_exclude_patterns
FN:228,_RNvNtNtCs47f85yxqTTa_14tsuzulint_core11file_finder5testss_38test_file_finder_with_include_patterns
FN:363,_RNvNtNtCs47f85yxqTTa_14tsuzulint_core11file_finder5testss_42test_discover_files_multiple_glob_patterns
FN:311,_RNvNtNtCs47f85yxqTTa_14tsuzulint_core11file_finder5testss_55test_discover_files_exclude_takes_priority_over_include
FN:431,_RNCNvNtNtCs47f85yxqTTa_14tsuzulint_core11file_finder5testss_36test_discover_files_ignores_symlinks0B7_
FN:432,_RNCNvNtNtCs47f85yxqTTa_14tsuzulint_core11file_finder5testss_36test_discover_files_ignores_symlinkss_0B7_
FN:283,_RNCNvNtNtCs47f85yxqTTa_14tsuzulint_core11file_finder5testss_36test_discover_files_respects_exclude0B7_
FN:287,_RNCNvNtNtCs47f85yxqTTa_14tsuzulint_core11file_finder5testss_36test_discover_files_respects_excludes_0B7_
FN:306,_RNCNvNtNtCs47f85yxqTTa_14tsuzulint_core11file_finder5testss_36test_discover_files_respects_include0B7_
FN:307,_RNCNvNtNtCs47f85yxqTTa_14tsuzulint_core11file_finder5testss_36test_discover_files_respects_includes_0B7_
FN:462,_RNCNvNtNtCs47f85yxqTTa_14tsuzulint_core11file_finder5testss_38test_discover_files_respects_gitignore0B7_
FN:464,_RNCNvNtNtCs47f85yxqTTa_14tsuzulint_core11file_finder5testss_38test_discover_files_respects_gitignores_0B7_
FN:383,_RNCNvNtNtCs47f85yxqTTa_14tsuzulint_core11file_finder5testss_42test_discover_files_multiple_glob_patterns0B7_
FN:391,_RNCNvNtNtCs47f85yxqTTa_14tsuzulint_core11file_finder5testss_42test_discover_files_multiple_glob_patternss0_0B7_
FN:387,_RNCNvNtNtCs47f85yxqTTa_14tsuzulint_core11file_finder5testss_42test_discover_files_multiple_glob_patternss_0B7_
FN:336,_RNCNvNtNtCs47f85yxqTTa_14tsuzulint_core11file_finder5testss_55test_discover_files_exclude_takes_priority_over_include0B7_
FN:342,_RNCNvNtNtCs47f85yxqTTa_14tsuzulint_core11file_finder5testss_55test_discover_files_exclude_takes_priority_over_includes_0B7_
FN:24,_RNvMNtCs47f85yxqTTa_14tsuzulint_core11file_finderNtB2_10FileFinder13build_globset
FN:44,_RNvMNtCs47f85yxqTTa_14tsuzulint_core11file_finderNtB2_10FileFinder13should_ignore
FN:64,_RNvMNtCs47f85yxqTTa_14tsuzulint_core11file_finderNtB2_10FileFinder14discover_files
FN:14,_RNvMNtCs47f85yxqTTa_14tsuzulint_core11file_finderNtB2_10FileFinder3new
FNDA:47,_RNvMNtCsdHNy3eV5zAX_14tsuzulint_core11file_finderNtB2_10FileFinder13build_globset
FNDA:12,_RNvMNtCsdHNy3eV5zAX_14tsuzulint_core11file_finderNtB2_10FileFinder13should_ignore
FNDA:16,_RNvMNtCsdHNy3eV5zAX_14tsuzulint_core11file_finderNtB2_10FileFinder14discover_files
FNDA:24,_RNvMNtCsdHNy3eV5zAX_14tsuzulint_core11file_finderNtB2_10FileFinder3new
FNDA:43,_RNCNCNCNvMNtCsdHNy3eV5zAX_14tsuzulint_core11file_finderNtB8_10FileFinder14discover_filess1_000Ba_
FNDA:0,_RNCNCNCNvMNtCsdHNy3eV5zAX_14tsuzulint_core11file_finderNtB8_10FileFinder14discover_filess1_00s0_0Ba_
FNDA:0,_RNCNCNCNvMNtCsdHNy3eV5zAX_14tsuzulint_core11file_finderNtB8_10FileFinder14discover_filess1_00s_0Ba_
FNDA:43,_RNCNCNvMNtCsdHNy3eV5zAX_14tsuzulint_core11file_finderNtB6_10FileFinder14discover_filess1_00B8_
FNDA:1,_RNCNvMNtCsdHNy3eV5zAX_14tsuzulint_core11file_finderNtB4_10FileFinder13build_globset0B6_
FNDA:0,_RNCNvMNtCsdHNy3eV5zAX_14tsuzulint_core11file_finderNtB4_10FileFinder13build_globsets_0B6_
FNDA:0,_RNCNvMNtCsdHNy3eV5zAX_14tsuzulint_core11file_finderNtB4_10FileFinder13should_ignore0B6_
FNDA:0,_RNCNvMNtCsdHNy3eV5zAX_14tsuzulint_core11file_finderNtB4_10FileFinder13should_ignores_0B6_
FNDA:12,_RNCNvMNtCsdHNy3eV5zAX_14tsuzulint_core11file_finderNtB4_10FileFinder14discover_files0B6_
FNDA:0,_RNCNvMNtCsdHNy3eV5zAX_14tsuzulint_core11file_finderNtB4_10FileFinder14discover_filess0_0B6_
FNDA:15,_RNCNvMNtCsdHNy3eV5zAX_14tsuzulint_core11file_finderNtB4_10FileFinder14discover_filess1_0B6_
FNDA:0,_RNCNvMNtCsdHNy3eV5zAX_14tsuzulint_core11file_finderNtB4_10FileFinder14discover_filess2_0B6_
FNDA:1,_RNCNvMNtCsdHNy3eV5zAX_14tsuzulint_core11file_finderNtB4_10FileFinder14discover_filess_0B6_
FNDA:111,_RNCNCNCNvMNtCs47f85yxqTTa_14tsuzulint_core11file_finderNtB8_10FileFinder14discover_filess1_000Ba_
FNDA:4,_RNCNCNCNvMNtCs47f85yxqTTa_14tsuzulint_core11file_finderNtB8_10FileFinder14discover_filess1_00s0_0Ba_
FNDA:4,_RNCNCNCNvMNtCs47f85yxqTTa_14tsuzulint_core11file_finderNtB8_10FileFinder14discover_filess1_00s_0Ba_
FNDA:111,_RNCNCNvMNtCs47f85yxqTTa_14tsuzulint_core11file_finderNtB6_10FileFinder14discover_filess1_00B8_
FNDA:1,_RNCNvMNtCs47f85yxqTTa_14tsuzulint_core11file_finderNtB4_10FileFinder13build_globset0B6_
FNDA:0,_RNCNvMNtCs47f85yxqTTa_14tsuzulint_core11file_finderNtB4_10FileFinder13build_globsets_0B6_
FNDA:2,_RNCNvMNtCs47f85yxqTTa_14tsuzulint_core11file_finderNtB4_10FileFinder13should_ignore0B6_
FNDA:3,_RNCNvMNtCs47f85yxqTTa_14tsuzulint_core11file_finderNtB4_10FileFinder13should_ignores_0B6_
FNDA:0,_RNCNvMNtCs47f85yxqTTa_14tsuzulint_core11file_finderNtB4_10FileFinder14discover_files0B6_
FNDA:0,_RNCNvMNtCs47f85yxqTTa_14tsuzulint_core11file_finderNtB4_10FileFinder14discover_filess0_0B6_
FNDA:45,_RNCNvMNtCs47f85yxqTTa_14tsuzulint_core11file_finderNtB4_10FileFinder14discover_filess1_0B6_
FNDA:0,_RNCNvMNtCs47f85yxqTTa_14tsuzulint_core11file_finderNtB4_10FileFinder14discover_filess2_0B6_
FNDA:1,_RNCNvMNtCs47f85yxqTTa_14tsuzulint_core11file_finderNtB4_10FileFinder14discover_filess_0B6_
FNDA:1,_RNvNtNtCs47f85yxqTTa_14tsuzulint_core11file_finder5testss_18test_build_globset
FNDA:1,_RNvNtNtCs47f85yxqTTa_14tsuzulint_core11file_finder5testss_24test_build_globset_empty
FNDA:1,_RNvNtNtCs47f85yxqTTa_14tsuzulint_core11file_finder5testss_32test_discover_files_deduplicates
FNDA:1,_RNvNtNtCs47f85yxqTTa_14tsuzulint_core11file_finder5testss_32test_discover_files_invalid_glob
FNDA:1,_RNvNtNtCs47f85yxqTTa_14tsuzulint_core11file_finder5testss_34test_build_globset_invalid_pattern
FNDA:1,_RNvNtNtCs47f85yxqTTa_14tsuzulint_core11file_finder5testss_36test_build_globset_multiple_patterns
FNDA:1,_RNvNtNtCs47f85yxqTTa_14tsuzulint_core11file_finder5testss_36test_discover_files_ignores_symlinks
FNDA:1,_RNvNtNtCs47f85yxqTTa_14tsuzulint_core11file_finder5testss_36test_discover_files_respects_exclude
FNDA:1,_RNvNtNtCs47f85yxqTTa_14tsuzulint_core11file_finder5testss_36test_discover_files_respects_include
FNDA:1,_RNvNtNtCs47f85yxqTTa_14tsuzulint_core11file_finder5testss_38test_discover_files_respects_gitignore
FNDA:1,_RNvNtNtCs47f85yxqTTa_14tsuzulint_core11file_finder5testss_38test_file_finder_with_exclude_patterns
FNDA:1,_RNvNtNtCs47f85yxqTTa_14tsuzulint_core11file_finder5testss_38test_file_finder_with_include_patterns
FNDA:1,_RNvNtNtCs47f85yxqTTa_14tsuzulint_core11file_finder5testss_42test_discover_files_multiple_glob_patterns
FNDA:1,_RNvNtNtCs47f85yxqTTa_14tsuzulint_core11file_finder5testss_55test_discover_files_exclude_takes_priority_over_include
FNDA:1,_RNCNvNtNtCs47f85yxqTTa_14tsuzulint_core11file_finder5testss_36test_discover_files_ignores_symlinks0B7_
FNDA:1,_RNCNvNtNtCs47f85yxqTTa_14tsuzulint_core11file_finder5testss_36test_discover_files_ignores_symlinkss_0B7_
FNDA:1,_RNCNvNtNtCs47f85yxqTTa_14tsuzulint_core11file_finder5testss_36test_discover_files_respects_exclude0B7_
FNDA:1,_RNCNvNtNtCs47f85yxqTTa_14tsuzulint_core11file_finder5testss_36test_discover_files_respects_excludes_0B7_
FNDA:1,_RNCNvNtNtCs47f85yxqTTa_14tsuzulint_core11file_finder5testss_36test_discover_files_respects_include0B7_
FNDA:1,_RNCNvNtNtCs47f85yxqTTa_14tsuzulint_core11file_finder5testss_36test_discover_files_respects_includes_0B7_
FNDA:1,_RNCNvNtNtCs47f85yxqTTa_14tsuzulint_core11file_finder5testss_38test_discover_files_respects_gitignore0B7_
FNDA:1,_RNCNvNtNtCs47f85yxqTTa_14tsuzulint_core11file_finder5testss_38test_discover_files_respects_gitignores_0B7_
FNDA:1,_RNCNvNtNtCs47f85yxqTTa_14tsuzulint_core11file_finder5testss_42test_discover_files_multiple_glob_patterns0B7_
FNDA:2,_RNCNvNtNtCs47f85yxqTTa_14tsuzulint_core11file_finder5testss_42test_discover_files_multiple_glob_patternss0_0B7_
FNDA:2,_RNCNvNtNtCs47f85yxqTTa_14tsuzulint_core11file_finder5testss_42test_discover_files_multiple_glob_patternss_0B7_
FNDA:1,_RNCNvNtNtCs47f85yxqTTa_14tsuzulint_core11file_finder5testss_55test_discover_files_exclude_takes_priority_over_include0B7_
FNDA:1,_RNCNvNtNtCs47f85yxqTTa_14tsuzulint_core11file_finder5testss_55test_discover_files_exclude_takes_priority_over_includes_0B7_
FNDA:74,_RNvMNtCs47f85yxqTTa_14tsuzulint_core11file_finderNtB2_10FileFinder13build_globset
FNDA:5,_RNvMNtCs47f85yxqTTa_14tsuzulint_core11file_finderNtB2_10FileFinder13should_ignore
FNDA:10,_RNvMNtCs47f85yxqTTa_14tsuzulint_core11file_finderNtB2_10FileFinder14discover_files
FNDA:35,_RNvMNtCs47f85yxqTTa_14tsuzulint_core11file_finderNtB2_10FileFinder3new
FNF:44
FNH:41
DA:14,59
DA:15,59
DA:16,58
DA:18,58
DA:19,58
DA:20,58
DA:21,58
DA:22,59
DA:24,121
DA:25,121
DA:26,110
DA:27,11
DA:29,11
DA:30,14
DA:31,14
DA:32,14
DA:33,12
DA:36,9
DA:37,9
DA:38,9
DA:40,9
DA:41,121
DA:44,17
DA:45,17
DA:46,17
DA:47,17
DA:48,17
DA:50,1
DA:51,16
DA:53,16
DA:54,16
DA:55,16
DA:56,16
DA:58,1
DA:59,15
DA:61,15
DA:62,17
DA:64,26
DA:65,26
DA:66,26
DA:67,26
DA:68,26
DA:69,26
DA:70,26
DA:74,29
DA:75,29
DA:76,29
DA:77,29
DA:78,29
DA:80,12
DA:81,12
DA:82,12
DA:83,0
DA:84,12
DA:85,12
DA:87,0
DA:88,0
DA:89,0
DA:92,17
DA:93,17
DA:94,17
DA:97,26
DA:98,12
DA:99,12
DA:100,12
DA:101,14
DA:105,14
DA:106,17
DA:107,17
DA:108,2
DA:109,2
DA:110,15
DA:112,12
DA:113,12
DA:114,12
DA:117,12
DA:118,12
DA:121,12
DA:122,12
DA:123,12
DA:125,12
DA:126,12
DA:127,12
DA:128,12
DA:129,12
DA:130,12
DA:131,12
DA:132,12
DA:133,60
DA:134,60
DA:135,60
DA:136,60
DA:137,60
DA:139,154
DA:140,154
DA:141,154
DA:142,154
DA:143,110
DA:146,110
DA:147,18
DA:148,18
DA:150,18
DA:151,18
DA:152,18
DA:154,2
DA:155,16
DA:157,16
DA:158,16
DA:159,16
DA:161,1
DA:162,15
DA:164,15
DA:165,15
DA:166,15
DA:168,0
DA:169,0
DA:172,92
DA:173,44
DA:175,0
DA:176,0
DA:179,151
DA:180,154
DA:181,60
DA:183,12
DA:184,12
DA:185,0
DA:186,0
DA:187,12
DA:190,12
DA:191,12
DA:193,12
DA:194,12
DA:195,26
DA:205,1
DA:206,1
DA:207,1
DA:208,1
DA:209,1
DA:210,1
DA:213,1
DA:214,1
DA:215,1
DA:216,1
DA:217,1
DA:218,1
DA:221,1
DA:222,1
DA:223,1
DA:224,1
DA:225,1
DA:228,1
DA:229,1
DA:231,1
DA:232,1
DA:234,1
DA:235,1
DA:238,1
DA:239,1
DA:241,1
DA:243,1
DA:244,1
DA:247,1
DA:248,1
DA:249,1
DA:250,1
DA:251,1
DA:253,1
DA:254,1
DA:256,1
DA:257,1
DA:258,1
DA:259,1
DA:260,1
DA:263,1
DA:264,1
DA:265,1
DA:266,1
DA:267,1
DA:268,1
DA:270,1
DA:271,1
DA:273,1
DA:274,1
DA:275,1
DA:277,1
DA:279,1
DA:280,1
DA:281,1
DA:283,1
DA:284,1
DA:285,1
DA:286,1
DA:287,1
DA:289,1
DA:292,1
DA:293,1
DA:294,1
DA:295,1
DA:297,1
DA:298,1
DA:300,1
DA:302,1
DA:303,1
DA:304,1
DA:306,1
DA:307,1
DA:308,1
DA:311,1
DA:312,1
DA:313,1
DA:314,1
DA:315,1
DA:316,1
DA:317,1
DA:318,1
DA:320,1
DA:321,1
DA:322,1
DA:323,1
DA:325,1
DA:326,1
DA:327,1
DA:329,1
DA:331,1
DA:332,1
DA:333,1
DA:335,1
DA:336,1
DA:339,1
DA:340,1
DA:341,1
DA:342,1
DA:345,1
DA:348,1
DA:349,1
DA:350,1
DA:351,1
DA:353,1
DA:355,1
DA:356,1
DA:357,1
DA:359,1
DA:360,1
DA:363,1
DA:364,1
DA:365,1
DA:366,1
DA:367,1
DA:369,1
DA:370,1
DA:371,1
DA:373,1
DA:375,1
DA:376,1
DA:377,1
DA:378,1
DA:380,1
DA:382,1
DA:383,1
DA:386,1
DA:387,2
DA:390,1
DA:391,2
DA:394,1
DA:395,1
DA:398,1
DA:399,1
DA:401,1
DA:402,1
DA:403,1
DA:407,1
DA:410,1
DA:411,1
DA:412,1
DA:414,1
DA:415,1
DA:417,1
DA:419,1
DA:420,1
DA:421,1
DA:425,1
DA:426,1
DA:431,1
DA:432,1
DA:433,1
DA:436,1
DA:439,1
DA:440,1
DA:446,1
DA:448,1
DA:449,1
DA:450,1
DA:452,1
DA:453,1
DA:455,1
DA:456,1
DA:458,1
DA:460,1
DA:462,1
DA:463,1
DA:464,1
DA:467,1
BRF:0
BRH:0
LF:330
LH:316
end_of_record
SF:/app/crates/tsuzulint_core/src/file_linter.rs
FN:442,_RINvNtCsdHNy3eV5zAX_14tsuzulint_core11file_linter12to_raw_valueNtNtCs9bJaZoOZVf6_13tsuzulint_ast4node7TxtNodeEB4_
FN:465,_RINvNtCsdHNy3eV5zAX_14tsuzulint_core11file_linter20get_classified_rulesNtNtCs8TYf9xf7DGp_16tsuzulint_plugin4host10PluginHostEB4_
FN:509,_RINvNtCsdHNy3eV5zAX_14tsuzulint_core11file_linter23any_rule_has_capabilityINtNtNtNtCsaa59N1qzrfe_3std11collections4hash3map4KeysNtNtCsauO83Ko6oyK_5alloc6string6StringNtNtCs8TYf9xf7DGp_16tsuzulint_plugin8manifest12RuleManifestENtNtB2I_4host10PluginHostNCINvB2_24any_rule_needs_sentencesB1a_B3C_E0EB4_
FN:509,_RINvNtCsdHNy3eV5zAX_14tsuzulint_core11file_linter23any_rule_has_capabilityINtNtNtNtCsaa59N1qzrfe_3std11collections4hash3map4KeysNtNtCsauO83Ko6oyK_5alloc6string6StringNtNtCs8TYf9xf7DGp_16tsuzulint_plugin8manifest12RuleManifestENtNtB2I_4host10PluginHostNCINvB2_25any_rule_needs_morphologyB1a_B3C_E0EB4_
FN:509,_RINvNtCsdHNy3eV5zAX_14tsuzulint_core11file_linter23any_rule_has_capabilityINtNtNtNtCsaa59N1qzrfe_3std11collections4hash3map4KeysNtNtCsauO83Ko6oyK_5alloc6string6StringNtNtCs8TYf9xf7DGp_16tsuzulint_plugin8manifest12RuleManifestENtNtB2I_4host10PluginHostNCNvB2_12lint_contents0_0EB4_
FN:509,_RINvNtCsdHNy3eV5zAX_14tsuzulint_core11file_linter23any_rule_has_capabilityINtNtNtNtCsaa59N1qzrfe_3std11collections4hash3map4KeysNtNtCsauO83Ko6oyK_5alloc6string6StringNtNtCs8TYf9xf7DGp_16tsuzulint_plugin8manifest12RuleManifestENtNtB2I_4host10PluginHostNCNvB2_12lint_contents1_0EB4_
FN:539,_RINvNtCsdHNy3eV5zAX_14tsuzulint_core11file_linter24any_rule_needs_sentencesINtNtNtNtCsaa59N1qzrfe_3std11collections4hash3map4KeysNtNtCsauO83Ko6oyK_5alloc6string6StringNtNtCs8TYf9xf7DGp_16tsuzulint_plugin8manifest12RuleManifestENtNtB2J_4host10PluginHostEB4_
FN:531,_RINvNtCsdHNy3eV5zAX_14tsuzulint_core11file_linter25any_rule_needs_morphologyINtNtNtNtCsaa59N1qzrfe_3std11collections4hash3map4KeysNtNtCsauO83Ko6oyK_5alloc6string6StringNtNtCs8TYf9xf7DGp_16tsuzulint_plugin8manifest12RuleManifestENtNtB2K_4host10PluginHostEB4_
FN:447,_RNCINvNtCsdHNy3eV5zAX_14tsuzulint_core11file_linter12to_raw_valueNtNtCs9bJaZoOZVf6_13tsuzulint_ast4node7TxtNodeE0B6_
FN:521,_RNCINvNtCsdHNy3eV5zAX_14tsuzulint_core11file_linter23any_rule_has_capabilityINtNtNtNtCsaa59N1qzrfe_3std11collections4hash3map4KeysNtNtCsauO83Ko6oyK_5alloc6string6StringNtNtCs8TYf9xf7DGp_16tsuzulint_plugin8manifest12RuleManifestENtNtB2K_4host10PluginHostNCINvB4_24any_rule_needs_sentencesB1c_B3E_E0E0B6_
FN:521,_RNCINvNtCsdHNy3eV5zAX_14tsuzulint_core11file_linter23any_rule_has_capabilityINtNtNtNtCsaa59N1qzrfe_3std11collections4hash3map4KeysNtNtCsauO83Ko6oyK_5alloc6string6StringNtNtCs8TYf9xf7DGp_16tsuzulint_plugin8manifest12RuleManifestENtNtB2K_4host10PluginHostNCINvB4_25any_rule_needs_morphologyB1c_B3E_E0E0B6_
FN:521,_RNCINvNtCsdHNy3eV5zAX_14tsuzulint_core11file_linter23any_rule_has_capabilityINtNtNtNtCsaa59N1qzrfe_3std11collections4hash3map4KeysNtNtCsauO83Ko6oyK_5alloc6string6StringNtNtCs8TYf9xf7DGp_16tsuzulint_plugin8manifest12RuleManifestENtNtB2K_4host10PluginHostNCNvB4_12lint_contents0_0E0B6_
FN:521,_RNCINvNtCsdHNy3eV5zAX_14tsuzulint_core11file_linter23any_rule_has_capabilityINtNtNtNtCsaa59N1qzrfe_3std11collections4hash3map4KeysNtNtCsauO83Ko6oyK_5alloc6string6StringNtNtCs8TYf9xf7DGp_16tsuzulint_plugin8manifest12RuleManifestENtNtB2K_4host10PluginHostNCNvB4_12lint_contents1_0E0B6_
FN:544,_RNCINvNtCsdHNy3eV5zAX_14tsuzulint_core11file_linter24any_rule_needs_sentencesINtNtNtNtCsaa59N1qzrfe_3std11collections4hash3map4KeysNtNtCsauO83Ko6oyK_5alloc6string6StringNtNtCs8TYf9xf7DGp_16tsuzulint_plugin8manifest12RuleManifestENtNtB2L_4host10PluginHostE0B6_
FN:536,_RNCINvNtCsdHNy3eV5zAX_14tsuzulint_core11file_linter25any_rule_needs_morphologyINtNtNtNtCsaa59N1qzrfe_3std11collections4hash3map4KeysNtNtCsauO83Ko6oyK_5alloc6string6StringNtNtCs8TYf9xf7DGp_16tsuzulint_plugin8manifest12RuleManifestENtNtB2M_4host10PluginHostE0B6_
FN:117,_RNCNCNvNtCsdHNy3eV5zAX_14tsuzulint_core11file_linter18lint_file_internals1_00B7_
FN:120,_RNCNCNvNtCsdHNy3eV5zAX_14tsuzulint_core11file_linter18lint_file_internals2_00B7_
FN:363,_RNCNvNtCsdHNy3eV5zAX_14tsuzulint_core11file_linter12lint_content0B5_
FN:376,_RNCNvNtCsdHNy3eV5zAX_14tsuzulint_core11file_linter12lint_contents0_0B5_
FN:379,_RNCNvNtCsdHNy3eV5zAX_14tsuzulint_core11file_linter12lint_contents1_0B5_
FN:384,_RNCNvNtCsdHNy3eV5zAX_14tsuzulint_core11file_linter12lint_contents2_0B5_
FN:369,_RNCNvNtCsdHNy3eV5zAX_14tsuzulint_core11file_linter12lint_contents_0B5_
FN:84,_RNCNvNtCsdHNy3eV5zAX_14tsuzulint_core11file_linter18lint_file_internal0B5_
FN:102,_RNCNvNtCsdHNy3eV5zAX_14tsuzulint_core11file_linter18lint_file_internals0_0B5_
FN:117,_RNCNvNtCsdHNy3eV5zAX_14tsuzulint_core11file_linter18lint_file_internals1_0B5_
FN:120,_RNCNvNtCsdHNy3eV5zAX_14tsuzulint_core11file_linter18lint_file_internals2_0B5_
FN:127,_RNCNvNtCsdHNy3eV5zAX_14tsuzulint_core11file_linter18lint_file_internals3_0B5_
FN:142,_RNCNvNtCsdHNy3eV5zAX_14tsuzulint_core11file_linter18lint_file_internals4_0B5_
FN:180,_RNCNvNtCsdHNy3eV5zAX_14tsuzulint_core11file_linter18lint_file_internals5_0B5_
FN:205,_RNCNvNtCsdHNy3eV5zAX_14tsuzulint_core11file_linter18lint_file_internals6_0B5_
FN:281,_RNCNvNtCsdHNy3eV5zAX_14tsuzulint_core11file_linter18lint_file_internals7_0B5_
FN:314,_RNCNvNtCsdHNy3eV5zAX_14tsuzulint_core11file_linter18lint_file_internals8_0B5_
FN:341,_RNCNvNtCsdHNy3eV5zAX_14tsuzulint_core11file_linter18lint_file_internals9_0B5_
FN:96,_RNCNvNtCsdHNy3eV5zAX_14tsuzulint_core11file_linter18lint_file_internals_0B5_
FN:501,_RNCNvNtCsdHNy3eV5zAX_14tsuzulint_core11file_linter29filter_overridden_diagnostics0B5_
FN:500,_RNCNvNtCsdHNy3eV5zAX_14tsuzulint_core11file_linter29filter_overridden_diagnosticss_0B5_
FN:357,_RNvNtCsdHNy3eV5zAX_14tsuzulint_core11file_linter12lint_content
FN:434,_RNvNtCsdHNy3eV5zAX_14tsuzulint_core11file_linter13select_parser
FN:41,_RNvNtCsdHNy3eV5zAX_14tsuzulint_core11file_linter18lint_file_internal
FN:495,_RNvNtCsdHNy3eV5zAX_14tsuzulint_core11file_linter29filter_overridden_diagnostics
FN:415,_RNvXNtCsdHNy3eV5zAX_14tsuzulint_core11file_linterNtB2_10FileParserNtNtCs6rVTX6UnG69_16tsuzulint_parser6traits6Parser10extensions
FN:408,_RNvXNtCsdHNy3eV5zAX_14tsuzulint_core11file_linterNtB2_10FileParserNtNtCs6rVTX6UnG69_16tsuzulint_parser6traits6Parser4name
FN:422,_RNvXNtCsdHNy3eV5zAX_14tsuzulint_core11file_linterNtB2_10FileParserNtNtCs6rVTX6UnG69_16tsuzulint_parser6traits6Parser5parse
FN:455,_RNvXs_NtCsdHNy3eV5zAX_14tsuzulint_core11file_linterNtNtCs8TYf9xf7DGp_16tsuzulint_plugin4host10PluginHostNtB4_16ManifestProvider12get_manifest
FN:357,_RNvNtCs47f85yxqTTa_14tsuzulint_core11file_linter12lint_content
FN:434,_RNvNtCs47f85yxqTTa_14tsuzulint_core11file_linter13select_parser
FN:41,_RNvNtCs47f85yxqTTa_14tsuzulint_core11file_linter18lint_file_internal
FN:495,_RNvNtCs47f85yxqTTa_14tsuzulint_core11file_linter29filter_overridden_diagnostics
FN:415,_RNvXNtCs47f85yxqTTa_14tsuzulint_core11file_linterNtB2_10FileParserNtNtCs6rVTX6UnG69_16tsuzulint_parser6traits6Parser10extensions
FN:408,_RNvXNtCs47f85yxqTTa_14tsuzulint_core11file_linterNtB2_10FileParserNtNtCs6rVTX6UnG69_16tsuzulint_parser6traits6Parser4name
FN:422,_RNvXNtCs47f85yxqTTa_14tsuzulint_core11file_linterNtB2_10FileParserNtNtCs6rVTX6UnG69_16tsuzulint_parser6traits6Parser5parse
FN:442,_RINvNtCs47f85yxqTTa_14tsuzulint_core11file_linter12to_raw_valueNtNtCs9bJaZoOZVf6_13tsuzulint_ast4node7TxtNodeEB4_
FN:465,_RINvNtCs47f85yxqTTa_14tsuzulint_core11file_linter20get_classified_rulesNtNtB2_5tests20MockManifestProviderEB4_
FN:465,_RINvNtCs47f85yxqTTa_14tsuzulint_core11file_linter20get_classified_rulesNtNtCs8TYf9xf7DGp_16tsuzulint_plugin4host10PluginHostEB4_
FN:509,_RINvNtCs47f85yxqTTa_14tsuzulint_core11file_linter23any_rule_has_capabilityINtNtNtCs4kUJL3MZFFz_4core5slice4iter4IterNtNtCsauO83Ko6oyK_5alloc6string6StringENtNtB2_5tests20MockManifestProviderNCINvB2_24any_rule_needs_sentencesB1a_B2t_E0EB4_
FN:509,_RINvNtCs47f85yxqTTa_14tsuzulint_core11file_linter23any_rule_has_capabilityINtNtNtCs4kUJL3MZFFz_4core5slice4iter4IterNtNtCsauO83Ko6oyK_5alloc6string6StringENtNtB2_5tests20MockManifestProviderNCINvB2_25any_rule_needs_morphologyB1a_B2t_E0EB4_
FN:509,_RINvNtCs47f85yxqTTa_14tsuzulint_core11file_linter23any_rule_has_capabilityINtNtNtCs4kUJL3MZFFz_4core5slice4iter4IterNtNtCsauO83Ko6oyK_5alloc6string6StringENtNtB2_5tests20MockManifestProviderNCNvB2v_s_52test_any_rule_has_capability_no_enabled_rules_filter0EB4_
FN:509,_RINvNtCs47f85yxqTTa_14tsuzulint_core11file_linter23any_rule_has_capabilityINtNtNtCs4kUJL3MZFFz_4core5slice4iter4IterNtNtCsauO83Ko6oyK_5alloc6string6StringENtNtB2_5tests20MockManifestProviderNCNvB2v_s_52test_any_rule_has_capability_no_enabled_rules_filters_0EB4_
FN:509,_RINvNtCs47f85yxqTTa_14tsuzulint_core11file_linter23any_rule_has_capabilityINtNtNtNtCsaa59N1qzrfe_3std11collections4hash3map4KeysNtNtCsauO83Ko6oyK_5alloc6string6StringNtNtCs8TYf9xf7DGp_16tsuzulint_plugin8manifest12RuleManifestENtNtB2I_4host10PluginHostNCINvB2_24any_rule_needs_sentencesB1a_B3C_E0EB4_
FN:509,_RINvNtCs47f85yxqTTa_14tsuzulint_core11file_linter23any_rule_has_capabilityINtNtNtNtCsaa59N1qzrfe_3std11collections4hash3map4KeysNtNtCsauO83Ko6oyK_5alloc6string6StringNtNtCs8TYf9xf7DGp_16tsuzulint_plugin8manifest12RuleManifestENtNtB2I_4host10PluginHostNCINvB2_25any_rule_needs_morphologyB1a_B3C_E0EB4_
FN:509,_RINvNtCs47f85yxqTTa_14tsuzulint_core11file_linter23any_rule_has_capabilityINtNtNtNtCsaa59N1qzrfe_3std11collections4hash3map4KeysNtNtCsauO83Ko6oyK_5alloc6string6StringNtNtCs8TYf9xf7DGp_16tsuzulint_plugin8manifest12RuleManifestENtNtB2I_4host10PluginHostNCNvB2_12lint_contents0_0EB4_
FN:509,_RINvNtCs47f85yxqTTa_14tsuzulint_core11file_linter23any_rule_has_capabilityINtNtNtNtCsaa59N1qzrfe_3std11collections4hash3map4KeysNtNtCsauO83Ko6oyK_5alloc6string6StringNtNtCs8TYf9xf7DGp_16tsuzulint_plugin8manifest12RuleManifestENtNtB2I_4host10PluginHostNCNvB2_12lint_contents1_0EB4_
FN:539,_RINvNtCs47f85yxqTTa_14tsuzulint_core11file_linter24any_rule_needs_sentencesINtNtNtCs4kUJL3MZFFz_4core5slice4iter4IterNtNtCsauO83Ko6oyK_5alloc6string6StringENtNtB2_5tests20MockManifestProviderEB4_
FN:539,_RINvNtCs47f85yxqTTa_14tsuzulint_core11file_linter24any_rule_needs_sentencesINtNtNtNtCsaa59N1qzrfe_3std11collections4hash3map4KeysNtNtCsauO83Ko6oyK_5alloc6string6StringNtNtCs8TYf9xf7DGp_16tsuzulint_plugin8manifest12RuleManifestENtNtB2J_4host10PluginHostEB4_
FN:531,_RINvNtCs47f85yxqTTa_14tsuzulint_core11file_linter25any_rule_needs_morphologyINtNtNtCs4kUJL3MZFFz_4core5slice4iter4IterNtNtCsauO83Ko6oyK_5alloc6string6StringENtNtB2_5tests20MockManifestProviderEB4_
FN:531,_RINvNtCs47f85yxqTTa_14tsuzulint_core11file_linter25any_rule_needs_morphologyINtNtNtNtCsaa59N1qzrfe_3std11collections4hash3map4KeysNtNtCsauO83Ko6oyK_5alloc6string6StringNtNtCs8TYf9xf7DGp_16tsuzulint_plugin8manifest12RuleManifestENtNtB2K_4host10PluginHostEB4_
FN:447,_RNCINvNtCs47f85yxqTTa_14tsuzulint_core11file_linter12to_raw_valueNtNtCs9bJaZoOZVf6_13tsuzulint_ast4node7TxtNodeE0B6_
FN:521,_RNCINvNtCs47f85yxqTTa_14tsuzulint_core11file_linter23any_rule_has_capabilityINtNtNtCs4kUJL3MZFFz_4core5slice4iter4IterNtNtCsauO83Ko6oyK_5alloc6string6StringENtNtB4_5tests20MockManifestProviderNCINvB4_24any_rule_needs_sentencesB1c_B2v_E0E0B6_
FN:521,_RNCINvNtCs47f85yxqTTa_14tsuzulint_core11file_linter23any_rule_has_capabilityINtNtNtCs4kUJL3MZFFz_4core5slice4iter4IterNtNtCsauO83Ko6oyK_5alloc6string6StringENtNtB4_5tests20MockManifestProviderNCINvB4_25any_rule_needs_morphologyB1c_B2v_E0E0B6_
FN:521,_RNCINvNtCs47f85yxqTTa_14tsuzulint_core11file_linter23any_rule_has_capabilityINtNtNtCs4kUJL3MZFFz_4core5slice4iter4IterNtNtCsauO83Ko6oyK_5alloc6string6StringENtNtB4_5tests20MockManifestProviderNCNvB2x_s_52test_any_rule_has_capability_no_enabled_rules_filter0E0B6_
FN:521,_RNCINvNtCs47f85yxqTTa_14tsuzulint_core11file_linter23any_rule_has_capabilityINtNtNtCs4kUJL3MZFFz_4core5slice4iter4IterNtNtCsauO83Ko6oyK_5alloc6string6StringENtNtB4_5tests20MockManifestProviderNCNvB2x_s_52test_any_rule_has_capability_no_enabled_rules_filters_0E0B6_
FN:521,_RNCINvNtCs47f85yxqTTa_14tsuzulint_core11file_linter23any_rule_has_capabilityINtNtNtNtCsaa59N1qzrfe_3std11collections4hash3map4KeysNtNtCsauO83Ko6oyK_5alloc6string6StringNtNtCs8TYf9xf7DGp_16tsuzulint_plugin8manifest12RuleManifestENtNtB2K_4host10PluginHostNCINvB4_24any_rule_needs_sentencesB1c_B3E_E0E0B6_
FN:521,_RNCINvNtCs47f85yxqTTa_14tsuzulint_core11file_linter23any_rule_has_capabilityINtNtNtNtCsaa59N1qzrfe_3std11collections4hash3map4KeysNtNtCsauO83Ko6oyK_5alloc6string6StringNtNtCs8TYf9xf7DGp_16tsuzulint_plugin8manifest12RuleManifestENtNtB2K_4host10PluginHostNCINvB4_25any_rule_needs_morphologyB1c_B3E_E0E0B6_
FN:521,_RNCINvNtCs47f85yxqTTa_14tsuzulint_core11file_linter23any_rule_has_capabilityINtNtNtNtCsaa59N1qzrfe_3std11collections4hash3map4KeysNtNtCsauO83Ko6oyK_5alloc6string6StringNtNtCs8TYf9xf7DGp_16tsuzulint_plugin8manifest12RuleManifestENtNtB2K_4host10PluginHostNCNvB4_12lint_contents0_0E0B6_
FN:521,_RNCINvNtCs47f85yxqTTa_14tsuzulint_core11file_linter23any_rule_has_capabilityINtNtNtNtCsaa59N1qzrfe_3std11collections4hash3map4KeysNtNtCsauO83Ko6oyK_5alloc6string6StringNtNtCs8TYf9xf7DGp_16tsuzulint_plugin8manifest12RuleManifestENtNtB2K_4host10PluginHostNCNvB4_12lint_contents1_0E0B6_
FN:544,_RNCINvNtCs47f85yxqTTa_14tsuzulint_core11file_linter24any_rule_needs_sentencesINtNtNtCs4kUJL3MZFFz_4core5slice4iter4IterNtNtCsauO83Ko6oyK_5alloc6string6StringENtNtB4_5tests20MockManifestProviderE0B6_
FN:544,_RNCINvNtCs47f85yxqTTa_14tsuzulint_core11file_linter24any_rule_needs_sentencesINtNtNtNtCsaa59N1qzrfe_3std11collections4hash3map4KeysNtNtCsauO83Ko6oyK_5alloc6string6StringNtNtCs8TYf9xf7DGp_16tsuzulint_plugin8manifest12RuleManifestENtNtB2L_4host10PluginHostE0B6_
FN:536,_RNCINvNtCs47f85yxqTTa_14tsuzulint_core11file_linter25any_rule_needs_morphologyINtNtNtCs4kUJL3MZFFz_4core5slice4iter4IterNtNtCsauO83Ko6oyK_5alloc6string6StringENtNtB4_5tests20MockManifestProviderE0B6_
FN:536,_RNCINvNtCs47f85yxqTTa_14tsuzulint_core11file_linter25any_rule_needs_morphologyINtNtNtNtCsaa59N1qzrfe_3std11collections4hash3map4KeysNtNtCsauO83Ko6oyK_5alloc6string6StringNtNtCs8TYf9xf7DGp_16tsuzulint_plugin8manifest12RuleManifestENtNtB2M_4host10PluginHostE0B6_
FN:117,_RNCNCNvNtCs47f85yxqTTa_14tsuzulint_core11file_linter18lint_file_internals1_00B7_
FN:120,_RNCNCNvNtCs47f85yxqTTa_14tsuzulint_core11file_linter18lint_file_internals2_00B7_
FN:363,_RNCNvNtCs47f85yxqTTa_14tsuzulint_core11file_linter12lint_content0B5_
FN:376,_RNCNvNtCs47f85yxqTTa_14tsuzulint_core11file_linter12lint_contents0_0B5_
FN:379,_RNCNvNtCs47f85yxqTTa_14tsuzulint_core11file_linter12lint_contents1_0B5_
FN:384,_RNCNvNtCs47f85yxqTTa_14tsuzulint_core11file_linter12lint_contents2_0B5_
FN:369,_RNCNvNtCs47f85yxqTTa_14tsuzulint_core11file_linter12lint_contents_0B5_
FN:84,_RNCNvNtCs47f85yxqTTa_14tsuzulint_core11file_linter18lint_file_internal0B5_
FN:102,_RNCNvNtCs47f85yxqTTa_14tsuzulint_core11file_linter18lint_file_internals0_0B5_
FN:117,_RNCNvNtCs47f85yxqTTa_14tsuzulint_core11file_linter18lint_file_internals1_0B5_
FN:120,_RNCNvNtCs47f85yxqTTa_14tsuzulint_core11file_linter18lint_file_internals2_0B5_
FN:127,_RNCNvNtCs47f85yxqTTa_14tsuzulint_core11file_linter18lint_file_internals3_0B5_
FN:142,_RNCNvNtCs47f85yxqTTa_14tsuzulint_core11file_linter18lint_file_internals4_0B5_
FN:180,_RNCNvNtCs47f85yxqTTa_14tsuzulint_core11file_linter18lint_file_internals5_0B5_
FN:205,_RNCNvNtCs47f85yxqTTa_14tsuzulint_core11file_linter18lint_file_internals6_0B5_
FN:281,_RNCNvNtCs47f85yxqTTa_14tsuzulint_core11file_linter18lint_file_internals7_0B5_
FN:314,_RNCNvNtCs47f85yxqTTa_14tsuzulint_core11file_linter18lint_file_internals8_0B5_
FN:341,_RNCNvNtCs47f85yxqTTa_14tsuzulint_core11file_linter18lint_file_internals9_0B5_
FN:96,_RNCNvNtCs47f85yxqTTa_14tsuzulint_core11file_linter18lint_file_internals_0B5_
FN:501,_RNCNvNtCs47f85yxqTTa_14tsuzulint_core11file_linter29filter_overridden_diagnostics0B5_
FN:500,_RNCNvNtCs47f85yxqTTa_14tsuzulint_core11file_linter29filter_overridden_diagnosticss_0B5_
FN:815,_RNCNvNtNtCs47f85yxqTTa_14tsuzulint_core11file_linter5testss_52test_any_rule_has_capability_no_enabled_rules_filter0B7_
FN:824,_RNCNvNtNtCs47f85yxqTTa_14tsuzulint_core11file_linter5testss_52test_any_rule_has_capability_no_enabled_rules_filters_0B7_
FN:455,_RNvXs_NtCs47f85yxqTTa_14tsuzulint_core11file_linterNtNtCs8TYf9xf7DGp_16tsuzulint_plugin4host10PluginHostNtB4_16ManifestProvider12get_manifest
FN:563,_RNvNtNtCs47f85yxqTTa_14tsuzulint_core11file_linter5tests15create_manifest
FN:577,_RNvNtNtCs47f85yxqTTa_14tsuzulint_core11file_linter5tests33create_manifest_with_capabilities
FN:838,_RNvNtNtCs47f85yxqTTa_14tsuzulint_core11file_linter5testss_23test_select_parser_text
FN:586,_RNvNtNtCs47f85yxqTTa_14tsuzulint_core11file_linter5testss_25test_get_classified_rules
FN:829,_RNvNtNtCs47f85yxqTTa_14tsuzulint_core11file_linter5testss_27test_select_parser_markdown
FN:745,_RNvNtNtCs47f85yxqTTa_14tsuzulint_core11file_linter5testss_29test_any_rule_needs_sentences
FN:694,_RNvNtNtCs47f85yxqTTa_14tsuzulint_core11file_linter5testss_30test_any_rule_needs_morphology
FN:655,_RNvNtNtCs47f85yxqTTa_14tsuzulint_core11file_linter5testss_34test_filter_overridden_diagnostics
FN:853,_RNvNtNtCs47f85yxqTTa_14tsuzulint_core11file_linter5testss_35test_select_parser_case_insensitive
FN:870,_RNvNtNtCs47f85yxqTTa_14tsuzulint_core11file_linter5testss_39test_file_parser_text_parse_returns_ast
FN:862,_RNvNtNtCs47f85yxqTTa_14tsuzulint_core11file_linter5testss_43test_file_parser_markdown_parse_returns_ast
FN:683,_RNvNtNtCs47f85yxqTTa_14tsuzulint_core11file_linter5testss_43test_filter_overridden_diagnostics_no_match
FN:847,_RNvNtNtCs47f85yxqTTa_14tsuzulint_core11file_linter5testss_43test_select_parser_unknown_defaults_to_text
FN:626,_RNvNtNtCs47f85yxqTTa_14tsuzulint_core11file_linter5testss_47test_get_classified_rules_returns_sorted_output
FN:878,_RNvNtNtCs47f85yxqTTa_14tsuzulint_core11file_linter5testss_48test_file_parser_markdown_extensions_contains_md
FN:673,_RNvNtNtCs47f85yxqTTa_14tsuzulint_core11file_linter5testss_51test_filter_overridden_diagnostics_empty_global_set
FN:796,_RNvNtNtCs47f85yxqTTa_14tsuzulint_core11file_linter5testss_52test_any_rule_has_capability_no_enabled_rules_filter
FN:558,_RNvXNtNtCs47f85yxqTTa_14tsuzulint_core11file_linter5testsNtB2_20MockManifestProviderNtB4_16ManifestProvider12get_manifest
FNDA:0,_RINvNtCsdHNy3eV5zAX_14tsuzulint_core11file_linter12to_raw_valueNtNtCs9bJaZoOZVf6_13tsuzulint_ast4node7TxtNodeEB4_
FNDA:16,_RINvNtCsdHNy3eV5zAX_14tsuzulint_core11file_linter20get_classified_rulesNtNtCs8TYf9xf7DGp_16tsuzulint_plugin4host10PluginHostEB4_
FNDA:16,_RINvNtCsdHNy3eV5zAX_14tsuzulint_core11file_linter23any_rule_has_capabilityINtNtNtNtCsaa59N1qzrfe_3std11collections4hash3map4KeysNtNtCsauO83Ko6oyK_5alloc6string6StringNtNtCs8TYf9xf7DGp_16tsuzulint_plugin8manifest12RuleManifestENtNtB2I_4host10PluginHostNCINvB2_24any_rule_needs_sentencesB1a_B3C_E0EB4_
FNDA:16,_RINvNtCsdHNy3eV5zAX_14tsuzulint_core11file_linter23any_rule_has_capabilityINtNtNtNtCsaa59N1qzrfe_3std11collections4hash3map4KeysNtNtCsauO83Ko6oyK_5alloc6string6StringNtNtCs8TYf9xf7DGp_16tsuzulint_plugin8manifest12RuleManifestENtNtB2I_4host10PluginHostNCINvB2_25any_rule_needs_morphologyB1a_B3C_E0EB4_
FNDA:0,_RINvNtCsdHNy3eV5zAX_14tsuzulint_core11file_linter23any_rule_has_capabilityINtNtNtNtCsaa59N1qzrfe_3std11collections4hash3map4KeysNtNtCsauO83Ko6oyK_5alloc6string6StringNtNtCs8TYf9xf7DGp_16tsuzulint_plugin8manifest12RuleManifestENtNtB2I_4host10PluginHostNCNvB2_12lint_contents0_0EB4_
FNDA:0,_RINvNtCsdHNy3eV5zAX_14tsuzulint_core11file_linter23any_rule_has_capabilityINtNtNtNtCsaa59N1qzrfe_3std11collections4hash3map4KeysNtNtCsauO83Ko6oyK_5alloc6string6StringNtNtCs8TYf9xf7DGp_16tsuzulint_plugin8manifest12RuleManifestENtNtB2I_4host10PluginHostNCNvB2_12lint_contents1_0EB4_
FNDA:16,_RINvNtCsdHNy3eV5zAX_14tsuzulint_core11file_linter24any_rule_needs_sentencesINtNtNtNtCsaa59N1qzrfe_3std11collections4hash3map4KeysNtNtCsauO83Ko6oyK_5alloc6string6StringNtNtCs8TYf9xf7DGp_16tsuzulint_plugin8manifest12RuleManifestENtNtB2J_4host10PluginHostEB4_
FNDA:16,_RINvNtCsdHNy3eV5zAX_14tsuzulint_core11file_linter25any_rule_needs_morphologyINtNtNtNtCsaa59N1qzrfe_3std11collections4hash3map4KeysNtNtCsauO83Ko6oyK_5alloc6string6StringNtNtCs8TYf9xf7DGp_16tsuzulint_plugin8manifest12RuleManifestENtNtB2K_4host10PluginHostEB4_
FNDA:0,_RNCINvNtCsdHNy3eV5zAX_14tsuzulint_core11file_linter12to_raw_valueNtNtCs9bJaZoOZVf6_13tsuzulint_ast4node7TxtNodeE0B6_
FNDA:0,_RNCINvNtCsdHNy3eV5zAX_14tsuzulint_core11file_linter23any_rule_has_capabilityINtNtNtNtCsaa59N1qzrfe_3std11collections4hash3map4KeysNtNtCsauO83Ko6oyK_5alloc6string6StringNtNtCs8TYf9xf7DGp_16tsuzulint_plugin8manifest12RuleManifestENtNtB2K_4host10PluginHostNCINvB4_24any_rule_needs_sentencesB1c_B3E_E0E0B6_
FNDA:0,_RNCINvNtCsdHNy3eV5zAX_14tsuzulint_core11file_linter23any_rule_has_capabilityINtNtNtNtCsaa59N1qzrfe_3std11collections4hash3map4KeysNtNtCsauO83Ko6oyK_5alloc6string6StringNtNtCs8TYf9xf7DGp_16tsuzulint_plugin8manifest12RuleManifestENtNtB2K_4host10PluginHostNCINvB4_25any_rule_needs_morphologyB1c_B3E_E0E0B6_
FNDA:0,_RNCINvNtCsdHNy3eV5zAX_14tsuzulint_core11file_linter23any_rule_has_capabilityINtNtNtNtCsaa59N1qzrfe_3std11collections4hash3map4KeysNtNtCsauO83Ko6oyK_5alloc6string6StringNtNtCs8TYf9xf7DGp_16tsuzulint_plugin8manifest12RuleManifestENtNtB2K_4host10PluginHostNCNvB4_12lint_contents0_0E0B6_
FNDA:0,_RNCINvNtCsdHNy3eV5zAX_14tsuzulint_core11file_linter23any_rule_has_capabilityINtNtNtNtCsaa59N1qzrfe_3std11collections4hash3map4KeysNtNtCsauO83Ko6oyK_5alloc6string6StringNtNtCs8TYf9xf7DGp_16tsuzulint_plugin8manifest12RuleManifestENtNtB2K_4host10PluginHostNCNvB4_12lint_contents1_0E0B6_
FNDA:0,_RNCINvNtCsdHNy3eV5zAX_14tsuzulint_core11file_linter24any_rule_needs_sentencesINtNtNtNtCsaa59N1qzrfe_3std11collections4hash3map4KeysNtNtCsauO83Ko6oyK_5alloc6string6StringNtNtCs8TYf9xf7DGp_16tsuzulint_plugin8manifest12RuleManifestENtNtB2L_4host10PluginHostE0B6_
FNDA:0,_RNCINvNtCsdHNy3eV5zAX_14tsuzulint_core11file_linter25any_rule_needs_morphologyINtNtNtNtCsaa59N1qzrfe_3std11collections4hash3map4KeysNtNtCsauO83Ko6oyK_5alloc6string6StringNtNtCs8TYf9xf7DGp_16tsuzulint_plugin8manifest12RuleManifestENtNtB2M_4host10PluginHostE0B6_
FNDA:0,_RNCNCNvNtCsdHNy3eV5zAX_14tsuzulint_core11file_linter18lint_file_internals1_00B7_
FNDA:0,_RNCNCNvNtCsdHNy3eV5zAX_14tsuzulint_core11file_linter18lint_file_internals2_00B7_
FNDA:0,_RNCNvNtCsdHNy3eV5zAX_14tsuzulint_core11file_linter12lint_content0B5_
FNDA:0,_RNCNvNtCsdHNy3eV5zAX_14tsuzulint_core11file_linter12lint_contents0_0B5_
FNDA:0,_RNCNvNtCsdHNy3eV5zAX_14tsuzulint_core11file_linter12lint_contents1_0B5_
FNDA:0,_RNCNvNtCsdHNy3eV5zAX_14tsuzulint_core11file_linter12lint_contents2_0B5_
FNDA:0,_RNCNvNtCsdHNy3eV5zAX_14tsuzulint_core11file_linter12lint_contents_0B5_
FNDA:0,_RNCNvNtCsdHNy3eV5zAX_14tsuzulint_core11file_linter18lint_file_internal0B5_
FNDA:0,_RNCNvNtCsdHNy3eV5zAX_14tsuzulint_core11file_linter18lint_file_internals0_0B5_
FNDA:10,_RNCNvNtCsdHNy3eV5zAX_14tsuzulint_core11file_linter18lint_file_internals1_0B5_
FNDA:10,_RNCNvNtCsdHNy3eV5zAX_14tsuzulint_core11file_linter18lint_file_internals2_0B5_
FNDA:0,_RNCNvNtCsdHNy3eV5zAX_14tsuzulint_core11file_linter18lint_file_internals3_0B5_
FNDA:0,_RNCNvNtCsdHNy3eV5zAX_14tsuzulint_core11file_linter18lint_file_internals4_0B5_
FNDA:0,_RNCNvNtCsdHNy3eV5zAX_14tsuzulint_core11file_linter18lint_file_internals5_0B5_
FNDA:0,_RNCNvNtCsdHNy3eV5zAX_14tsuzulint_core11file_linter18lint_file_internals6_0B5_
FNDA:0,_RNCNvNtCsdHNy3eV5zAX_14tsuzulint_core11file_linter18lint_file_internals7_0B5_
FNDA:0,_RNCNvNtCsdHNy3eV5zAX_14tsuzulint_core11file_linter18lint_file_internals8_0B5_
FNDA:0,_RNCNvNtCsdHNy3eV5zAX_14tsuzulint_core11file_linter18lint_file_internals9_0B5_
FNDA:16,_RNCNvNtCsdHNy3eV5zAX_14tsuzulint_core11file_linter18lint_file_internals_0B5_
FNDA:0,_RNCNvNtCsdHNy3eV5zAX_14tsuzulint_core11file_linter29filter_overridden_diagnostics0B5_
FNDA:0,_RNCNvNtCsdHNy3eV5zAX_14tsuzulint_core11file_linter29filter_overridden_diagnosticss_0B5_
FNDA:0,_RNvNtCsdHNy3eV5zAX_14tsuzulint_core11file_linter12lint_content
FNDA:16,_RNvNtCsdHNy3eV5zAX_14tsuzulint_core11file_linter13select_parser
FNDA:16,_RNvNtCsdHNy3eV5zAX_14tsuzulint_core11file_linter18lint_file_internal
FNDA:16,_RNvNtCsdHNy3eV5zAX_14tsuzulint_core11file_linter29filter_overridden_diagnostics
FNDA:0,_RNvXNtCsdHNy3eV5zAX_14tsuzulint_core11file_linterNtB2_10FileParserNtNtCs6rVTX6UnG69_16tsuzulint_parser6traits6Parser10extensions
FNDA:0,_RNvXNtCsdHNy3eV5zAX_14tsuzulint_core11file_linterNtB2_10FileParserNtNtCs6rVTX6UnG69_16tsuzulint_parser6traits6Parser4name
FNDA:16,_RNvXNtCsdHNy3eV5zAX_14tsuzulint_core11file_linterNtB2_10FileParserNtNtCs6rVTX6UnG69_16tsuzulint_parser6traits6Parser5parse
FNDA:10,_RNvXs_NtCsdHNy3eV5zAX_14tsuzulint_core11file_linterNtNtCs8TYf9xf7DGp_16tsuzulint_plugin4host10PluginHostNtB4_16ManifestProvider12get_manifest
FNDA:5,_RNvNtCs47f85yxqTTa_14tsuzulint_core11file_linter12lint_content
FNDA:29,_RNvNtCs47f85yxqTTa_14tsuzulint_core11file_linter13select_parser
FNDA:21,_RNvNtCs47f85yxqTTa_14tsuzulint_core11file_linter18lint_file_internal
FNDA:17,_RNvNtCs47f85yxqTTa_14tsuzulint_core11file_linter29filter_overridden_diagnostics
FNDA:1,_RNvXNtCs47f85yxqTTa_14tsuzulint_core11file_linterNtB2_10FileParserNtNtCs6rVTX6UnG69_16tsuzulint_parser6traits6Parser10extensions
FNDA:7,_RNvXNtCs47f85yxqTTa_14tsuzulint_core11file_linterNtB2_10FileParserNtNtCs6rVTX6UnG69_16tsuzulint_parser6traits6Parser4name
FNDA:21,_RNvXNtCs47f85yxqTTa_14tsuzulint_core11file_linterNtB2_10FileParserNtNtCs6rVTX6UnG69_16tsuzulint_parser6traits6Parser5parse
FNDA:6,_RINvNtCs47f85yxqTTa_14tsuzulint_core11file_linter12to_raw_valueNtNtCs9bJaZoOZVf6_13tsuzulint_ast4node7TxtNodeEB4_
FNDA:2,_RINvNtCs47f85yxqTTa_14tsuzulint_core11file_linter20get_classified_rulesNtNtB2_5tests20MockManifestProviderEB4_
FNDA:14,_RINvNtCs47f85yxqTTa_14tsuzulint_core11file_linter20get_classified_rulesNtNtCs8TYf9xf7DGp_16tsuzulint_plugin4host10PluginHostEB4_
FNDA:4,_RINvNtCs47f85yxqTTa_14tsuzulint_core11file_linter23any_rule_has_capabilityINtNtNtCs4kUJL3MZFFz_4core5slice4iter4IterNtNtCsauO83Ko6oyK_5alloc6string6StringENtNtB2_5tests20MockManifestProviderNCINvB2_24any_rule_needs_sentencesB1a_B2t_E0EB4_
FNDA:4,_RINvNtCs47f85yxqTTa_14tsuzulint_core11file_linter23any_rule_has_capabilityINtNtNtCs4kUJL3MZFFz_4core5slice4iter4IterNtNtCsauO83Ko6oyK_5alloc6string6StringENtNtB2_5tests20MockManifestProviderNCINvB2_25any_rule_needs_morphologyB1a_B2t_E0EB4_
FNDA:1,_RINvNtCs47f85yxqTTa_14tsuzulint_core11file_linter23any_rule_has_capabilityINtNtNtCs4kUJL3MZFFz_4core5slice4iter4IterNtNtCsauO83Ko6oyK_5alloc6string6StringENtNtB2_5tests20MockManifestProviderNCNvB2v_s_52test_any_rule_has_capability_no_enabled_rules_filter0EB4_
FNDA:1,_RINvNtCs47f85yxqTTa_14tsuzulint_core11file_linter23any_rule_has_capabilityINtNtNtCs4kUJL3MZFFz_4core5slice4iter4IterNtNtCsauO83Ko6oyK_5alloc6string6StringENtNtB2_5tests20MockManifestProviderNCNvB2v_s_52test_any_rule_has_capability_no_enabled_rules_filters_0EB4_
FNDA:14,_RINvNtCs47f85yxqTTa_14tsuzulint_core11file_linter23any_rule_has_capabilityINtNtNtNtCsaa59N1qzrfe_3std11collections4hash3map4KeysNtNtCsauO83Ko6oyK_5alloc6string6StringNtNtCs8TYf9xf7DGp_16tsuzulint_plugin8manifest12RuleManifestENtNtB2I_4host10PluginHostNCINvB2_24any_rule_needs_sentencesB1a_B3C_E0EB4_
FNDA:14,_RINvNtCs47f85yxqTTa_14tsuzulint_core11file_linter23any_rule_has_capabilityINtNtNtNtCsaa59N1qzrfe_3std11collections4hash3map4KeysNtNtCsauO83Ko6oyK_5alloc6string6StringNtNtCs8TYf9xf7DGp_16tsuzulint_plugin8manifest12RuleManifestENtNtB2I_4host10PluginHostNCINvB2_25any_rule_needs_morphologyB1a_B3C_E0EB4_
FNDA:5,_RINvNtCs47f85yxqTTa_14tsuzulint_core11file_linter23any_rule_has_capabilityINtNtNtNtCsaa59N1qzrfe_3std11collections4hash3map4KeysNtNtCsauO83Ko6oyK_5alloc6string6StringNtNtCs8TYf9xf7DGp_16tsuzulint_plugin8manifest12RuleManifestENtNtB2I_4host10PluginHostNCNvB2_12lint_contents0_0EB4_
FNDA:5,_RINvNtCs47f85yxqTTa_14tsuzulint_core11file_linter23any_rule_has_capabilityINtNtNtNtCsaa59N1qzrfe_3std11collections4hash3map4KeysNtNtCsauO83Ko6oyK_5alloc6string6StringNtNtCs8TYf9xf7DGp_16tsuzulint_plugin8manifest12RuleManifestENtNtB2I_4host10PluginHostNCNvB2_12lint_contents1_0EB4_
FNDA:4,_RINvNtCs47f85yxqTTa_14tsuzulint_core11file_linter24any_rule_needs_sentencesINtNtNtCs4kUJL3MZFFz_4core5slice4iter4IterNtNtCsauO83Ko6oyK_5alloc6string6StringENtNtB2_5tests20MockManifestProviderEB4_
FNDA:14,_RINvNtCs47f85yxqTTa_14tsuzulint_core11file_linter24any_rule_needs_sentencesINtNtNtNtCsaa59N1qzrfe_3std11collections4hash3map4KeysNtNtCsauO83Ko6oyK_5alloc6string6StringNtNtCs8TYf9xf7DGp_16tsuzulint_plugin8manifest12RuleManifestENtNtB2J_4host10PluginHostEB4_
FNDA:4,_RINvNtCs47f85yxqTTa_14tsuzulint_core11file_linter25any_rule_needs_morphologyINtNtNtCs4kUJL3MZFFz_4core5slice4iter4IterNtNtCsauO83Ko6oyK_5alloc6string6StringENtNtB2_5tests20MockManifestProviderEB4_
FNDA:14,_RINvNtCs47f85yxqTTa_14tsuzulint_core11file_linter25any_rule_needs_morphologyINtNtNtNtCsaa59N1qzrfe_3std11collections4hash3map4KeysNtNtCsauO83Ko6oyK_5alloc6string6StringNtNtCs8TYf9xf7DGp_16tsuzulint_plugin8manifest12RuleManifestENtNtB2K_4host10PluginHostEB4_
FNDA:0,_RNCINvNtCs47f85yxqTTa_14tsuzulint_core11file_linter12to_raw_valueNtNtCs9bJaZoOZVf6_13tsuzulint_ast4node7TxtNodeE0B6_
FNDA:4,_RNCINvNtCs47f85yxqTTa_14tsuzulint_core11file_linter23any_rule_has_capabilityINtNtNtCs4kUJL3MZFFz_4core5slice4iter4IterNtNtCsauO83Ko6oyK_5alloc6string6StringENtNtB4_5tests20MockManifestProviderNCINvB4_24any_rule_needs_sentencesB1c_B2v_E0E0B6_
FNDA:4,_RNCINvNtCs47f85yxqTTa_14tsuzulint_core11file_linter23any_rule_has_capabilityINtNtNtCs4kUJL3MZFFz_4core5slice4iter4IterNtNtCsauO83Ko6oyK_5alloc6string6StringENtNtB4_5tests20MockManifestProviderNCINvB4_25any_rule_needs_morphologyB1c_B2v_E0E0B6_
FNDA:0,_RNCINvNtCs47f85yxqTTa_14tsuzulint_core11file_linter23any_rule_has_capabilityINtNtNtCs4kUJL3MZFFz_4core5slice4iter4IterNtNtCsauO83Ko6oyK_5alloc6string6StringENtNtB4_5tests20MockManifestProviderNCNvB2x_s_52test_any_rule_has_capability_no_enabled_rules_filter0E0B6_
FNDA:0,_RNCINvNtCs47f85yxqTTa_14tsuzulint_core11file_linter23any_rule_has_capabilityINtNtNtCs4kUJL3MZFFz_4core5slice4iter4IterNtNtCsauO83Ko6oyK_5alloc6string6StringENtNtB4_5tests20MockManifestProviderNCNvB2x_s_52test_any_rule_has_capability_no_enabled_rules_filters_0E0B6_
FNDA:7,_RNCINvNtCs47f85yxqTTa_14tsuzulint_core11file_linter23any_rule_has_capabilityINtNtNtNtCsaa59N1qzrfe_3std11collections4hash3map4KeysNtNtCsauO83Ko6oyK_5alloc6string6StringNtNtCs8TYf9xf7DGp_16tsuzulint_plugin8manifest12RuleManifestENtNtB2K_4host10PluginHostNCINvB4_24any_rule_needs_sentencesB1c_B3E_E0E0B6_
FNDA:7,_RNCINvNtCs47f85yxqTTa_14tsuzulint_core11file_linter23any_rule_has_capabilityINtNtNtNtCsaa59N1qzrfe_3std11collections4hash3map4KeysNtNtCsauO83Ko6oyK_5alloc6string6StringNtNtCs8TYf9xf7DGp_16tsuzulint_plugin8manifest12RuleManifestENtNtB2K_4host10PluginHostNCINvB4_25any_rule_needs_morphologyB1c_B3E_E0E0B6_
FNDA:0,_RNCINvNtCs47f85yxqTTa_14tsuzulint_core11file_linter23any_rule_has_capabilityINtNtNtNtCsaa59N1qzrfe_3std11collections4hash3map4KeysNtNtCsauO83Ko6oyK_5alloc6string6StringNtNtCs8TYf9xf7DGp_16tsuzulint_plugin8manifest12RuleManifestENtNtB2K_4host10PluginHostNCNvB4_12lint_contents0_0E0B6_
FNDA:0,_RNCINvNtCs47f85yxqTTa_14tsuzulint_core11file_linter23any_rule_has_capabilityINtNtNtNtCsaa59N1qzrfe_3std11collections4hash3map4KeysNtNtCsauO83Ko6oyK_5alloc6string6StringNtNtCs8TYf9xf7DGp_16tsuzulint_plugin8manifest12RuleManifestENtNtB2K_4host10PluginHostNCNvB4_12lint_contents1_0E0B6_
FNDA:2,_RNCINvNtCs47f85yxqTTa_14tsuzulint_core11file_linter24any_rule_needs_sentencesINtNtNtCs4kUJL3MZFFz_4core5slice4iter4IterNtNtCsauO83Ko6oyK_5alloc6string6StringENtNtB4_5tests20MockManifestProviderE0B6_
FNDA:7,_RNCINvNtCs47f85yxqTTa_14tsuzulint_core11file_linter24any_rule_needs_sentencesINtNtNtNtCsaa59N1qzrfe_3std11collections4hash3map4KeysNtNtCsauO83Ko6oyK_5alloc6string6StringNtNtCs8TYf9xf7DGp_16tsuzulint_plugin8manifest12RuleManifestENtNtB2L_4host10PluginHostE0B6_
FNDA:2,_RNCINvNtCs47f85yxqTTa_14tsuzulint_core11file_linter25any_rule_needs_morphologyINtNtNtCs4kUJL3MZFFz_4core5slice4iter4IterNtNtCsauO83Ko6oyK_5alloc6string6StringENtNtB4_5tests20MockManifestProviderE0B6_
FNDA:7,_RNCINvNtCs47f85yxqTTa_14tsuzulint_core11file_linter25any_rule_needs_morphologyINtNtNtNtCsaa59N1qzrfe_3std11collections4hash3map4KeysNtNtCsauO83Ko6oyK_5alloc6string6StringNtNtCs8TYf9xf7DGp_16tsuzulint_plugin8manifest12RuleManifestENtNtB2M_4host10PluginHostE0B6_
FNDA:0,_RNCNCNvNtCs47f85yxqTTa_14tsuzulint_core11file_linter18lint_file_internals1_00B7_
FNDA:0,_RNCNCNvNtCs47f85yxqTTa_14tsuzulint_core11file_linter18lint_file_internals2_00B7_
FNDA:5,_RNCNvNtCs47f85yxqTTa_14tsuzulint_core11file_linter12lint_content0B5_
FNDA:3,_RNCNvNtCs47f85yxqTTa_14tsuzulint_core11file_linter12lint_contents0_0B5_
FNDA:3,_RNCNvNtCs47f85yxqTTa_14tsuzulint_core11file_linter12lint_contents1_0B5_
FNDA:0,_RNCNvNtCs47f85yxqTTa_14tsuzulint_core11file_linter12lint_contents2_0B5_
FNDA:0,_RNCNvNtCs47f85yxqTTa_14tsuzulint_core11file_linter12lint_contents_0B5_
FNDA:0,_RNCNvNtCs47f85yxqTTa_14tsuzulint_core11file_linter18lint_file_internal0B5_
FNDA:0,_RNCNvNtCs47f85yxqTTa_14tsuzulint_core11file_linter18lint_file_internals0_0B5_
FNDA:7,_RNCNvNtCs47f85yxqTTa_14tsuzulint_core11file_linter18lint_file_internals1_0B5_
FNDA:7,_RNCNvNtCs47f85yxqTTa_14tsuzulint_core11file_linter18lint_file_internals2_0B5_
FNDA:0,_RNCNvNtCs47f85yxqTTa_14tsuzulint_core11file_linter18lint_file_internals3_0B5_
FNDA:0,_RNCNvNtCs47f85yxqTTa_14tsuzulint_core11file_linter18lint_file_internals4_0B5_
FNDA:0,_RNCNvNtCs47f85yxqTTa_14tsuzulint_core11file_linter18lint_file_internals5_0B5_
FNDA:2,_RNCNvNtCs47f85yxqTTa_14tsuzulint_core11file_linter18lint_file_internals6_0B5_
FNDA:8,_RNCNvNtCs47f85yxqTTa_14tsuzulint_core11file_linter18lint_file_internals7_0B5_
FNDA:0,_RNCNvNtCs47f85yxqTTa_14tsuzulint_core11file_linter18lint_file_internals8_0B5_
FNDA:0,_RNCNvNtCs47f85yxqTTa_14tsuzulint_core11file_linter18lint_file_internals9_0B5_
FNDA:14,_RNCNvNtCs47f85yxqTTa_14tsuzulint_core11file_linter18lint_file_internals_0B5_
FNDA:3,_RNCNvNtCs47f85yxqTTa_14tsuzulint_core11file_linter29filter_overridden_diagnostics0B5_
FNDA:1,_RNCNvNtCs47f85yxqTTa_14tsuzulint_core11file_linter29filter_overridden_diagnosticss_0B5_
FNDA:1,_RNCNvNtNtCs47f85yxqTTa_14tsuzulint_core11file_linter5testss_52test_any_rule_has_capability_no_enabled_rules_filter0B7_
FNDA:1,_RNCNvNtNtCs47f85yxqTTa_14tsuzulint_core11file_linter5testss_52test_any_rule_has_capability_no_enabled_rules_filters_0B7_
FNDA:27,_RNvXs_NtCs47f85yxqTTa_14tsuzulint_core11file_linterNtNtCs8TYf9xf7DGp_16tsuzulint_plugin4host10PluginHostNtB4_16ManifestProvider12get_manifest
FNDA:13,_RNvNtNtCs47f85yxqTTa_14tsuzulint_core11file_linter5tests15create_manifest
FNDA:6,_RNvNtNtCs47f85yxqTTa_14tsuzulint_core11file_linter5tests33create_manifest_with_capabilities
FNDA:1,_RNvNtNtCs47f85yxqTTa_14tsuzulint_core11file_linter5testss_23test_select_parser_text
FNDA:1,_RNvNtNtCs47f85yxqTTa_14tsuzulint_core11file_linter5testss_25test_get_classified_rules
FNDA:1,_RNvNtNtCs47f85yxqTTa_14tsuzulint_core11file_linter5testss_27test_select_parser_markdown
FNDA:1,_RNvNtNtCs47f85yxqTTa_14tsuzulint_core11file_linter5testss_29test_any_rule_needs_sentences
FNDA:1,_RNvNtNtCs47f85yxqTTa_14tsuzulint_core11file_linter5testss_30test_any_rule_needs_morphology
FNDA:1,_RNvNtNtCs47f85yxqTTa_14tsuzulint_core11file_linter5testss_34test_filter_overridden_diagnostics
FNDA:1,_RNvNtNtCs47f85yxqTTa_14tsuzulint_core11file_linter5testss_35test_select_parser_case_insensitive
FNDA:1,_RNvNtNtCs47f85yxqTTa_14tsuzulint_core11file_linter5testss_39test_file_parser_text_parse_returns_ast
FNDA:1,_RNvNtNtCs47f85yxqTTa_14tsuzulint_core11file_linter5testss_43test_file_parser_markdown_parse_returns_ast
FNDA:1,_RNvNtNtCs47f85yxqTTa_14tsuzulint_core11file_linter5testss_43test_filter_overridden_diagnostics_no_match
FNDA:1,_RNvNtNtCs47f85yxqTTa_14tsuzulint_core11file_linter5testss_43test_select_parser_unknown_defaults_to_text
FNDA:1,_RNvNtNtCs47f85yxqTTa_14tsuzulint_core11file_linter5testss_47test_get_classified_rules_returns_sorted_output
FNDA:1,_RNvNtNtCs47f85yxqTTa_14tsuzulint_core11file_linter5testss_48test_file_parser_markdown_extensions_contains_md
FNDA:1,_RNvNtNtCs47f85yxqTTa_14tsuzulint_core11file_linter5testss_51test_filter_overridden_diagnostics_empty_global_set
FNDA:1,_RNvNtNtCs47f85yxqTTa_14tsuzulint_core11file_linter5testss_52test_any_rule_has_capability_no_enabled_rules_filter
FNDA:15,_RNvXNtNtCs47f85yxqTTa_14tsuzulint_core11file_linter5testsNtB2_20MockManifestProviderNtB4_16ManifestProvider12get_manifest
FNF:58
FNH:46
DA:41,37
DA:43,37
DA:44,37
DA:45,37
DA:46,37
DA:47,37
DA:48,37
DA:49,37
DA:50,37
DA:51,37
DA:52,37
DA:53,37
DA:54,37
DA:59,37
DA:62,33
DA:63,33
DA:66,31
DA:67,31
DA:68,31
DA:69,31
DA:70,0
DA:74,31
DA:76,31
DA:82,31
DA:83,31
DA:84,31
DA:85,31
DA:86,1
DA:88,1
DA:89,1
DA:90,1
DA:91,1
DA:92,1
DA:93,30
DA:96,30
DA:97,30
DA:99,30
DA:100,30
DA:101,30
DA:102,30
DA:104,30
DA:108,30
DA:109,30
DA:110,30
DA:111,30
DA:114,30
DA:115,30
DA:116,30
DA:117,30
DA:118,30
DA:119,30
DA:120,30
DA:121,30
DA:122,30
DA:124,30
DA:125,0
DA:126,0
DA:127,0
DA:129,30
DA:131,30
DA:132,0
DA:134,30
DA:137,30
DA:139,30
DA:140,30
DA:141,30
DA:142,30
DA:143,30
DA:146,30
DA:148,30
DA:149,30
DA:150,30
DA:153,30
DA:154,5
DA:155,4
DA:156,4
DA:157,4
DA:158,4
DA:159,4
DA:160,4
DA:161,4
DA:162,4
DA:163,4
DA:164,4
DA:165,4
DA:166,0
DA:168,4
DA:169,4
DA:170,4
DA:171,0
DA:172,4
DA:173,4
DA:174,4
DA:175,0
DA:177,1
DA:178,1
DA:179,1
DA:180,1
DA:181,0
DA:182,0
DA:184,2
DA:185,2
DA:186,2
DA:187,2
DA:188,0
DA:190,2
DA:191,2
DA:192,2
DA:193,0
DA:194,2
DA:195,2
DA:196,2
DA:197,0
DA:200,25
DA:202,30
DA:203,1
DA:204,1
DA:205,2
DA:206,2
DA:207,2
DA:208,2
DA:209,2
DA:210,2
DA:211,2
DA:212,2
DA:213,2
DA:214,2
DA:215,2
DA:216,2
DA:217,2
DA:218,2
DA:219,2
DA:220,0
DA:222,2
DA:223,2
DA:224,2
DA:225,1
DA:226,1
DA:227,1
DA:228,1
DA:229,0
DA:230,0
DA:232,0
DA:233,0
DA:234,0
DA:235,0
DA:236,0
DA:237,0
DA:238,0
DA:239,0
DA:240,0
DA:241,0
DA:242,0
DA:243,0
DA:244,0
DA:246,0
DA:247,0
DA:248,0
DA:249,0
DA:250,0
DA:251,0
DA:252,0
DA:253,0
DA:256,0
DA:257,0
DA:261,0
DA:263,0
DA:264,2
DA:265,0
DA:266,2
DA:267,29
DA:276,30
DA:277,30
DA:278,30
DA:279,30
DA:280,30
DA:281,17
DA:282,7
DA:283,10
DA:284,10
DA:285,10
DA:287,0
DA:288,0
DA:289,0
DA:290,0
DA:291,0
DA:292,0
DA:293,0
DA:294,0
DA:295,0
DA:296,0
DA:297,0
DA:298,0
DA:299,0
DA:300,0
DA:301,0
DA:302,0
DA:303,0
DA:304,0
DA:305,0
DA:306,0
DA:309,30
DA:314,30
DA:315,30
DA:320,30
DA:322,30
DA:323,30
DA:328,30
DA:330,30
DA:331,30
DA:332,30
DA:333,30
DA:335,30
DA:336,30
DA:339,30
DA:340,30
DA:341,30
DA:342,30
DA:343,30
DA:344,30
DA:345,30
DA:346,30
DA:347,30
DA:349,30
DA:352,30
DA:353,30
DA:354,30
DA:355,37
DA:357,5
DA:358,5
DA:359,5
DA:360,5
DA:361,5
DA:362,5
DA:363,5
DA:364,5
DA:366,5
DA:367,5
DA:368,5
DA:369,5
DA:371,5
DA:373,5
DA:375,5
DA:376,5
DA:378,5
DA:379,5
DA:381,5
DA:382,0
DA:383,0
DA:384,0
DA:386,5
DA:388,5
DA:389,0
DA:391,5
DA:394,5
DA:395,5
DA:397,5
DA:398,5
DA:408,7
DA:409,7
DA:410,3
DA:411,4
DA:413,7
DA:415,1
DA:416,1
DA:417,1
DA:418,0
DA:420,1
DA:422,37
DA:423,37
DA:424,37
DA:425,37
DA:426,37
DA:427,37
DA:428,32
DA:429,5
DA:431,37
DA:434,45
DA:435,45
DA:436,36
DA:438,9
DA:440,45
DA:442,6
DA:443,6
DA:444,6
DA:445,6
DA:446,6
DA:447,6
DA:448,6
DA:455,37
DA:456,37
DA:457,37
DA:465,32
DA:466,32
DA:467,32
DA:468,32
DA:469,32
DA:470,32
DA:472,32
DA:473,32
DA:475,32
DA:476,24
DA:477,13
DA:478,9
DA:479,4
DA:481,11
DA:482,0
DA:483,0
DA:484,0
DA:485,11
DA:489,32
DA:490,32
DA:492,32
DA:493,32
DA:495,33
DA:496,33
DA:497,33
DA:498,33
DA:499,33
DA:500,7
DA:501,7
DA:502,3
DA:503,3
DA:504,3
DA:505,3
DA:506,26
DA:507,33
DA:509,80
DA:510,80
DA:511,80
DA:512,80
DA:513,80
DA:514,80
DA:515,80
DA:516,80
DA:517,80
DA:518,80
DA:520,80
DA:521,30
DA:522,2
DA:523,28
DA:524,28
DA:525,3
DA:526,25
DA:528,77
DA:529,80
DA:531,34
DA:532,34
DA:533,34
DA:534,34
DA:536,34
DA:537,34
DA:539,34
DA:540,34
DA:541,34
DA:542,34
DA:544,34
DA:545,34
DA:558,15
DA:559,15
DA:560,15
DA:563,13
DA:564,13
DA:565,13
DA:566,13
DA:567,13
DA:568,13
DA:569,13
DA:570,13
DA:571,13
DA:572,13
DA:573,13
DA:574,13
DA:575,13
DA:577,6
DA:578,6
DA:579,6
DA:580,6
DA:581,6
DA:582,6
DA:583,6
DA:586,1
DA:587,1
DA:588,1
DA:589,1
DA:590,1
DA:592,1
DA:593,1
DA:594,1
DA:595,1
DA:597,1
DA:598,1
DA:599,1
DA:601,1
DA:602,1
DA:603,1
DA:606,1
DA:608,1
DA:609,1
DA:610,1
DA:611,1
DA:613,1
DA:615,1
DA:616,1
DA:617,1
DA:619,1
DA:621,1
DA:622,1
DA:623,1
DA:626,1
DA:627,1
DA:628,1
DA:629,1
DA:630,1
DA:632,1
DA:633,1
DA:634,1
DA:636,1
DA:637,1
DA:638,1
DA:640,1
DA:641,1
DA:642,1
DA:645,1
DA:646,1
DA:648,1
DA:650,1
DA:651,1
DA:652,1
DA:655,1
DA:656,1
DA:657,1
DA:659,1
DA:660,1
DA:661,1
DA:664,1
DA:666,1
DA:668,1
DA:669,1
DA:670,1
DA:673,1
DA:674,1
DA:675,1
DA:677,1
DA:679,1
DA:680,1
DA:683,1
DA:684,1
DA:685,1
DA:687,1
DA:689,1
DA:690,1
DA:691,1
DA:694,1
DA:695,1
DA:696,1
DA:697,1
DA:698,1
DA:700,1
DA:701,1
DA:702,1
DA:705,1
DA:707,1
DA:708,1
DA:709,1
DA:710,1
DA:711,1
DA:712,1
DA:713,1
DA:716,1
DA:717,1
DA:718,1
DA:719,1
DA:720,1
DA:721,1
DA:722,1
DA:723,1
DA:725,1
DA:726,1
DA:727,1
DA:728,1
DA:729,1
DA:730,1
DA:731,1
DA:734,1
DA:735,1
DA:736,1
DA:737,1
DA:738,1
DA:739,1
DA:740,1
DA:741,1
DA:742,1
DA:745,1
DA:746,1
DA:747,1
DA:748,1
DA:749,1
DA:751,1
DA:752,1
DA:753,1
DA:756,1
DA:758,1
DA:759,1
DA:760,1
DA:761,1
DA:762,1
DA:763,1
DA:764,1
DA:767,1
DA:768,1
DA:769,1
DA:770,1
DA:771,1
DA:772,1
DA:773,1
DA:774,1
DA:776,1
DA:777,1
DA:778,1
DA:779,1
DA:780,1
DA:781,1
DA:782,1
DA:785,1
DA:786,1
DA:787,1
DA:788,1
DA:789,1
DA:790,1
DA:791,1
DA:792,1
DA:793,1
DA:796,1
DA:797,1
DA:798,1
DA:799,1
DA:800,1
DA:802,1
DA:803,1
DA:804,1
DA:807,1
DA:810,1
DA:811,1
DA:812,1
DA:813,1
DA:814,1
DA:815,1
DA:819,1
DA:820,1
DA:821,1
DA:822,1
DA:823,1
DA:824,1
DA:826,1
DA:829,1
DA:830,1
DA:831,1
DA:833,1
DA:834,1
DA:835,1
DA:838,1
DA:839,1
DA:840,1
DA:842,1
DA:843,1
DA:844,1
DA:847,1
DA:848,1
DA:849,1
DA:850,1
DA:853,1
DA:854,1
DA:855,1
DA:857,1
DA:858,1
DA:859,1
DA:862,1
DA:863,1
DA:864,1
DA:865,1
DA:866,1
DA:867,1
DA:870,1
DA:871,1
DA:872,1
DA:873,1
DA:874,1
DA:875,1
DA:878,1
DA:879,1
DA:880,1
DA:881,1
BRF:0
BRH:0
LF:619
LH:533
end_of_record
SF:/app/crates/tsuzulint_core/src/fix.rs
FN:17,_RNCNvMNtCsdHNy3eV5zAX_14tsuzulint_core3fixNtB4_15DependencyGraph16topological_sort0B6_
FN:35,_RNCNvMNtCsdHNy3eV5zAX_14tsuzulint_core3fixNtB4_15DependencyGraph16topological_sorts_0B6_
FN:84,_RINvMs0_NtCsdHNy3eV5zAX_14tsuzulint_core3fixNtB6_14FixCoordinator21apply_fixes_iterativepEB8_
FN:98,_RNCINvMs0_NtCsdHNy3eV5zAX_14tsuzulint_core3fixNtB8_14FixCoordinator21apply_fixes_iterativepE0Ba_
FN:16,_RNvMNtCs47f85yxqTTa_14tsuzulint_core3fixNtB2_15DependencyGraph16topological_sort
FN:9,_RNvMNtCs47f85yxqTTa_14tsuzulint_core3fixNtB2_15DependencyGraph3new
FN:112,_RNvMs0_NtCs47f85yxqTTa_14tsuzulint_core3fixNtB5_14FixCoordinator12hash_content
FN:77,_RNvMs0_NtCs47f85yxqTTa_14tsuzulint_core3fixNtB5_14FixCoordinator3new
FN:165,_RNCNvNtNtCs47f85yxqTTa_14tsuzulint_core3fix5testss_16test_convergence0B7_
FN:147,_RNCNvNtNtCs47f85yxqTTa_14tsuzulint_core3fix5testss_20test_cycle_detection0B7_
FN:133,_RNCNvNtNtCs47f85yxqTTa_14tsuzulint_core3fix5testss_21test_topological_sort0B7_
FN:135,_RNCNvNtNtCs47f85yxqTTa_14tsuzulint_core3fix5testss_21test_topological_sorts0_0B7_
FN:134,_RNCNvNtNtCs47f85yxqTTa_14tsuzulint_core3fix5testss_21test_topological_sorts_0B7_
FN:84,_RINvMs0_NtCs47f85yxqTTa_14tsuzulint_core3fixNtB6_14FixCoordinator21apply_fixes_iterativeNCNvNtB6_5testss_16test_convergence0EB8_
FN:84,_RINvMs0_NtCs47f85yxqTTa_14tsuzulint_core3fixNtB6_14FixCoordinator21apply_fixes_iterativeNCNvNtB6_5testss_20test_cycle_detection0EB8_
FN:98,_RNCINvMs0_NtCs47f85yxqTTa_14tsuzulint_core3fixNtB8_14FixCoordinator21apply_fixes_iterativeNCNvNtB8_5testss_16test_convergence0E0Ba_
FN:98,_RNCINvMs0_NtCs47f85yxqTTa_14tsuzulint_core3fixNtB8_14FixCoordinator21apply_fixes_iterativeNCNvNtB8_5testss_20test_cycle_detection0E0Ba_
FN:17,_RNCNvMNtCs47f85yxqTTa_14tsuzulint_core3fixNtB4_15DependencyGraph16topological_sort0B6_
FN:35,_RNCNvMNtCs47f85yxqTTa_14tsuzulint_core3fixNtB4_15DependencyGraph16topological_sorts_0B6_
FN:118,_RNvXs1_NtCs47f85yxqTTa_14tsuzulint_core3fixNtB5_14FixCoordinatorNtNtCs4kUJL3MZFFz_4core7default7Default7default
FN:58,_RNvXs_NtCs47f85yxqTTa_14tsuzulint_core3fixNtB4_15DependencyGraphNtNtCs4kUJL3MZFFz_4core7default7Default7default
FN:160,_RNvNtNtCs47f85yxqTTa_14tsuzulint_core3fix5testss_16test_convergence
FN:142,_RNvNtNtCs47f85yxqTTa_14tsuzulint_core3fix5testss_20test_cycle_detection
FN:128,_RNvNtNtCs47f85yxqTTa_14tsuzulint_core3fix5testss_21test_topological_sort
FN:178,_RNvNtNtCs47f85yxqTTa_14tsuzulint_core3fix5testss_40test_topological_sort_missing_dependency
FNDA:0,_RNCNvMNtCsdHNy3eV5zAX_14tsuzulint_core3fixNtB4_15DependencyGraph16topological_sort0B6_
FNDA:0,_RNCNvMNtCsdHNy3eV5zAX_14tsuzulint_core3fixNtB4_15DependencyGraph16topological_sorts_0B6_
FNDA:0,_RINvMs0_NtCsdHNy3eV5zAX_14tsuzulint_core3fixNtB6_14FixCoordinator21apply_fixes_iterativepEB8_
FNDA:0,_RNCINvMs0_NtCsdHNy3eV5zAX_14tsuzulint_core3fixNtB8_14FixCoordinator21apply_fixes_iterativepE0Ba_
FNDA:2,_RNvMNtCs47f85yxqTTa_14tsuzulint_core3fixNtB2_15DependencyGraph16topological_sort
FNDA:4,_RNvMNtCs47f85yxqTTa_14tsuzulint_core3fixNtB2_15DependencyGraph3new
FNDA:5,_RNvMs0_NtCs47f85yxqTTa_14tsuzulint_core3fixNtB5_14FixCoordinator12hash_content
FNDA:2,_RNvMs0_NtCs47f85yxqTTa_14tsuzulint_core3fixNtB5_14FixCoordinator3new
FNDA:2,_RNCNvNtNtCs47f85yxqTTa_14tsuzulint_core3fix5testss_16test_convergence0B7_
FNDA:2,_RNCNvNtNtCs47f85yxqTTa_14tsuzulint_core3fix5testss_20test_cycle_detection0B7_
FNDA:1,_RNCNvNtNtCs47f85yxqTTa_14tsuzulint_core3fix5testss_21test_topological_sort0B7_
FNDA:3,_RNCNvNtNtCs47f85yxqTTa_14tsuzulint_core3fix5testss_21test_topological_sorts0_0B7_
FNDA:2,_RNCNvNtNtCs47f85yxqTTa_14tsuzulint_core3fix5testss_21test_topological_sorts_0B7_
FNDA:1,_RINvMs0_NtCs47f85yxqTTa_14tsuzulint_core3fixNtB6_14FixCoordinator21apply_fixes_iterativeNCNvNtB6_5testss_16test_convergence0EB8_
FNDA:1,_RINvMs0_NtCs47f85yxqTTa_14tsuzulint_core3fixNtB6_14FixCoordinator21apply_fixes_iterativeNCNvNtB6_5testss_20test_cycle_detection0EB8_
FNDA:1,_RNCINvMs0_NtCs47f85yxqTTa_14tsuzulint_core3fixNtB8_14FixCoordinator21apply_fixes_iterativeNCNvNtB8_5testss_16test_convergence0E0Ba_
FNDA:2,_RNCINvMs0_NtCs47f85yxqTTa_14tsuzulint_core3fixNtB8_14FixCoordinator21apply_fixes_iterativeNCNvNtB8_5testss_20test_cycle_detection0E0Ba_
FNDA:4,_RNCNvMNtCs47f85yxqTTa_14tsuzulint_core3fixNtB4_15DependencyGraph16topological_sort0B6_
FNDA:4,_RNCNvMNtCs47f85yxqTTa_14tsuzulint_core3fixNtB4_15DependencyGraph16topological_sorts_0B6_
FNDA:0,_RNvXs1_NtCs47f85yxqTTa_14tsuzulint_core3fixNtB5_14FixCoordinatorNtNtCs4kUJL3MZFFz_4core7default7Default7default
FNDA:0,_RNvXs_NtCs47f85yxqTTa_14tsuzulint_core3fixNtB4_15DependencyGraphNtNtCs4kUJL3MZFFz_4core7default7Default7default
FNDA:1,_RNvNtNtCs47f85yxqTTa_14tsuzulint_core3fix5testss_16test_convergence
FNDA:1,_RNvNtNtCs47f85yxqTTa_14tsuzulint_core3fix5testss_20test_cycle_detection
FNDA:1,_RNvNtNtCs47f85yxqTTa_14tsuzulint_core3fix5testss_21test_topological_sort
FNDA:1,_RNvNtNtCs47f85yxqTTa_14tsuzulint_core3fix5testss_40test_topological_sort_missing_dependency
FNF:19
FNH:17
DA:9,4
DA:10,4
DA:11,4
DA:12,4
DA:13,4
DA:14,4
DA:16,2
DA:17,4
DA:18,2
DA:20,4
DA:21,4
DA:22,3
DA:23,3
DA:24,2
DA:25,2
DA:26,2
DA:27,2
DA:28,1
DA:30,1
DA:33,2
DA:34,2
DA:35,4
DA:36,2
DA:37,2
DA:39,2
DA:40,6
DA:41,4
DA:42,4
DA:43,2
DA:44,2
DA:45,2
DA:46,2
DA:47,2
DA:48,2
DA:49,0
DA:51,2
DA:53,2
DA:54,2
DA:58,0
DA:59,0
DA:60,0
DA:77,2
DA:78,2
DA:79,2
DA:80,2
DA:81,2
DA:82,2
DA:84,2
DA:85,2
DA:86,2
DA:88,2
DA:89,2
DA:91,4
DA:92,4
DA:94,4
DA:95,3
DA:96,3
DA:98,3
DA:99,1
DA:100,1
DA:101,1
DA:102,2
DA:103,2
DA:105,1
DA:109,0
DA:110,2
DA:112,5
DA:113,5
DA:114,5
DA:118,0
DA:119,0
DA:120,0
DA:128,1
DA:129,1
DA:130,1
DA:131,1
DA:133,1
DA:134,2
DA:135,3
DA:137,1
DA:138,1
DA:139,1
DA:142,1
DA:143,1
DA:144,1
DA:145,1
DA:147,2
DA:148,2
DA:149,2
DA:150,1
DA:152,1
DA:154,2
DA:156,1
DA:157,1
DA:160,1
DA:161,1
DA:162,1
DA:163,1
DA:165,2
DA:166,2
DA:167,2
DA:168,1
DA:170,1
DA:172,2
DA:174,1
DA:175,1
DA:178,1
DA:179,1
DA:182,1
DA:183,1
DA:184,1
DA:185,1
DA:186,1
BRF:0
BRH:0
LF:121
LH:112
end_of_record
SF:/app/crates/tsuzulint_core/src/fixer.rs
FN:187,_RNCNvNtCsdHNy3eV5zAX_14tsuzulint_core5fixer19apply_fixes_to_file0B5_
FN:53,_RNCNvNtCsdHNy3eV5zAX_14tsuzulint_core5fixer22apply_fixes_to_content0B5_
FN:103,_RNCNvNtCsdHNy3eV5zAX_14tsuzulint_core5fixer24filter_overlapping_fixes0B5_
FN:29,_RNvMNtCsdHNy3eV5zAX_14tsuzulint_core5fixerNtB2_11FixerResult3new
FN:38,_RNvMNtCsdHNy3eV5zAX_14tsuzulint_core5fixerNtB2_11FixerResult9unchanged
FN:144,_RNvNtCsdHNy3eV5zAX_14tsuzulint_core5fixer17read_file_bounded
FN:179,_RNvNtCsdHNy3eV5zAX_14tsuzulint_core5fixer19apply_fixes_to_file
FN:51,_RNvNtCsdHNy3eV5zAX_14tsuzulint_core5fixer22apply_fixes_to_content
FN:97,_RNvNtCsdHNy3eV5zAX_14tsuzulint_core5fixer24filter_overlapping_fixes
FN:169,_RNvNtCsdHNy3eV5zAX_14tsuzulint_core5fixer25apply_fixes_to_file_inner
FN:29,_RNvMNtCs47f85yxqTTa_14tsuzulint_core5fixerNtB2_11FixerResult3new
FN:38,_RNvMNtCs47f85yxqTTa_14tsuzulint_core5fixerNtB2_11FixerResult9unchanged
FN:144,_RNvNtCs47f85yxqTTa_14tsuzulint_core5fixer17read_file_bounded
FN:179,_RNvNtCs47f85yxqTTa_14tsuzulint_core5fixer19apply_fixes_to_file
FN:51,_RNvNtCs47f85yxqTTa_14tsuzulint_core5fixer22apply_fixes_to_content
FN:97,_RNvNtCs47f85yxqTTa_14tsuzulint_core5fixer24filter_overlapping_fixes
FN:169,_RNvNtCs47f85yxqTTa_14tsuzulint_core5fixer25apply_fixes_to_file_inner
FN:198,_RNvNtNtCs47f85yxqTTa_14tsuzulint_core5fixer5tests24make_diagnostic_with_fix
FN:203,_RNvNtNtCs47f85yxqTTa_14tsuzulint_core5fixer5tests27make_diagnostic_without_fix
FN:235,_RNvNtNtCs47f85yxqTTa_14tsuzulint_core5fixer5testss_16apply_delete_fix
FN:247,_RNvNtNtCs47f85yxqTTa_14tsuzulint_core5fixer5testss_16apply_insert_fix
FN:208,_RNvNtNtCs47f85yxqTTa_14tsuzulint_core5fixer5testss_16apply_single_fix
FN:301,_RNvNtNtCs47f85yxqTTa_14tsuzulint_core5fixer5testss_17japanese_text_fix
FN:220,_RNvNtNtCs47f85yxqTTa_14tsuzulint_core5fixer5testss_20apply_multiple_fixes
FN:341,_RNvNtNtCs47f85yxqTTa_14tsuzulint_core5fixer5testss_22fixer_result_unchanged
FN:328,_RNvNtNtCs47f85yxqTTa_14tsuzulint_core5fixer5testss_23invalid_span_is_skipped
FN:314,_RNvNtNtCs47f85yxqTTa_14tsuzulint_core5fixer5testss_23multiple_japanese_fixes
FN:259,_RNvNtNtCs47f85yxqTTa_14tsuzulint_core5fixer5testss_26no_fixes_returns_unchanged
FN:478,_RNvNtNtCs47f85yxqTTa_14tsuzulint_core5fixer5testss_27apply_fixes_to_file_success
FN:507,_RNvNtNtCs47f85yxqTTa_14tsuzulint_core5fixer5testss_30apply_fixes_to_file_no_changes
FN:533,_RNvNtNtCs47f85yxqTTa_14tsuzulint_core5fixer5testss_30apply_fixes_to_file_read_error
FN:349,_RNvNtNtCs47f85yxqTTa_14tsuzulint_core5fixer5testss_30filter_overlapping_fixes_basic
FN:285,_RNvNtNtCs47f85yxqTTa_14tsuzulint_core5fixer5testss_30overlapping_fixes_are_filtered
FN:398,_RNvNtNtCs47f85yxqTTa_14tsuzulint_core5fixer5testss_31filter_overlapping_fixes_nested
FN:361,_RNvNtNtCs47f85yxqTTa_14tsuzulint_core5fixer5testss_32filter_overlapping_fixes_overlap
FN:383,_RNvNtNtCs47f85yxqTTa_14tsuzulint_core5fixer5testss_33filter_overlapping_fixes_adjacent
FN:462,_RNvNtNtCs47f85yxqTTa_14tsuzulint_core5fixer5testss_33filter_overlapping_fixes_unsorted
FN:271,_RNvNtNtCs47f85yxqTTa_14tsuzulint_core5fixer5testss_35diagnostics_without_fix_are_skipped
FN:557,_RNvNtNtCs47f85yxqTTa_14tsuzulint_core5fixer5testss_37apply_fixes_to_file_rejects_directory
FN:676,_RNvNtNtCs47f85yxqTTa_14tsuzulint_core5fixer5testss_39apply_fixes_to_file_dev_zero_is_bounded
FN:629,_RNvNtNtCs47f85yxqTTa_14tsuzulint_core5fixer5testss_39apply_fixes_to_file_fifo_does_not_block
FN:441,_RNvNtNtCs47f85yxqTTa_14tsuzulint_core5fixer5testss_42filter_overlapping_fixes_zero_width_inside
FN:421,_RNvNtNtCs47f85yxqTTa_14tsuzulint_core5fixer5testss_44filter_overlapping_fixes_zero_width_same_pos
FN:610,_RNvNtNtCs47f85yxqTTa_14tsuzulint_core5fixer5testss_46apply_fixes_to_file_inner_proc_file_is_bounded
FN:707,_RNvNtNtCs47f85yxqTTa_14tsuzulint_core5fixer5testss_51apply_fixes_to_file_follows_symlink_to_regular_file
FN:594,_RNvNtNtCs47f85yxqTTa_14tsuzulint_core5fixer5testss_51apply_fixes_to_file_inner_rejects_oversized_content
FN:580,_RNvNtNtCs47f85yxqTTa_14tsuzulint_core5fixer5testss_52apply_fixes_to_file_inner_rejects_oversized_metadata
FN:187,_RNCNvNtCs47f85yxqTTa_14tsuzulint_core5fixer19apply_fixes_to_file0B5_
FN:53,_RNCNvNtCs47f85yxqTTa_14tsuzulint_core5fixer22apply_fixes_to_content0B5_
FN:103,_RNCNvNtCs47f85yxqTTa_14tsuzulint_core5fixer24filter_overlapping_fixes0B5_
FN:646,_RNCNvNtNtCs47f85yxqTTa_14tsuzulint_core5fixer5testss_39apply_fixes_to_file_fifo_does_not_block0B7_
FNDA:0,_RNCNvNtCsdHNy3eV5zAX_14tsuzulint_core5fixer19apply_fixes_to_file0B5_
FNDA:0,_RNCNvNtCsdHNy3eV5zAX_14tsuzulint_core5fixer22apply_fixes_to_content0B5_
FNDA:0,_RNCNvNtCsdHNy3eV5zAX_14tsuzulint_core5fixer24filter_overlapping_fixes0B5_
FNDA:0,_RNvMNtCsdHNy3eV5zAX_14tsuzulint_core5fixerNtB2_11FixerResult3new
FNDA:0,_RNvMNtCsdHNy3eV5zAX_14tsuzulint_core5fixerNtB2_11FixerResult9unchanged
FNDA:0,_RNvNtCsdHNy3eV5zAX_14tsuzulint_core5fixer17read_file_bounded
FNDA:0,_RNvNtCsdHNy3eV5zAX_14tsuzulint_core5fixer19apply_fixes_to_file
FNDA:0,_RNvNtCsdHNy3eV5zAX_14tsuzulint_core5fixer22apply_fixes_to_content
FNDA:0,_RNvNtCsdHNy3eV5zAX_14tsuzulint_core5fixer24filter_overlapping_fixes
FNDA:0,_RNvNtCsdHNy3eV5zAX_14tsuzulint_core5fixer25apply_fixes_to_file_inner
FNDA:11,_RNvMNtCs47f85yxqTTa_14tsuzulint_core5fixerNtB2_11FixerResult3new
FNDA:3,_RNvMNtCs47f85yxqTTa_14tsuzulint_core5fixerNtB2_11FixerResult9unchanged
FNDA:10,_RNvNtCs47f85yxqTTa_14tsuzulint_core5fixer17read_file_bounded
FNDA:6,_RNvNtCs47f85yxqTTa_14tsuzulint_core5fixer19apply_fixes_to_file
FNDA:13,_RNvNtCs47f85yxqTTa_14tsuzulint_core5fixer22apply_fixes_to_content
FNDA:18,_RNvNtCs47f85yxqTTa_14tsuzulint_core5fixer24filter_overlapping_fixes
FNDA:10,_RNvNtCs47f85yxqTTa_14tsuzulint_core5fixer25apply_fixes_to_file_inner
FNDA:14,_RNvNtNtCs47f85yxqTTa_14tsuzulint_core5fixer5tests24make_diagnostic_with_fix
FNDA:1,_RNvNtNtCs47f85yxqTTa_14tsuzulint_core5fixer5tests27make_diagnostic_without_fix
FNDA:1,_RNvNtNtCs47f85yxqTTa_14tsuzulint_core5fixer5testss_16apply_delete_fix
FNDA:1,_RNvNtNtCs47f85yxqTTa_14tsuzulint_core5fixer5testss_16apply_insert_fix
FNDA:1,_RNvNtNtCs47f85yxqTTa_14tsuzulint_core5fixer5testss_16apply_single_fix
FNDA:1,_RNvNtNtCs47f85yxqTTa_14tsuzulint_core5fixer5testss_17japanese_text_fix
FNDA:1,_RNvNtNtCs47f85yxqTTa_14tsuzulint_core5fixer5testss_20apply_multiple_fixes
FNDA:1,_RNvNtNtCs47f85yxqTTa_14tsuzulint_core5fixer5testss_22fixer_result_unchanged
FNDA:1,_RNvNtNtCs47f85yxqTTa_14tsuzulint_core5fixer5testss_23invalid_span_is_skipped
FNDA:1,_RNvNtNtCs47f85yxqTTa_14tsuzulint_core5fixer5testss_23multiple_japanese_fixes
FNDA:1,_RNvNtNtCs47f85yxqTTa_14tsuzulint_core5fixer5testss_26no_fixes_returns_unchanged
FNDA:1,_RNvNtNtCs47f85yxqTTa_14tsuzulint_core5fixer5testss_27apply_fixes_to_file_success
FNDA:1,_RNvNtNtCs47f85yxqTTa_14tsuzulint_core5fixer5testss_30apply_fixes_to_file_no_changes
FNDA:1,_RNvNtNtCs47f85yxqTTa_14tsuzulint_core5fixer5testss_30apply_fixes_to_file_read_error
FNDA:1,_RNvNtNtCs47f85yxqTTa_14tsuzulint_core5fixer5testss_30filter_overlapping_fixes_basic
FNDA:1,_RNvNtNtCs47f85yxqTTa_14tsuzulint_core5fixer5testss_30overlapping_fixes_are_filtered
FNDA:1,_RNvNtNtCs47f85yxqTTa_14tsuzulint_core5fixer5testss_31filter_overlapping_fixes_nested
FNDA:1,_RNvNtNtCs47f85yxqTTa_14tsuzulint_core5fixer5testss_32filter_overlapping_fixes_overlap
FNDA:1,_RNvNtNtCs47f85yxqTTa_14tsuzulint_core5fixer5testss_33filter_overlapping_fixes_adjacent
FNDA:1,_RNvNtNtCs47f85yxqTTa_14tsuzulint_core5fixer5testss_33filter_overlapping_fixes_unsorted
FNDA:1,_RNvNtNtCs47f85yxqTTa_14tsuzulint_core5fixer5testss_35diagnostics_without_fix_are_skipped
FNDA:1,_RNvNtNtCs47f85yxqTTa_14tsuzulint_core5fixer5testss_37apply_fixes_to_file_rejects_directory
FNDA:1,_RNvNtNtCs47f85yxqTTa_14tsuzulint_core5fixer5testss_39apply_fixes_to_file_dev_zero_is_bounded
FNDA:1,_RNvNtNtCs47f85yxqTTa_14tsuzulint_core5fixer5testss_39apply_fixes_to_file_fifo_does_not_block
FNDA:1,_RNvNtNtCs47f85yxqTTa_14tsuzulint_core5fixer5testss_42filter_overlapping_fixes_zero_width_inside
FNDA:1,_RNvNtNtCs47f85yxqTTa_14tsuzulint_core5fixer5testss_44filter_overlapping_fixes_zero_width_same_pos
FNDA:1,_RNvNtNtCs47f85yxqTTa_14tsuzulint_core5fixer5testss_46apply_fixes_to_file_inner_proc_file_is_bounded
FNDA:1,_RNvNtNtCs47f85yxqTTa_14tsuzulint_core5fixer5testss_51apply_fixes_to_file_follows_symlink_to_regular_file
FNDA:1,_RNvNtNtCs47f85yxqTTa_14tsuzulint_core5fixer5testss_51apply_fixes_to_file_inner_rejects_oversized_content
FNDA:1,_RNvNtNtCs47f85yxqTTa_14tsuzulint_core5fixer5testss_52apply_fixes_to_file_inner_rejects_oversized_metadata
FNDA:0,_RNCNvNtCs47f85yxqTTa_14tsuzulint_core5fixer19apply_fixes_to_file0B5_
FNDA:14,_RNCNvNtCs47f85yxqTTa_14tsuzulint_core5fixer22apply_fixes_to_content0B5_
FNDA:20,_RNCNvNtCs47f85yxqTTa_14tsuzulint_core5fixer24filter_overlapping_fixes0B5_
FNDA:1,_RNCNvNtNtCs47f85yxqTTa_14tsuzulint_core5fixer5testss_39apply_fixes_to_file_fifo_does_not_block0B7_
FNF:41
FNH:40
DA:29,11
DA:30,11
DA:31,11
DA:32,11
DA:33,11
DA:34,11
DA:35,11
DA:38,3
DA:39,3
DA:40,3
DA:41,3
DA:42,3
DA:43,3
DA:44,3
DA:51,13
DA:53,14
DA:55,13
DA:56,2
DA:57,11
DA:60,11
DA:63,11
DA:64,11
DA:66,12
DA:67,12
DA:68,12
DA:71,12
DA:72,1
DA:76,0
DA:78,1
DA:79,11
DA:81,11
DA:86,11
DA:87,11
DA:90,11
DA:91,13
DA:97,18
DA:98,18
DA:99,9
DA:100,9
DA:103,20
DA:105,9
DA:107,19
DA:115,19
DA:117,10
DA:118,10
DA:119,10
DA:120,10
DA:122,10
DA:124,9
DA:127,19
DA:128,4
DA:132,15
DA:133,15
DA:134,15
DA:137,9
DA:138,18
DA:144,10
DA:147,10
DA:153,9
DA:154,9
DA:157,4
DA:158,4
DA:159,4
DA:160,4
DA:161,0
DA:166,4
DA:167,10
DA:169,10
DA:170,10
DA:171,10
DA:172,10
DA:173,10
DA:174,10
DA:175,3
DA:176,10
DA:179,6
DA:180,6
DA:181,6
DA:182,6
DA:183,6
DA:185,3
DA:186,2
DA:187,2
DA:188,1
DA:190,3
DA:191,6
DA:198,14
DA:199,14
DA:200,14
DA:201,14
DA:203,1
DA:204,1
DA:205,1
DA:208,1
DA:209,1
DA:210,1
DA:212,1
DA:214,1
DA:215,1
DA:216,1
DA:217,1
DA:220,1
DA:221,1
DA:222,1
DA:223,1
DA:224,1
DA:227,1
DA:229,1
DA:230,1
DA:231,1
DA:232,1
DA:235,1
DA:236,1
DA:238,1
DA:240,1
DA:242,1
DA:243,1
DA:244,1
DA:247,1
DA:248,1
DA:250,1
DA:252,1
DA:254,1
DA:255,1
DA:256,1
DA:259,1
DA:260,1
DA:261,1
DA:263,1
DA:265,1
DA:266,1
DA:267,1
DA:268,1
DA:271,1
DA:272,1
DA:273,1
DA:274,1
DA:275,1
DA:278,1
DA:280,1
DA:281,1
DA:282,1
DA:285,1
DA:286,1
DA:288,1
DA:289,1
DA:290,1
DA:293,1
DA:297,1
DA:298,1
DA:301,1
DA:302,1
DA:305,1
DA:307,1
DA:309,1
DA:310,1
DA:311,1
DA:314,1
DA:315,1
DA:319,1
DA:321,1
DA:323,1
DA:324,1
DA:325,1
DA:328,1
DA:329,1
DA:331,1
DA:333,1
DA:336,1
DA:337,1
DA:338,1
DA:341,1
DA:342,1
DA:343,1
DA:344,1
DA:345,1
DA:346,1
DA:349,1
DA:350,1
DA:351,1
DA:352,1
DA:354,1
DA:355,1
DA:356,1
DA:357,1
DA:358,1
DA:361,1
DA:362,1
DA:363,1
DA:364,1
DA:367,1
DA:369,1
DA:377,1
DA:378,1
DA:379,1
DA:380,1
DA:383,1
DA:384,1
DA:385,1
DA:388,1
DA:390,1
DA:392,1
DA:393,1
DA:394,1
DA:395,1
DA:398,1
DA:399,1
DA:400,1
DA:405,1
DA:407,1
DA:416,1
DA:417,1
DA:418,1
DA:421,1
DA:423,1
DA:424,1
DA:427,1
DA:429,1
DA:437,1
DA:438,1
DA:441,1
DA:442,1
DA:443,1
DA:446,1
DA:448,1
DA:457,1
DA:458,1
DA:459,1
DA:462,1
DA:463,1
DA:464,1
DA:467,1
DA:469,1
DA:472,1
DA:473,1
DA:474,1
DA:475,1
DA:478,1
DA:483,1
DA:484,1
DA:488,1
DA:491,1
DA:494,1
DA:497,1
DA:498,1
DA:499,1
DA:502,1
DA:503,1
DA:504,1
DA:507,1
DA:511,1
DA:512,1
DA:515,1
DA:518,1
DA:520,1
DA:523,1
DA:524,1
DA:525,1
DA:528,1
DA:529,1
DA:530,1
DA:533,1
DA:535,1
DA:536,1
DA:538,1
DA:541,1
DA:543,1
DA:544,1
DA:545,1
DA:546,1
DA:551,0
DA:552,0
DA:554,1
DA:557,1
DA:559,1
DA:560,1
DA:561,1
DA:563,1
DA:564,1
DA:565,1
DA:566,1
DA:567,0
DA:568,0
DA:569,0
DA:574,0
DA:575,0
DA:577,1
DA:580,1
DA:584,1
DA:585,1
DA:586,1
DA:588,1
DA:589,1
DA:590,1
DA:591,1
DA:594,1
DA:599,1
DA:600,1
DA:601,1
DA:603,1
DA:604,1
DA:605,1
DA:606,1
DA:610,1
DA:615,1
DA:616,1
DA:617,1
DA:618,1
DA:619,1
DA:620,0
DA:621,1
DA:629,1
DA:634,1
DA:635,1
DA:636,1
DA:638,1
DA:639,1
DA:640,0
DA:641,0
DA:642,1
DA:644,1
DA:645,1
DA:646,1
DA:647,1
DA:648,1
DA:649,1
DA:654,1
DA:655,1
DA:656,1
DA:657,1
DA:659,1
DA:660,1
DA:661,1
DA:662,1
DA:666,0
DA:667,0
DA:669,1
DA:676,1
DA:677,1
DA:678,1
DA:679,0
DA:680,1
DA:681,1
DA:682,1
DA:683,1
DA:688,1
DA:689,1
DA:690,0
DA:691,0
DA:695,0
DA:696,0
DA:698,1
DA:707,1
DA:709,1
DA:710,1
DA:711,1
DA:712,1
DA:713,1
DA:714,1
DA:715,1
DA:716,1
DA:718,1
DA:719,1
DA:720,1
DA:721,1
DA:724,1
DA:725,1
DA:726,1
BRF:0
BRH:0
LF:372
LH:352
end_of_record
SF:/app/crates/tsuzulint_core/src/formatters/sarif.rs
FN:163,_RINvMs3_NtNtCsdHNy3eV5zAX_14tsuzulint_core10formatters5sarifNtB6_7Message4textRNtNtCsauO83Ko6oyK_5alloc6string6StringEBa_
FN:163,_RINvMs3_NtNtCsdHNy3eV5zAX_14tsuzulint_core10formatters5sarifNtB6_7Message4textReEBa_
FN:26,_RINvNtNtCsdHNy3eV5zAX_14tsuzulint_core10formatters5sarif17generate_sarif_topEB6_
FN:46,_RNvMNtNtCsdHNy3eV5zAX_14tsuzulint_core10formatters5sarifNtB2_8SarifLog12from_results
FN:102,_RNvMs0_NtNtCsdHNy3eV5zAX_14tsuzulint_core10formatters5sarifNtB5_4Tool3new
FN:122,_RNvMs1_NtNtCsdHNy3eV5zAX_14tsuzulint_core10formatters5sarifNtB5_13ToolComponent3new
FN:145,_RNvMs2_NtNtCsdHNy3eV5zAX_14tsuzulint_core10formatters5sarifNtB5_19ReportingDescriptor3new
FN:180,_RNvMs4_NtNtCsdHNy3eV5zAX_14tsuzulint_core10formatters5sarifNtB5_11SarifResult15from_diagnostic
FN:205,_RNvMs5_NtNtCsdHNy3eV5zAX_14tsuzulint_core10formatters5sarifNtB5_8Location15from_diagnostic
FN:223,_RNvMs6_NtNtCsdHNy3eV5zAX_14tsuzulint_core10formatters5sarifNtB5_16PhysicalLocation15from_diagnostic
FN:242,_RNvMs7_NtNtCsdHNy3eV5zAX_14tsuzulint_core10formatters5sarifNtB5_16ArtifactLocation3new
FN:265,_RNvMs8_NtNtCsdHNy3eV5zAX_14tsuzulint_core10formatters5sarifNtB5_6Region13from_location
FN:66,_RNvMs_NtNtCsdHNy3eV5zAX_14tsuzulint_core10formatters5sarifNtB4_3Run12from_results
FN:20,_RNvNtNtCsdHNy3eV5zAX_14tsuzulint_core10formatters5sarif14generate_sarif
FN:398,_RNCNvNtNtNtCs47f85yxqTTa_14tsuzulint_core10formatters5sarif5testss_27test_sarif_rules_collection0B9_
FN:163,_RINvMs3_NtNtCs47f85yxqTTa_14tsuzulint_core10formatters5sarifNtB6_7Message4textRNtNtCsauO83Ko6oyK_5alloc6string6StringEBa_
FN:163,_RINvMs3_NtNtCs47f85yxqTTa_14tsuzulint_core10formatters5sarifNtB6_7Message4textReEBa_
FN:46,_RNvMNtNtCs47f85yxqTTa_14tsuzulint_core10formatters5sarifNtB2_8SarifLog12from_results
FN:102,_RNvMs0_NtNtCs47f85yxqTTa_14tsuzulint_core10formatters5sarifNtB5_4Tool3new
FN:122,_RNvMs1_NtNtCs47f85yxqTTa_14tsuzulint_core10formatters5sarifNtB5_13ToolComponent3new
FN:145,_RNvMs2_NtNtCs47f85yxqTTa_14tsuzulint_core10formatters5sarifNtB5_19ReportingDescriptor3new
FN:180,_RNvMs4_NtNtCs47f85yxqTTa_14tsuzulint_core10formatters5sarifNtB5_11SarifResult15from_diagnostic
FN:205,_RNvMs5_NtNtCs47f85yxqTTa_14tsuzulint_core10formatters5sarifNtB5_8Location15from_diagnostic
FN:223,_RNvMs6_NtNtCs47f85yxqTTa_14tsuzulint_core10formatters5sarifNtB5_16PhysicalLocation15from_diagnostic
FN:242,_RNvMs7_NtNtCs47f85yxqTTa_14tsuzulint_core10formatters5sarifNtB5_16ArtifactLocation3new
FN:265,_RNvMs8_NtNtCs47f85yxqTTa_14tsuzulint_core10formatters5sarifNtB5_6Region13from_location
FN:66,_RNvMs_NtNtCs47f85yxqTTa_14tsuzulint_core10formatters5sarifNtB4_3Run12from_results
FN:20,_RNvNtNtCs47f85yxqTTa_14tsuzulint_core10formatters5sarif14generate_sarif
FN:26,_RINvNtNtCs47f85yxqTTa_14tsuzulint_core10formatters5sarif17generate_sarif_topEB6_
FN:281,_RNvNtNtNtCs47f85yxqTTa_14tsuzulint_core10formatters5sarif5tests22create_test_diagnostic
FN:404,_RNvNtNtNtCs47f85yxqTTa_14tsuzulint_core10formatters5sarif5testss_21test_sarif_schema_url
FN:306,_RNvNtNtNtCs47f85yxqTTa_14tsuzulint_core10formatters5sarif5testss_23test_sarif_single_error
FN:292,_RNvNtNtNtCs47f85yxqTTa_14tsuzulint_core10formatters5sarif5testss_24test_sarif_empty_results
FN:365,_RNvNtNtNtCs47f85yxqTTa_14tsuzulint_core10formatters5sarif5testss_24test_sarif_with_location
FN:327,_RNvNtNtNtCs47f85yxqTTa_14tsuzulint_core10formatters5sarif5testss_27test_sarif_multiple_results
FN:384,_RNvNtNtNtCs47f85yxqTTa_14tsuzulint_core10formatters5sarif5testss_27test_sarif_rules_collection
FN:349,_RNvNtNtNtCs47f85yxqTTa_14tsuzulint_core10formatters5sarif5testss_27test_sarif_severity_mapping
FN:26,_RINvNtNtCsdHNy3eV5zAX_14tsuzulint_core10formatters5sarif17generate_sarif_toQINtNtNtNtCsaa59N1qzrfe_3std2io8buffered9bufwriter9BufWriterNtNtB1j_5stdio10StdoutLockEECs1t6klNcusb6_6tzlint
FN:26,_RINvNtNtCsdHNy3eV5zAX_14tsuzulint_core10formatters5sarif17generate_sarif_toQQINtNtCsauO83Ko6oyK_5alloc3vec3VechEECsiGQo9BHC4pH_6tzlint
FNDA:1,_RINvMs3_NtNtCsdHNy3eV5zAX_14tsuzulint_core10formatters5sarifNtB6_7Message4textRNtNtCsauO83Ko6oyK_5alloc6string6StringEBa_
FNDA:1,_RINvMs3_NtNtCsdHNy3eV5zAX_14tsuzulint_core10formatters5sarifNtB6_7Message4textReEBa_
FNDA:0,_RINvNtNtCsdHNy3eV5zAX_14tsuzulint_core10formatters5sarif17generate_sarif_topEB6_
FNDA:2,_RNvMNtNtCsdHNy3eV5zAX_14tsuzulint_core10formatters5sarifNtB2_8SarifLog12from_results
FNDA:2,_RNvMs0_NtNtCsdHNy3eV5zAX_14tsuzulint_core10formatters5sarifNtB5_4Tool3new
FNDA:2,_RNvMs1_NtNtCsdHNy3eV5zAX_14tsuzulint_core10formatters5sarifNtB5_13ToolComponent3new
FNDA:1,_RNvMs2_NtNtCsdHNy3eV5zAX_14tsuzulint_core10formatters5sarifNtB5_19ReportingDescriptor3new
FNDA:1,_RNvMs4_NtNtCsdHNy3eV5zAX_14tsuzulint_core10formatters5sarifNtB5_11SarifResult15from_diagnostic
FNDA:1,_RNvMs5_NtNtCsdHNy3eV5zAX_14tsuzulint_core10formatters5sarifNtB5_8Location15from_diagnostic
FNDA:1,_RNvMs6_NtNtCsdHNy3eV5zAX_14tsuzulint_core10formatters5sarifNtB5_16PhysicalLocation15from_diagnostic
FNDA:1,_RNvMs7_NtNtCsdHNy3eV5zAX_14tsuzulint_core10formatters5sarifNtB5_16ArtifactLocation3new
FNDA:0,_RNvMs8_NtNtCsdHNy3eV5zAX_14tsuzulint_core10formatters5sarifNtB5_6Region13from_location
FNDA:2,_RNvMs_NtNtCsdHNy3eV5zAX_14tsuzulint_core10formatters5sarifNtB4_3Run12from_results
FNDA:0,_RNvNtNtCsdHNy3eV5zAX_14tsuzulint_core10formatters5sarif14generate_sarif
FNDA:2,_RNCNvNtNtNtCs47f85yxqTTa_14tsuzulint_core10formatters5sarif5testss_27test_sarif_rules_collection0B9_
FNDA:10,_RINvMs3_NtNtCs47f85yxqTTa_14tsuzulint_core10formatters5sarifNtB6_7Message4textRNtNtCsauO83Ko6oyK_5alloc6string6StringEBa_
FNDA:9,_RINvMs3_NtNtCs47f85yxqTTa_14tsuzulint_core10formatters5sarifNtB6_7Message4textReEBa_
FNDA:7,_RNvMNtNtCs47f85yxqTTa_14tsuzulint_core10formatters5sarifNtB2_8SarifLog12from_results
FNDA:7,_RNvMs0_NtNtCs47f85yxqTTa_14tsuzulint_core10formatters5sarifNtB5_4Tool3new
FNDA:7,_RNvMs1_NtNtCs47f85yxqTTa_14tsuzulint_core10formatters5sarifNtB5_13ToolComponent3new
FNDA:9,_RNvMs2_NtNtCs47f85yxqTTa_14tsuzulint_core10formatters5sarifNtB5_19ReportingDescriptor3new
FNDA:10,_RNvMs4_NtNtCs47f85yxqTTa_14tsuzulint_core10formatters5sarifNtB5_11SarifResult15from_diagnostic
FNDA:10,_RNvMs5_NtNtCs47f85yxqTTa_14tsuzulint_core10formatters5sarifNtB5_8Location15from_diagnostic
FNDA:10,_RNvMs6_NtNtCs47f85yxqTTa_14tsuzulint_core10formatters5sarifNtB5_16PhysicalLocation15from_diagnostic
FNDA:10,_RNvMs7_NtNtCs47f85yxqTTa_14tsuzulint_core10formatters5sarifNtB5_16ArtifactLocation3new
FNDA:1,_RNvMs8_NtNtCs47f85yxqTTa_14tsuzulint_core10formatters5sarifNtB5_6Region13from_location
FNDA:7,_RNvMs_NtNtCs47f85yxqTTa_14tsuzulint_core10formatters5sarifNtB4_3Run12from_results
FNDA:7,_RNvNtNtCs47f85yxqTTa_14tsuzulint_core10formatters5sarif14generate_sarif
FNDA:0,_RINvNtNtCs47f85yxqTTa_14tsuzulint_core10formatters5sarif17generate_sarif_topEB6_
FNDA:9,_RNvNtNtNtCs47f85yxqTTa_14tsuzulint_core10formatters5sarif5tests22create_test_diagnostic
FNDA:1,_RNvNtNtNtCs47f85yxqTTa_14tsuzulint_core10formatters5sarif5testss_21test_sarif_schema_url
FNDA:1,_RNvNtNtNtCs47f85yxqTTa_14tsuzulint_core10formatters5sarif5testss_23test_sarif_single_error
FNDA:1,_RNvNtNtNtCs47f85yxqTTa_14tsuzulint_core10formatters5sarif5testss_24test_sarif_empty_results
FNDA:1,_RNvNtNtNtCs47f85yxqTTa_14tsuzulint_core10formatters5sarif5testss_24test_sarif_with_location
FNDA:1,_RNvNtNtNtCs47f85yxqTTa_14tsuzulint_core10formatters5sarif5testss_27test_sarif_multiple_results
FNDA:1,_RNvNtNtNtCs47f85yxqTTa_14tsuzulint_core10formatters5sarif5testss_27test_sarif_rules_collection
FNDA:1,_RNvNtNtNtCs47f85yxqTTa_14tsuzulint_core10formatters5sarif5testss_27test_sarif_severity_mapping
FNDA:1,_RINvNtNtCsdHNy3eV5zAX_14tsuzulint_core10formatters5sarif17generate_sarif_toQINtNtNtNtCsaa59N1qzrfe_3std2io8buffered9bufwriter9BufWriterNtNtB1j_5stdio10StdoutLockEECs1t6klNcusb6_6tzlint
FNDA:1,_RINvNtNtCsdHNy3eV5zAX_14tsuzulint_core10formatters5sarif17generate_sarif_toQQINtNtCsauO83Ko6oyK_5alloc3vec3VechEECsiGQo9BHC4pH_6tzlint
FNF:22
FNH:22
DA:20,7
DA:21,7
DA:22,7
DA:23,7
DA:26,2
DA:27,2
DA:28,2
DA:29,2
DA:30,2
DA:31,2
DA:32,2
DA:46,9
DA:47,9
DA:48,9
DA:49,9
DA:50,9
DA:51,9
DA:52,9
DA:53,9
DA:66,9
DA:67,9
DA:68,9
DA:70,9
DA:71,11
DA:73,11
DA:74,11
DA:77,11
DA:78,10
DA:79,10
DA:80,10
DA:81,10
DA:82,10
DA:86,9
DA:87,9
DA:88,9
DA:89,9
DA:90,9
DA:102,9
DA:103,9
DA:104,9
DA:105,9
DA:106,9
DA:122,9
DA:123,9
DA:124,9
DA:125,9
DA:126,9
DA:127,9
DA:128,9
DA:129,9
DA:145,10
DA:146,10
DA:147,10
DA:148,10
DA:149,10
DA:150,10
DA:151,10
DA:163,21
DA:164,21
DA:165,21
DA:180,11
DA:181,11
DA:182,5
DA:183,5
DA:184,1
DA:187,11
DA:188,11
DA:189,11
DA:190,11
DA:191,11
DA:192,11
DA:193,11
DA:205,11
DA:206,11
DA:207,11
DA:208,11
DA:209,11
DA:223,11
DA:224,11
DA:226,11
DA:227,11
DA:228,11
DA:229,11
DA:230,11
DA:242,11
DA:243,11
DA:244,11
DA:245,11
DA:246,11
DA:265,1
DA:266,1
DA:267,1
DA:268,1
DA:269,1
DA:270,1
DA:271,1
DA:272,1
DA:281,9
DA:282,9
DA:283,9
DA:284,9
DA:285,9
DA:286,9
DA:287,9
DA:288,9
DA:289,9
DA:292,1
DA:293,1
DA:294,1
DA:297,1
DA:298,1
DA:300,1
DA:301,1
DA:302,1
DA:303,1
DA:306,1
DA:307,1
DA:308,1
DA:310,1
DA:311,1
DA:313,1
DA:314,1
DA:316,1
DA:317,1
DA:318,1
DA:320,1
DA:321,1
DA:322,1
DA:323,1
DA:324,1
DA:327,1
DA:328,1
DA:329,1
DA:330,1
DA:331,1
DA:333,1
DA:334,1
DA:336,1
DA:337,1
DA:340,1
DA:341,1
DA:344,1
DA:345,1
DA:346,1
DA:349,1
DA:350,1
DA:351,1
DA:352,1
DA:354,1
DA:355,1
DA:356,1
DA:358,1
DA:359,1
DA:360,1
DA:361,1
DA:362,1
DA:365,1
DA:366,1
DA:367,1
DA:368,1
DA:369,1
DA:371,1
DA:372,1
DA:373,1
DA:375,1
DA:376,1
DA:377,1
DA:378,1
DA:379,1
DA:380,1
DA:381,1
DA:384,1
DA:385,1
DA:386,1
DA:387,1
DA:389,1
DA:390,1
DA:391,1
DA:393,1
DA:394,1
DA:395,1
DA:396,1
DA:398,2
DA:399,1
DA:400,1
DA:401,1
DA:404,1
DA:405,1
DA:406,1
DA:407,1
DA:409,1
DA:410,1
DA:411,1
DA:412,1
DA:413,1
DA:415,1
BRF:0
BRH:0
LF:197
LH:197
end_of_record
SF:/app/crates/tsuzulint_core/src/ignore_range.rs
FN:7,_RNvNtCsdHNy3eV5zAX_14tsuzulint_core12ignore_range21extract_ignore_ranges
FN:19,_RNvXNvNtCsdHNy3eV5zAX_14tsuzulint_core12ignore_range21extract_ignore_rangesNtB2_18CodeRangeCollectorNtNtNtCs9bJaZoOZVf6_13tsuzulint_ast7visitor5visit7Visitor10visit_code
FN:13,_RNvXNvNtCsdHNy3eV5zAX_14tsuzulint_core12ignore_range21extract_ignore_rangesNtB2_18CodeRangeCollectorNtNtNtCs9bJaZoOZVf6_13tsuzulint_ast7visitor5visit7Visitor16visit_code_block
FN:7,_RNvNtCs47f85yxqTTa_14tsuzulint_core12ignore_range21extract_ignore_ranges
FN:19,_RNvXNvNtCs47f85yxqTTa_14tsuzulint_core12ignore_range21extract_ignore_rangesNtB2_18CodeRangeCollectorNtNtNtCs9bJaZoOZVf6_13tsuzulint_ast7visitor5visit7Visitor10visit_code
FN:13,_RNvXNvNtCs47f85yxqTTa_14tsuzulint_core12ignore_range21extract_ignore_rangesNtB2_18CodeRangeCollectorNtNtNtCs9bJaZoOZVf6_13tsuzulint_ast7visitor5visit7Visitor16visit_code_block
FN:38,_RNvNtNtCs47f85yxqTTa_14tsuzulint_core12ignore_range5testss_26test_extract_ignore_ranges
FNDA:16,_RNvNtCsdHNy3eV5zAX_14tsuzulint_core12ignore_range21extract_ignore_ranges
FNDA:0,_RNvXNvNtCsdHNy3eV5zAX_14tsuzulint_core12ignore_range21extract_ignore_rangesNtB2_18CodeRangeCollectorNtNtNtCs9bJaZoOZVf6_13tsuzulint_ast7visitor5visit7Visitor10visit_code
FNDA:0,_RNvXNvNtCsdHNy3eV5zAX_14tsuzulint_core12ignore_range21extract_ignore_rangesNtB2_18CodeRangeCollectorNtNtNtCs9bJaZoOZVf6_13tsuzulint_ast7visitor5visit7Visitor16visit_code_block
FNDA:20,_RNvNtCs47f85yxqTTa_14tsuzulint_core12ignore_range21extract_ignore_ranges
FNDA:32,_RNvXNvNtCs47f85yxqTTa_14tsuzulint_core12ignore_range21extract_ignore_rangesNtB2_18CodeRangeCollectorNtNtNtCs9bJaZoOZVf6_13tsuzulint_ast7visitor5visit7Visitor10visit_code
FNDA:11,_RNvXNvNtCs47f85yxqTTa_14tsuzulint_core12ignore_range21extract_ignore_rangesNtB2_18CodeRangeCollectorNtNtNtCs9bJaZoOZVf6_13tsuzulint_ast7visitor5visit7Visitor16visit_code_block
FNDA:1,_RNvNtNtCs47f85yxqTTa_14tsuzulint_core12ignore_range5testss_26test_extract_ignore_ranges
FNF:4
FNH:4
DA:7,36
DA:13,11
DA:14,11
DA:15,11
DA:16,11
DA:17,11
DA:19,32
DA:20,32
DA:21,32
DA:22,32
DA:23,32
DA:26,36
DA:27,36
DA:28,36
DA:29,36
DA:38,1
DA:39,1
DA:40,1
DA:41,1
DA:42,1
DA:44,1
DA:46,1
DA:48,1
DA:49,1
DA:51,1
DA:52,1
DA:54,0
DA:57,1
DA:58,1
DA:59,1
DA:63,1
DA:64,1
DA:65,1
BRF:0
BRH:0
LF:33
LH:32
end_of_record
SF:/app/crates/tsuzulint_core/src/linter.rs
FN:139,_RNvMNtCsdHNy3eV5zAX_14tsuzulint_core6linterNtB2_6Linter10lint_files
FN:154,_RNvMNtCsdHNy3eV5zAX_14tsuzulint_core6linterNtB2_6Linter12lint_content
FN:133,_RNvMNtCsdHNy3eV5zAX_14tsuzulint_core6linterNtB2_6Linter13lint_patterns
FN:150,_RNvMNtCsdHNy3eV5zAX_14tsuzulint_core6linterNtB2_6Linter18create_plugin_host
FN:49,_RNvMNtCsdHNy3eV5zAX_14tsuzulint_core6linterNtB2_6Linter3new
FN:162,_RNCNvMNtCsdHNy3eV5zAX_14tsuzulint_core6linterNtB4_6Linter12lint_content0B6_
FN:61,_RNCNvMNtCsdHNy3eV5zAX_14tsuzulint_core6linterNtB4_6Linter3new0B6_
FN:82,_RINvMNtCsdHNy3eV5zAX_14tsuzulint_core6linterNtB3_6Linter9load_rulepEB5_
FN:89,_RNCINvMNtCsdHNy3eV5zAX_14tsuzulint_core6linterNtB5_6Linter9load_rulepE0B7_
FN:97,_RNCINvMNtCsdHNy3eV5zAX_14tsuzulint_core6linterNtB5_6Linter9load_rulepEs_0B7_
FN:108,_RNCNvMNtCsdHNy3eV5zAX_14tsuzulint_core6linterNtB4_6Linter9lint_file0B6_
FN:114,_RNCNvMNtCsdHNy3eV5zAX_14tsuzulint_core6linterNtB4_6Linter9lint_files0_0B6_
FN:104,_RNvMNtCsdHNy3eV5zAX_14tsuzulint_core6linterNtB2_6Linter9lint_file
FN:139,_RNvMNtCs47f85yxqTTa_14tsuzulint_core6linterNtB2_6Linter10lint_files
FN:154,_RNvMNtCs47f85yxqTTa_14tsuzulint_core6linterNtB2_6Linter12lint_content
FN:133,_RNvMNtCs47f85yxqTTa_14tsuzulint_core6linterNtB2_6Linter13lint_patterns
FN:150,_RNvMNtCs47f85yxqTTa_14tsuzulint_core6linterNtB2_6Linter18create_plugin_host
FN:49,_RNvMNtCs47f85yxqTTa_14tsuzulint_core6linterNtB2_6Linter3new
FN:104,_RNvMNtCs47f85yxqTTa_14tsuzulint_core6linterNtB2_6Linter9lint_file
FN:615,_RNCNvNtNtCs47f85yxqTTa_14tsuzulint_core6linter5testss_44test_lint_files_poisoned_dynamic_rules_mutex0B7_
FN:174,_RNvNtNtCs47f85yxqTTa_14tsuzulint_core6linter5tests11test_config
FN:185,_RNvNtNtCs47f85yxqTTa_14tsuzulint_core6linter5testss_15test_linter_new
FN:467,_RNvNtNtCs47f85yxqTTa_14tsuzulint_core6linter5testss_17test_lint_caching
FN:332,_RNvNtNtCs47f85yxqTTa_14tsuzulint_core6linter5testss_22test_lint_file_success
FN:556,_RNvNtNtCs47f85yxqTTa_14tsuzulint_core6linter5testss_22test_lint_file_symlink
FN:244,_RNvNtNtCs47f85yxqTTa_14tsuzulint_core6linter5testss_23test_create_plugin_host
FN:576,_RNvNtNtCs47f85yxqTTa_14tsuzulint_core6linter5testss_24test_lint_file_not_found
FN:517,_RNvNtNtCs47f85yxqTTa_14tsuzulint_core6linter5testss_24test_lint_file_too_large
FN:772,_RNvNtNtCs47f85yxqTTa_14tsuzulint_core6linter5testss_25test_lint_file_block_rule
FN:532,_RNvNtNtCs47f85yxqTTa_14tsuzulint_core6linter5testss_25test_lint_file_exact_size
FN:666,_RNvNtNtCs47f85yxqTTa_14tsuzulint_core6linter5testss_28test_lint_file_output_sorted
FN:499,_RNvNtNtCs47f85yxqTTa_14tsuzulint_core6linter5testss_28test_lint_patterns_expansion
FN:213,_RNvNtNtCs47f85yxqTTa_14tsuzulint_core6linter5testss_30test_lint_files_parallel_empty
FN:446,_RNvNtNtCs47f85yxqTTa_14tsuzulint_core6linter5testss_31test_lint_files_partial_failure
FN:262,_RNvNtNtCs47f85yxqTTa_14tsuzulint_core6linter5testss_31test_linter_config_hash_caching
FN:192,_RNvNtNtCs47f85yxqTTa_14tsuzulint_core6linter5testss_31test_linter_with_cache_disabled
FN:253,_RNvNtNtCs47f85yxqTTa_14tsuzulint_core6linter5testss_33test_load_configured_rules_static
FN:271,_RNvNtNtCs47f85yxqTTa_14tsuzulint_core6linter5testss_34test_lint_content_with_simple_rule
FN:300,_RNvNtNtCs47f85yxqTTa_14tsuzulint_core6linter5testss_34test_linter_with_multiple_patterns
FN:311,_RNvNtNtCs47f85yxqTTa_14tsuzulint_core6linter5testss_35test_lint_content_with_empty_string
FN:704,_RNvNtNtCs47f85yxqTTa_14tsuzulint_core6linter5testss_36test_lint_file_multiple_global_rules
FN:590,_RNvNtNtCs47f85yxqTTa_14tsuzulint_core6linter5testss_36test_lint_file_rejects_special_files
FN:392,_RNvNtNtCs47f85yxqTTa_14tsuzulint_core6linter5testss_37test_load_rule_absolute_path_security
FN:323,_RNvNtNtCs47f85yxqTTa_14tsuzulint_core6linter5testss_40test_lint_content_with_unknown_extension
FN:641,_RNvNtNtCs47f85yxqTTa_14tsuzulint_core6linter5testss_41test_lint_content_with_special_characters
FN:227,_RNvNtNtCs47f85yxqTTa_14tsuzulint_core6linter5testss_42test_lint_files_parallel_nonexistent_files
FN:611,_RNvNtNtCs47f85yxqTTa_14tsuzulint_core6linter5testss_44test_lint_files_poisoned_dynamic_rules_mutex
FN:82,_RINvMNtCs47f85yxqTTa_14tsuzulint_core6linterNtB3_6Linter9load_ruleRNtNtCsaa59N1qzrfe_3std4path7PathBufEB5_
FN:89,_RNCINvMNtCs47f85yxqTTa_14tsuzulint_core6linterNtB5_6Linter9load_ruleRNtNtCsaa59N1qzrfe_3std4path7PathBufE0B7_
FN:97,_RNCINvMNtCs47f85yxqTTa_14tsuzulint_core6linterNtB5_6Linter9load_ruleRNtNtCsaa59N1qzrfe_3std4path7PathBufEs_0B7_
FN:162,_RNCNvMNtCs47f85yxqTTa_14tsuzulint_core6linterNtB4_6Linter12lint_content0B6_
FN:61,_RNCNvMNtCs47f85yxqTTa_14tsuzulint_core6linterNtB4_6Linter3new0B6_
FN:108,_RNCNvMNtCs47f85yxqTTa_14tsuzulint_core6linterNtB4_6Linter9lint_file0B6_
FN:114,_RNCNvMNtCs47f85yxqTTa_14tsuzulint_core6linterNtB4_6Linter9lint_files0_0B6_
FNDA:15,_RNvMNtCsdHNy3eV5zAX_14tsuzulint_core6linterNtB2_6Linter10lint_files
FNDA:0,_RNvMNtCsdHNy3eV5zAX_14tsuzulint_core6linterNtB2_6Linter12lint_content
FNDA:16,_RNvMNtCsdHNy3eV5zAX_14tsuzulint_core6linterNtB2_6Linter13lint_patterns
FNDA:0,_RNvMNtCsdHNy3eV5zAX_14tsuzulint_core6linterNtB2_6Linter18create_plugin_host
FNDA:24,_RNvMNtCsdHNy3eV5zAX_14tsuzulint_core6linterNtB2_6Linter3new
FNDA:0,_RNCNvMNtCsdHNy3eV5zAX_14tsuzulint_core6linterNtB4_6Linter12lint_content0B6_
FNDA:0,_RNCNvMNtCsdHNy3eV5zAX_14tsuzulint_core6linterNtB4_6Linter3new0B6_
FNDA:0,_RINvMNtCsdHNy3eV5zAX_14tsuzulint_core6linterNtB3_6Linter9load_rulepEB5_
FNDA:0,_RNCINvMNtCsdHNy3eV5zAX_14tsuzulint_core6linterNtB5_6Linter9load_rulepE0B7_
FNDA:0,_RNCINvMNtCsdHNy3eV5zAX_14tsuzulint_core6linterNtB5_6Linter9load_rulepEs_0B7_
FNDA:0,_RNCNvMNtCsdHNy3eV5zAX_14tsuzulint_core6linterNtB4_6Linter9lint_file0B6_
FNDA:0,_RNCNvMNtCsdHNy3eV5zAX_14tsuzulint_core6linterNtB4_6Linter9lint_files0_0B6_
FNDA:0,_RNvMNtCsdHNy3eV5zAX_14tsuzulint_core6linterNtB2_6Linter9lint_file
FNDA:6,_RNvMNtCs47f85yxqTTa_14tsuzulint_core6linterNtB2_6Linter10lint_files
FNDA:5,_RNvMNtCs47f85yxqTTa_14tsuzulint_core6linterNtB2_6Linter12lint_content
FNDA:2,_RNvMNtCs47f85yxqTTa_14tsuzulint_core6linterNtB2_6Linter13lint_patterns
FNDA:1,_RNvMNtCs47f85yxqTTa_14tsuzulint_core6linterNtB2_6Linter18create_plugin_host
FNDA:25,_RNvMNtCs47f85yxqTTa_14tsuzulint_core6linterNtB2_6Linter3new
FNDA:14,_RNvMNtCs47f85yxqTTa_14tsuzulint_core6linterNtB2_6Linter9lint_file
FNDA:1,_RNCNvNtNtCs47f85yxqTTa_14tsuzulint_core6linter5testss_44test_lint_files_poisoned_dynamic_rules_mutex0B7_
FNDA:25,_RNvNtNtCs47f85yxqTTa_14tsuzulint_core6linter5tests11test_config
FNDA:1,_RNvNtNtCs47f85yxqTTa_14tsuzulint_core6linter5testss_15test_linter_new
FNDA:1,_RNvNtNtCs47f85yxqTTa_14tsuzulint_core6linter5testss_17test_lint_caching
FNDA:1,_RNvNtNtCs47f85yxqTTa_14tsuzulint_core6linter5testss_22test_lint_file_success
FNDA:1,_RNvNtNtCs47f85yxqTTa_14tsuzulint_core6linter5testss_22test_lint_file_symlink
FNDA:1,_RNvNtNtCs47f85yxqTTa_14tsuzulint_core6linter5testss_23test_create_plugin_host
FNDA:1,_RNvNtNtCs47f85yxqTTa_14tsuzulint_core6linter5testss_24test_lint_file_not_found
FNDA:1,_RNvNtNtCs47f85yxqTTa_14tsuzulint_core6linter5testss_24test_lint_file_too_large
FNDA:1,_RNvNtNtCs47f85yxqTTa_14tsuzulint_core6linter5testss_25test_lint_file_block_rule
FNDA:1,_RNvNtNtCs47f85yxqTTa_14tsuzulint_core6linter5testss_25test_lint_file_exact_size
FNDA:1,_RNvNtNtCs47f85yxqTTa_14tsuzulint_core6linter5testss_28test_lint_file_output_sorted
FNDA:1,_RNvNtNtCs47f85yxqTTa_14tsuzulint_core6linter5testss_28test_lint_patterns_expansion
FNDA:1,_RNvNtNtCs47f85yxqTTa_14tsuzulint_core6linter5testss_30test_lint_files_parallel_empty
FNDA:1,_RNvNtNtCs47f85yxqTTa_14tsuzulint_core6linter5testss_31test_lint_files_partial_failure
FNDA:1,_RNvNtNtCs47f85yxqTTa_14tsuzulint_core6linter5testss_31test_linter_config_hash_caching
FNDA:1,_RNvNtNtCs47f85yxqTTa_14tsuzulint_core6linter5testss_31test_linter_with_cache_disabled
FNDA:1,_RNvNtNtCs47f85yxqTTa_14tsuzulint_core6linter5testss_33test_load_configured_rules_static
FNDA:1,_RNvNtNtCs47f85yxqTTa_14tsuzulint_core6linter5testss_34test_lint_content_with_simple_rule
FNDA:1,_RNvNtNtCs47f85yxqTTa_14tsuzulint_core6linter5testss_34test_linter_with_multiple_patterns
FNDA:1,_RNvNtNtCs47f85yxqTTa_14tsuzulint_core6linter5testss_35test_lint_content_with_empty_string
FNDA:1,_RNvNtNtCs47f85yxqTTa_14tsuzulint_core6linter5testss_36test_lint_file_multiple_global_rules
FNDA:1,_RNvNtNtCs47f85yxqTTa_14tsuzulint_core6linter5testss_36test_lint_file_rejects_special_files
FNDA:1,_RNvNtNtCs47f85yxqTTa_14tsuzulint_core6linter5testss_37test_load_rule_absolute_path_security
FNDA:1,_RNvNtNtCs47f85yxqTTa_14tsuzulint_core6linter5testss_40test_lint_content_with_unknown_extension
FNDA:1,_RNvNtNtCs47f85yxqTTa_14tsuzulint_core6linter5testss_41test_lint_content_with_special_characters
FNDA:1,_RNvNtNtCs47f85yxqTTa_14tsuzulint_core6linter5testss_42test_lint_files_parallel_nonexistent_files
FNDA:1,_RNvNtNtCs47f85yxqTTa_14tsuzulint_core6linter5testss_44test_lint_files_poisoned_dynamic_rules_mutex
FNDA:8,_RINvMNtCs47f85yxqTTa_14tsuzulint_core6linterNtB3_6Linter9load_ruleRNtNtCsaa59N1qzrfe_3std4path7PathBufEB5_
FNDA:0,_RNCINvMNtCs47f85yxqTTa_14tsuzulint_core6linterNtB5_6Linter9load_ruleRNtNtCsaa59N1qzrfe_3std4path7PathBufE0B7_
FNDA:0,_RNCINvMNtCs47f85yxqTTa_14tsuzulint_core6linterNtB5_6Linter9load_ruleRNtNtCsaa59N1qzrfe_3std4path7PathBufEs_0B7_
FNDA:0,_RNCNvMNtCs47f85yxqTTa_14tsuzulint_core6linterNtB4_6Linter12lint_content0B6_
FNDA:0,_RNCNvMNtCs47f85yxqTTa_14tsuzulint_core6linterNtB4_6Linter3new0B6_
FNDA:0,_RNCNvMNtCs47f85yxqTTa_14tsuzulint_core6linterNtB4_6Linter9lint_file0B6_
FNDA:8,_RNCNvMNtCs47f85yxqTTa_14tsuzulint_core6linterNtB4_6Linter9lint_files0_0B6_
FNF:41
FNH:36
DA:49,49
DA:50,49
DA:51,49
DA:53,49
DA:54,17
DA:55,32
DA:57,49
DA:58,0
DA:59,49
DA:61,49
DA:62,0
DA:63,0
DA:65,49
DA:66,49
DA:68,49
DA:69,49
DA:71,48
DA:72,48
DA:73,48
DA:74,48
DA:75,48
DA:76,48
DA:77,48
DA:78,48
DA:79,48
DA:80,49
DA:82,8
DA:83,8
DA:86,8
DA:87,8
DA:88,8
DA:89,8
DA:90,8
DA:94,8
DA:95,8
DA:96,8
DA:97,8
DA:98,8
DA:100,8
DA:101,8
DA:104,14
DA:105,14
DA:106,14
DA:107,14
DA:108,14
DA:110,14
DA:111,14
DA:112,14
DA:113,14
DA:114,14
DA:115,14
DA:116,14
DA:118,14
DA:119,14
DA:120,14
DA:121,14
DA:122,14
DA:123,14
DA:124,14
DA:125,14
DA:126,14
DA:127,14
DA:128,14
DA:130,14
DA:131,14
DA:133,18
DA:134,18
DA:135,18
DA:136,17
DA:137,18
DA:139,21
DA:140,21
DA:141,21
DA:142,21
DA:143,21
DA:144,21
DA:145,21
DA:146,21
DA:148,21
DA:150,1
DA:151,1
DA:152,1
DA:154,5
DA:155,5
DA:156,5
DA:157,5
DA:158,5
DA:159,5
DA:160,5
DA:161,5
DA:162,5
DA:164,5
DA:165,5
DA:174,25
DA:175,25
DA:176,25
DA:177,25
DA:178,25
DA:179,25
DA:180,25
DA:181,25
DA:182,25
DA:185,1
DA:186,1
DA:187,1
DA:188,1
DA:189,1
DA:192,1
DA:193,1
DA:194,1
DA:196,1
DA:197,1
DA:198,1
DA:199,1
DA:200,1
DA:201,1
DA:202,1
DA:203,1
DA:206,1
DA:207,1
DA:210,1
DA:213,1
DA:214,1
DA:215,1
DA:217,1
DA:218,1
DA:219,1
DA:221,1
DA:222,1
DA:223,1
DA:224,1
DA:227,1
DA:228,1
DA:229,1
DA:231,1
DA:232,1
DA:233,1
DA:235,1
DA:236,1
DA:238,1
DA:239,1
DA:240,1
DA:241,1
DA:244,1
DA:245,1
DA:246,1
DA:248,1
DA:249,1
DA:250,1
DA:253,1
DA:254,1
DA:255,1
DA:257,1
DA:258,1
DA:259,1
DA:262,1
DA:263,1
DA:264,1
DA:265,1
DA:267,1
DA:268,1
DA:271,1
DA:272,1
DA:273,0
DA:274,0
DA:277,1
DA:278,1
DA:279,1
DA:280,1
DA:281,1
DA:283,1
DA:284,1
DA:286,1
DA:288,1
DA:289,1
DA:290,1
DA:291,1
DA:292,1
DA:294,1
DA:295,1
DA:296,1
DA:297,1
DA:300,1
DA:301,1
DA:302,1
DA:304,1
DA:305,1
DA:307,1
DA:308,1
DA:311,1
DA:312,1
DA:313,1
DA:315,1
DA:316,1
DA:318,1
DA:319,1
DA:320,1
DA:323,1
DA:324,1
DA:325,1
DA:327,1
DA:328,1
DA:329,1
DA:332,1
DA:333,1
DA:335,1
DA:336,1
DA:337,1
DA:338,1
DA:339,1
DA:340,1
DA:343,1
DA:345,1
DA:347,1
DA:349,1
DA:350,1
DA:351,1
DA:352,1
DA:353,1
DA:354,1
DA:355,0
DA:356,0
DA:358,1
DA:359,1
DA:360,1
DA:362,1
DA:364,1
DA:365,1
DA:367,1
DA:369,1
DA:370,1
DA:371,1
DA:372,1
DA:373,1
DA:375,0
DA:376,0
DA:381,1
DA:382,1
DA:384,1
DA:385,1
DA:386,1
DA:389,1
DA:392,1
DA:393,1
DA:394,0
DA:395,0
DA:398,1
DA:399,1
DA:400,1
DA:402,1
DA:404,1
DA:405,1
DA:406,1
DA:407,1
DA:408,1
DA:409,1
DA:410,1
DA:411,1
DA:412,1
DA:413,1
DA:414,1
DA:415,1
DA:416,1
DA:418,1
DA:419,1
DA:421,1
DA:422,1
DA:424,1
DA:425,1
DA:426,1
DA:427,1
DA:428,1
DA:429,1
DA:430,1
DA:431,1
DA:432,1
DA:434,1
DA:435,1
DA:437,1
DA:438,1
DA:439,1
DA:443,1
DA:446,1
DA:447,1
DA:448,1
DA:450,1
DA:451,1
DA:452,1
DA:454,1
DA:456,1
DA:457,1
DA:459,1
DA:460,1
DA:461,1
DA:463,1
DA:464,1
DA:467,1
DA:468,1
DA:469,0
DA:470,0
DA:473,1
DA:475,1
DA:476,1
DA:477,1
DA:478,1
DA:479,1
DA:480,1
DA:483,1
DA:485,1
DA:486,1
DA:488,1
DA:489,1
DA:491,1
DA:492,1
DA:494,1
DA:495,1
DA:496,1
DA:499,1
DA:500,1
DA:501,1
DA:503,1
DA:505,1
DA:506,1
DA:507,1
DA:508,1
DA:510,1
DA:512,1
DA:513,1
DA:514,1
DA:517,1
DA:518,1
DA:519,1
DA:521,1
DA:522,1
DA:523,1
DA:525,1
DA:526,1
DA:527,1
DA:528,1
DA:529,1
DA:532,1
DA:533,1
DA:534,1
DA:536,1
DA:539,1
DA:540,1
DA:542,1
DA:544,1
DA:545,0
DA:548,1
DA:549,1
DA:552,1
DA:556,1
DA:557,1
DA:558,1
DA:560,1
DA:561,1
DA:563,1
DA:564,1
DA:567,1
DA:569,1
DA:570,1
DA:573,1
DA:576,1
DA:577,1
DA:578,1
DA:580,1
DA:582,1
DA:583,1
DA:584,1
DA:585,1
DA:586,1
DA:590,1
DA:593,1
DA:594,1
DA:596,1
DA:597,1
DA:598,1
DA:599,1
DA:600,1
DA:601,1
DA:602,1
DA:604,1
DA:605,1
DA:606,1
DA:607,1
DA:608,1
DA:611,1
DA:612,1
DA:613,1
DA:615,1
DA:616,1
DA:617,1
DA:620,1
DA:622,1
DA:623,1
DA:625,1
DA:626,1
DA:628,1
DA:629,1
DA:630,1
DA:632,1
DA:633,1
DA:634,1
DA:638,1
DA:641,1
DA:642,1
DA:643,0
DA:644,0
DA:647,1
DA:648,1
DA:649,1
DA:650,1
DA:651,1
DA:653,1
DA:654,1
DA:656,1
DA:658,1
DA:659,1
DA:660,1
DA:661,1
DA:662,1
DA:663,1
DA:666,1
DA:667,1
DA:669,1
DA:670,1
DA:671,1
DA:672,1
DA:673,1
DA:674,1
DA:677,1
DA:679,1
DA:681,1
DA:682,1
DA:683,1
DA:684,1
DA:685,1
DA:686,0
DA:687,0
DA:690,1
DA:691,1
DA:692,1
DA:694,1
DA:696,1
DA:697,1
DA:699,1
DA:700,1
DA:701,1
DA:704,1
DA:705,1
DA:708,1
DA:709,1
DA:710,1
DA:711,1
DA:712,1
DA:713,1
DA:714,1
DA:715,1
DA:716,1
DA:718,1
DA:719,1
DA:720,1
DA:723,1
DA:725,1
DA:727,1
DA:728,1
DA:729,1
DA:730,1
DA:731,1
DA:732,1
DA:733,1
DA:734,1
DA:735,1
DA:736,1
DA:737,1
DA:738,1
DA:739,1
DA:740,1
DA:741,1
DA:742,1
DA:743,1
DA:744,0
DA:745,0
DA:748,1
DA:749,1
DA:750,1
DA:752,1
DA:756,1
DA:757,1
DA:760,1
DA:761,1
DA:764,1
DA:765,1
DA:769,1
DA:772,1
DA:775,1
DA:778,1
DA:779,1
DA:780,1
DA:781,1
DA:782,1
DA:783,1
DA:786,1
DA:788,1
DA:790,1
DA:792,1
DA:793,1
DA:794,1
DA:797,1
DA:798,1
DA:799,1
DA:800,1
DA:801,1
DA:802,1
DA:803,1
DA:804,1
DA:805,1
DA:807,0
DA:808,0
DA:811,1
DA:813,1
DA:814,1
DA:816,1
DA:819,1
DA:820,1
DA:823,1
DA:824,1
BRF:0
BRH:0
LF:536
LH:508
end_of_record
SF:/app/crates/tsuzulint_core/src/manifest_resolver.rs
FN:23,_RNCNvNtCsdHNy3eV5zAX_14tsuzulint_core17manifest_resolver21resolve_manifest_path0B5_
FN:14,_RNvNtCsdHNy3eV5zAX_14tsuzulint_core17manifest_resolver21resolve_manifest_path
FN:68,_RNvNtNtCs47f85yxqTTa_14tsuzulint_core17manifest_resolver5testss_35test_resolve_manifest_path_relative
FN:108,_RNvNtNtCs47f85yxqTTa_14tsuzulint_core17manifest_resolver5testss_38test_resolve_manifest_path_no_base_dir
FN:114,_RNvNtNtCs47f85yxqTTa_14tsuzulint_core17manifest_resolver5testss_44test_resolve_manifest_path_absolute_rejected
FN:79,_RNvNtNtCs47f85yxqTTa_14tsuzulint_core17manifest_resolver5testss_45test_resolve_manifest_path_traversal_rejected
FN:88,_RNvNtNtCs47f85yxqTTa_14tsuzulint_core17manifest_resolver5testss_48test_resolve_manifest_path_outside_base_rejected
FN:23,_RNCNvNtCs47f85yxqTTa_14tsuzulint_core17manifest_resolver21resolve_manifest_path0B5_
FN:14,_RNvNtCs47f85yxqTTa_14tsuzulint_core17manifest_resolver21resolve_manifest_path
FNDA:69,_RNCNvNtCsdHNy3eV5zAX_14tsuzulint_core17manifest_resolver21resolve_manifest_path0B5_
FNDA:23,_RNvNtCsdHNy3eV5zAX_14tsuzulint_core17manifest_resolver21resolve_manifest_path
FNDA:1,_RNvNtNtCs47f85yxqTTa_14tsuzulint_core17manifest_resolver5testss_35test_resolve_manifest_path_relative
FNDA:1,_RNvNtNtCs47f85yxqTTa_14tsuzulint_core17manifest_resolver5testss_38test_resolve_manifest_path_no_base_dir
FNDA:1,_RNvNtNtCs47f85yxqTTa_14tsuzulint_core17manifest_resolver5testss_44test_resolve_manifest_path_absolute_rejected
FNDA:1,_RNvNtNtCs47f85yxqTTa_14tsuzulint_core17manifest_resolver5testss_45test_resolve_manifest_path_traversal_rejected
FNDA:1,_RNvNtNtCs47f85yxqTTa_14tsuzulint_core17manifest_resolver5testss_48test_resolve_manifest_path_outside_base_rejected
FNDA:6,_RNCNvNtCs47f85yxqTTa_14tsuzulint_core17manifest_resolver21resolve_manifest_path0B5_
FNDA:8,_RNvNtCs47f85yxqTTa_14tsuzulint_core17manifest_resolver21resolve_manifest_path
FNF:7
FNH:7
DA:14,31
DA:15,31
DA:17,31
DA:18,2
DA:19,2
DA:20,29
DA:22,29
DA:23,75
DA:25,1
DA:26,1
DA:27,28
DA:29,28
DA:30,27
DA:31,27
DA:32,4
DA:33,4
DA:34,3
DA:36,1
DA:40,1
DA:43,23
DA:44,23
DA:46,0
DA:49,23
DA:51,0
DA:52,0
DA:53,0
DA:57,1
DA:59,31
DA:68,1
DA:69,1
DA:70,1
DA:71,1
DA:72,1
DA:74,1
DA:75,1
DA:76,1
DA:79,1
DA:80,1
DA:81,1
DA:83,1
DA:84,1
DA:85,1
DA:88,1
DA:89,1
DA:90,1
DA:91,1
DA:93,1
DA:94,1
DA:99,1
DA:100,1
DA:102,1
DA:103,1
DA:105,1
DA:108,1
DA:109,1
DA:110,1
DA:111,1
DA:114,1
DA:116,1
DA:122,1
DA:123,1
DA:124,1
DA:125,1
BRF:0
BRH:0
LF:64
LH:57
end_of_record
SF:/app/crates/tsuzulint_core/src/native_rules/presets.rs
FN:18,_RNvMNtNtCsdHNy3eV5zAX_14tsuzulint_core12native_rules7presetsNtB2_11PresetEntry4bare
FN:28,_RNvNtNtCsdHNy3eV5zAX_14tsuzulint_core12native_rules7presets14resolve_preset
FN:75,_RNvNtNtCsdHNy3eV5zAX_14tsuzulint_core12native_rules7presets16all_preset_names
FN:38,_RNvNtNtCsdHNy3eV5zAX_14tsuzulint_core12native_rules7presets20ja_technical_writing
FN:64,_RNvNtNtCsdHNy3eV5zAX_14tsuzulint_core12native_rules7presets8ja_basic
FN:86,_RNCNvNtNtNtCs47f85yxqTTa_14tsuzulint_core12native_rules7presets5testss_29resolves_ja_technical_writing0B9_
FN:87,_RNCNvNtNtNtCs47f85yxqTTa_14tsuzulint_core12native_rules7presets5testss_29resolves_ja_technical_writings_0B9_
FN:18,_RNvMNtNtCs47f85yxqTTa_14tsuzulint_core12native_rules7presetsNtB2_11PresetEntry4bare
FN:28,_RNvNtNtCs47f85yxqTTa_14tsuzulint_core12native_rules7presets14resolve_preset
FN:75,_RNvNtNtCs47f85yxqTTa_14tsuzulint_core12native_rules7presets16all_preset_names
FN:38,_RNvNtNtCs47f85yxqTTa_14tsuzulint_core12native_rules7presets20ja_technical_writing
FN:64,_RNvNtNtCs47f85yxqTTa_14tsuzulint_core12native_rules7presets8ja_basic
FN:101,_RNvNtNtNtCs47f85yxqTTa_14tsuzulint_core12native_rules7presets5testss_19all_presets_resolve
FN:91,_RNvNtNtNtCs47f85yxqTTa_14tsuzulint_core12native_rules7presets5testss_22resolves_prefixed_name
FN:96,_RNvNtNtNtCs47f85yxqTTa_14tsuzulint_core12native_rules7presets5testss_27unknown_preset_returns_none
FN:84,_RNvNtNtNtCs47f85yxqTTa_14tsuzulint_core12native_rules7presets5testss_29resolves_ja_technical_writing
FNDA:0,_RNvMNtNtCsdHNy3eV5zAX_14tsuzulint_core12native_rules7presetsNtB2_11PresetEntry4bare
FNDA:0,_RNvNtNtCsdHNy3eV5zAX_14tsuzulint_core12native_rules7presets14resolve_preset
FNDA:0,_RNvNtNtCsdHNy3eV5zAX_14tsuzulint_core12native_rules7presets16all_preset_names
FNDA:0,_RNvNtNtCsdHNy3eV5zAX_14tsuzulint_core12native_rules7presets20ja_technical_writing
FNDA:0,_RNvNtNtCsdHNy3eV5zAX_14tsuzulint_core12native_rules7presets8ja_basic
FNDA:1,_RNCNvNtNtNtCs47f85yxqTTa_14tsuzulint_core12native_rules7presets5testss_29resolves_ja_technical_writing0B9_
FNDA:2,_RNCNvNtNtNtCs47f85yxqTTa_14tsuzulint_core12native_rules7presets5testss_29resolves_ja_technical_writings_0B9_
FNDA:26,_RNvMNtNtCs47f85yxqTTa_14tsuzulint_core12native_rules7presetsNtB2_11PresetEntry4bare
FNDA:5,_RNvNtNtCs47f85yxqTTa_14tsuzulint_core12native_rules7presets14resolve_preset
FNDA:1,_RNvNtNtCs47f85yxqTTa_14tsuzulint_core12native_rules7presets16all_preset_names
FNDA:3,_RNvNtNtCs47f85yxqTTa_14tsuzulint_core12native_rules7presets20ja_technical_writing
FNDA:1,_RNvNtNtCs47f85yxqTTa_14tsuzulint_core12native_rules7presets8ja_basic
FNDA:1,_RNvNtNtNtCs47f85yxqTTa_14tsuzulint_core12native_rules7presets5testss_19all_presets_resolve
FNDA:1,_RNvNtNtNtCs47f85yxqTTa_14tsuzulint_core12native_rules7presets5testss_22resolves_prefixed_name
FNDA:1,_RNvNtNtNtCs47f85yxqTTa_14tsuzulint_core12native_rules7presets5testss_27unknown_preset_returns_none
FNDA:1,_RNvNtNtNtCs47f85yxqTTa_14tsuzulint_core12native_rules7presets5testss_29resolves_ja_technical_writing
FNF:11
FNH:11
DA:18,26
DA:19,26
DA:20,26
DA:21,26
DA:22,26
DA:23,26
DA:28,5
DA:29,5
DA:30,5
DA:31,2
DA:32,1
DA:34,5
DA:38,3
DA:39,3
DA:40,3
DA:41,3
DA:42,3
DA:43,3
DA:44,3
DA:45,3
DA:46,3
DA:47,3
DA:48,3
DA:49,3
DA:50,3
DA:51,3
DA:52,3
DA:53,3
DA:54,3
DA:55,3
DA:56,3
DA:57,3
DA:58,3
DA:60,3
DA:64,1
DA:65,1
DA:66,1
DA:67,1
DA:68,1
DA:69,1
DA:70,1
DA:72,1
DA:75,1
DA:76,1
DA:77,1
DA:84,1
DA:85,1
DA:86,1
DA:87,2
DA:88,1
DA:91,1
DA:92,1
DA:93,1
DA:96,1
DA:97,1
DA:98,1
DA:101,1
DA:102,2
DA:103,2
DA:104,2
DA:109,1
BRF:0
BRH:0
LF:63
LH:63
end_of_record
SF:/app/crates/tsuzulint_core/src/native_rules/registry.rs
FN:19,_RNvMNtNtCsdHNy3eV5zAX_14tsuzulint_core12native_rules8registryNtB2_15BuiltinRegistry3get
FN:33,_RNvMNtNtCsdHNy3eV5zAX_14tsuzulint_core12native_rules8registryNtB2_15BuiltinRegistry4load
FN:24,_RNvMNtNtCsdHNy3eV5zAX_14tsuzulint_core12native_rules8registryNtB2_15BuiltinRegistry5names
FN:43,_RNvNtNtCsdHNy3eV5zAX_14tsuzulint_core12native_rules8registry16builtin_registry
FN:24,_RNvMNtNtCs47f85yxqTTa_14tsuzulint_core12native_rules8registryNtB2_15BuiltinRegistry5names
FN:19,_RNvMNtNtCs47f85yxqTTa_14tsuzulint_core12native_rules8registryNtB2_15BuiltinRegistry3get
FN:33,_RNvMNtNtCs47f85yxqTTa_14tsuzulint_core12native_rules8registryNtB2_15BuiltinRegistry4load
FN:43,_RNvNtNtCs47f85yxqTTa_14tsuzulint_core12native_rules8registry16builtin_registry
FN:53,_RNvNtNtNtCs47f85yxqTTa_14tsuzulint_core12native_rules8registry5testss_25registry_contains_no_todo
FN:62,_RNvNtNtNtCs47f85yxqTTa_14tsuzulint_core12native_rules8registry5testss_33registry_returns_none_for_unknown
FNDA:40,_RNvMNtNtCsdHNy3eV5zAX_14tsuzulint_core12native_rules8registryNtB2_15BuiltinRegistry3get
FNDA:14,_RNvMNtNtCsdHNy3eV5zAX_14tsuzulint_core12native_rules8registryNtB2_15BuiltinRegistry4load
FNDA:0,_RNvMNtNtCsdHNy3eV5zAX_14tsuzulint_core12native_rules8registryNtB2_15BuiltinRegistry5names
FNDA:42,_RNvNtNtCsdHNy3eV5zAX_14tsuzulint_core12native_rules8registry16builtin_registry
FNDA:0,_RNvMNtNtCs47f85yxqTTa_14tsuzulint_core12native_rules8registryNtB2_15BuiltinRegistry5names
FNDA:17,_RNvMNtNtCs47f85yxqTTa_14tsuzulint_core12native_rules8registryNtB2_15BuiltinRegistry3get
FNDA:1,_RNvMNtNtCs47f85yxqTTa_14tsuzulint_core12native_rules8registryNtB2_15BuiltinRegistry4load
FNDA:31,_RNvNtNtCs47f85yxqTTa_14tsuzulint_core12native_rules8registry16builtin_registry
FNDA:1,_RNvNtNtNtCs47f85yxqTTa_14tsuzulint_core12native_rules8registry5testss_25registry_contains_no_todo
FNDA:1,_RNvNtNtNtCs47f85yxqTTa_14tsuzulint_core12native_rules8registry5testss_33registry_returns_none_for_unknown
FNF:6
FNH:5
DA:19,57
DA:20,57
DA:21,57
DA:24,0
DA:25,0
DA:26,0
DA:33,15
DA:34,15
DA:35,165
DA:36,165
DA:37,165
DA:38,15
DA:39,15
DA:43,73
DA:45,73
DA:46,73
DA:53,1
DA:54,1
DA:55,1
DA:56,1
DA:57,1
DA:58,1
DA:59,1
DA:62,1
DA:63,1
DA:64,1
BRF:0
BRH:0
LF:26
LH:23
end_of_record
SF:/app/crates/tsuzulint_core/src/native_rules/rule_trait.rs
FN:41,_RNvYNtNtNtNtCsdHNy3eV5zAX_14tsuzulint_core12native_rules5rules16no_doubled_joshi14NoDoubledJoshiNtNtB8_10rule_trait4Rule15needs_sentencesBa_
FN:27,_RNvYNtNtNtNtCsdHNy3eV5zAX_14tsuzulint_core12native_rules5rules16no_doubled_joshi14NoDoubledJoshiNtNtB8_10rule_trait4Rule7fixableBa_
FN:41,_RNvYNtNtNtNtCsdHNy3eV5zAX_14tsuzulint_core12native_rules5rules6no_nfd5NoNfdNtNtB8_10rule_trait4Rule15needs_sentencesBa_
FN:36,_RNvYNtNtNtNtCsdHNy3eV5zAX_14tsuzulint_core12native_rules5rules6no_nfd5NoNfdNtNtB8_10rule_trait4Rule16needs_morphologyBa_
FN:27,_RNvYNtNtNtNtCsdHNy3eV5zAX_14tsuzulint_core12native_rules5rules6no_nfd5NoNfdNtNtB8_10rule_trait4Rule7fixableBa_
FN:41,_RNvYNtNtNtNtCsdHNy3eV5zAX_14tsuzulint_core12native_rules5rules18ja_no_mixed_period15JaNoMixedPeriodNtNtB8_10rule_trait4Rule15needs_sentencesBa_
FN:36,_RNvYNtNtNtNtCsdHNy3eV5zAX_14tsuzulint_core12native_rules5rules18ja_no_mixed_period15JaNoMixedPeriodNtNtB8_10rule_trait4Rule16needs_morphologyBa_
FN:27,_RNvYNtNtNtNtCsdHNy3eV5zAX_14tsuzulint_core12native_rules5rules18ja_no_mixed_period15JaNoMixedPeriodNtNtB8_10rule_trait4Rule7fixableBa_
FN:22,_RNvYpNtNtNtCsdHNy3eV5zAX_14tsuzulint_core12native_rules10rule_trait4Rule11descriptionB9_
FN:41,_RNvYNtNtNtNtCsdHNy3eV5zAX_14tsuzulint_core12native_rules5rules15no_hankaku_kana13NoHankakuKanaNtNtB8_10rule_trait4Rule15needs_sentencesBa_
FN:36,_RNvYNtNtNtNtCsdHNy3eV5zAX_14tsuzulint_core12native_rules5rules15no_hankaku_kana13NoHankakuKanaNtNtB8_10rule_trait4Rule16needs_morphologyBa_
FN:27,_RNvYNtNtNtNtCsdHNy3eV5zAX_14tsuzulint_core12native_rules5rules15no_hankaku_kana13NoHankakuKanaNtNtB8_10rule_trait4Rule7fixableBa_
FN:41,_RNvYNtNtNtNtCsdHNy3eV5zAX_14tsuzulint_core12native_rules5rules28no_exclamation_question_mark25NoExclamationQuestionMarkNtNtB8_10rule_trait4Rule15needs_sentencesBa_
FN:36,_RNvYNtNtNtNtCsdHNy3eV5zAX_14tsuzulint_core12native_rules5rules28no_exclamation_question_mark25NoExclamationQuestionMarkNtNtB8_10rule_trait4Rule16needs_morphologyBa_
FN:27,_RNvYNtNtNtNtCsdHNy3eV5zAX_14tsuzulint_core12native_rules5rules28no_exclamation_question_mark25NoExclamationQuestionMarkNtNtB8_10rule_trait4Rule7fixableBa_
FN:41,_RNvYNtNtNtNtCsdHNy3eV5zAX_14tsuzulint_core12native_rules5rules33no_mixed_zenkaku_hankaku_alphabet29NoMixedZenkakuHankakuAlphabetNtNtB8_10rule_trait4Rule15needs_sentencesBa_
FN:36,_RNvYNtNtNtNtCsdHNy3eV5zAX_14tsuzulint_core12native_rules5rules33no_mixed_zenkaku_hankaku_alphabet29NoMixedZenkakuHankakuAlphabetNtNtB8_10rule_trait4Rule16needs_morphologyBa_
FN:27,_RNvYNtNtNtNtCsdHNy3eV5zAX_14tsuzulint_core12native_rules5rules33no_mixed_zenkaku_hankaku_alphabet29NoMixedZenkakuHankakuAlphabetNtNtB8_10rule_trait4Rule7fixableBa_
FN:36,_RNvYNtNtNtNtCsdHNy3eV5zAX_14tsuzulint_core12native_rules5rules15sentence_length14SentenceLengthNtNtB8_10rule_trait4Rule16needs_morphologyBa_
FN:27,_RNvYNtNtNtNtCsdHNy3eV5zAX_14tsuzulint_core12native_rules5rules15sentence_length14SentenceLengthNtNtB8_10rule_trait4Rule7fixableBa_
FN:41,_RNvYNtNtNtNtCsdHNy3eV5zAX_14tsuzulint_core12native_rules5rules24max_kanji_continuous_len21MaxKanjiContinuousLenNtNtB8_10rule_trait4Rule15needs_sentencesBa_
FN:36,_RNvYNtNtNtNtCsdHNy3eV5zAX_14tsuzulint_core12native_rules5rules24max_kanji_continuous_len21MaxKanjiContinuousLenNtNtB8_10rule_trait4Rule16needs_morphologyBa_
FN:27,_RNvYNtNtNtNtCsdHNy3eV5zAX_14tsuzulint_core12native_rules5rules24max_kanji_continuous_len21MaxKanjiContinuousLenNtNtB8_10rule_trait4Rule7fixableBa_
FN:41,_RNvYNtNtNtNtCsdHNy3eV5zAX_14tsuzulint_core12native_rules5rules7no_todo6NoTodoNtNtB8_10rule_trait4Rule15needs_sentencesBa_
FN:36,_RNvYNtNtNtNtCsdHNy3eV5zAX_14tsuzulint_core12native_rules5rules7no_todo6NoTodoNtNtB8_10rule_trait4Rule16needs_morphologyBa_
FN:27,_RNvYNtNtNtNtCsdHNy3eV5zAX_14tsuzulint_core12native_rules5rules7no_todo6NoTodoNtNtB8_10rule_trait4Rule7fixableBa_
FN:41,_RNvYNtNtNtNtCsdHNy3eV5zAX_14tsuzulint_core12native_rules5rules20no_zero_width_spaces17NoZeroWidthSpacesNtNtB8_10rule_trait4Rule15needs_sentencesBa_
FN:36,_RNvYNtNtNtNtCsdHNy3eV5zAX_14tsuzulint_core12native_rules5rules20no_zero_width_spaces17NoZeroWidthSpacesNtNtB8_10rule_trait4Rule16needs_morphologyBa_
FN:27,_RNvYNtNtNtNtCsdHNy3eV5zAX_14tsuzulint_core12native_rules5rules20no_zero_width_spaces17NoZeroWidthSpacesNtNtB8_10rule_trait4Rule7fixableBa_
FN:41,_RNvYNtNtNtNtCsdHNy3eV5zAX_14tsuzulint_core12native_rules5rules7max_ten6MaxTenNtNtB8_10rule_trait4Rule15needs_sentencesBa_
FN:36,_RNvYNtNtNtNtCsdHNy3eV5zAX_14tsuzulint_core12native_rules5rules7max_ten6MaxTenNtNtB8_10rule_trait4Rule16needs_morphologyBa_
FN:27,_RNvYNtNtNtNtCsdHNy3eV5zAX_14tsuzulint_core12native_rules5rules7max_ten6MaxTenNtNtB8_10rule_trait4Rule7fixableBa_
FN:36,_RNvYNtNtNtNtCs47f85yxqTTa_14tsuzulint_core12native_rules5rules15sentence_length14SentenceLengthNtNtB8_10rule_trait4Rule16needs_morphologyBa_
FN:27,_RNvYNtNtNtNtCs47f85yxqTTa_14tsuzulint_core12native_rules5rules15sentence_length14SentenceLengthNtNtB8_10rule_trait4Rule7fixableBa_
FN:41,_RNvYNtNtNtNtCs47f85yxqTTa_14tsuzulint_core12native_rules5rules7max_ten6MaxTenNtNtB8_10rule_trait4Rule15needs_sentencesBa_
FN:36,_RNvYNtNtNtNtCs47f85yxqTTa_14tsuzulint_core12native_rules5rules7max_ten6MaxTenNtNtB8_10rule_trait4Rule16needs_morphologyBa_
FN:27,_RNvYNtNtNtNtCs47f85yxqTTa_14tsuzulint_core12native_rules5rules7max_ten6MaxTenNtNtB8_10rule_trait4Rule7fixableBa_
FN:41,_RNvYNtNtNtNtCs47f85yxqTTa_14tsuzulint_core12native_rules5rules33no_mixed_zenkaku_hankaku_alphabet29NoMixedZenkakuHankakuAlphabetNtNtB8_10rule_trait4Rule15needs_sentencesBa_
FN:36,_RNvYNtNtNtNtCs47f85yxqTTa_14tsuzulint_core12native_rules5rules33no_mixed_zenkaku_hankaku_alphabet29NoMixedZenkakuHankakuAlphabetNtNtB8_10rule_trait4Rule16needs_morphologyBa_
FN:27,_RNvYNtNtNtNtCs47f85yxqTTa_14tsuzulint_core12native_rules5rules33no_mixed_zenkaku_hankaku_alphabet29NoMixedZenkakuHankakuAlphabetNtNtB8_10rule_trait4Rule7fixableBa_
FN:41,_RNvYNtNtNtNtCs47f85yxqTTa_14tsuzulint_core12native_rules5rules18ja_no_mixed_period15JaNoMixedPeriodNtNtB8_10rule_trait4Rule15needs_sentencesBa_
FN:36,_RNvYNtNtNtNtCs47f85yxqTTa_14tsuzulint_core12native_rules5rules18ja_no_mixed_period15JaNoMixedPeriodNtNtB8_10rule_trait4Rule16needs_morphologyBa_
FN:27,_RNvYNtNtNtNtCs47f85yxqTTa_14tsuzulint_core12native_rules5rules18ja_no_mixed_period15JaNoMixedPeriodNtNtB8_10rule_trait4Rule7fixableBa_
FN:41,_RNvYNtNtNtNtCs47f85yxqTTa_14tsuzulint_core12native_rules5rules16no_doubled_joshi14NoDoubledJoshiNtNtB8_10rule_trait4Rule15needs_sentencesBa_
FN:27,_RNvYNtNtNtNtCs47f85yxqTTa_14tsuzulint_core12native_rules5rules16no_doubled_joshi14NoDoubledJoshiNtNtB8_10rule_trait4Rule7fixableBa_
FN:41,_RNvYNtNtNtNtCs47f85yxqTTa_14tsuzulint_core12native_rules5rules28no_exclamation_question_mark25NoExclamationQuestionMarkNtNtB8_10rule_trait4Rule15needs_sentencesBa_
FN:36,_RNvYNtNtNtNtCs47f85yxqTTa_14tsuzulint_core12native_rules5rules28no_exclamation_question_mark25NoExclamationQuestionMarkNtNtB8_10rule_trait4Rule16needs_morphologyBa_
FN:27,_RNvYNtNtNtNtCs47f85yxqTTa_14tsuzulint_core12native_rules5rules28no_exclamation_question_mark25NoExclamationQuestionMarkNtNtB8_10rule_trait4Rule7fixableBa_
FN:22,_RNvYpNtNtNtCs47f85yxqTTa_14tsuzulint_core12native_rules10rule_trait4Rule11descriptionB9_
FN:41,_RNvYNtNtNtNtCs47f85yxqTTa_14tsuzulint_core12native_rules5rules15no_hankaku_kana13NoHankakuKanaNtNtB8_10rule_trait4Rule15needs_sentencesBa_
FN:36,_RNvYNtNtNtNtCs47f85yxqTTa_14tsuzulint_core12native_rules5rules15no_hankaku_kana13NoHankakuKanaNtNtB8_10rule_trait4Rule16needs_morphologyBa_
FN:27,_RNvYNtNtNtNtCs47f85yxqTTa_14tsuzulint_core12native_rules5rules15no_hankaku_kana13NoHankakuKanaNtNtB8_10rule_trait4Rule7fixableBa_
FN:41,_RNvYNtNtNtNtCs47f85yxqTTa_14tsuzulint_core12native_rules5rules6no_nfd5NoNfdNtNtB8_10rule_trait4Rule15needs_sentencesBa_
FN:36,_RNvYNtNtNtNtCs47f85yxqTTa_14tsuzulint_core12native_rules5rules6no_nfd5NoNfdNtNtB8_10rule_trait4Rule16needs_morphologyBa_
FN:27,_RNvYNtNtNtNtCs47f85yxqTTa_14tsuzulint_core12native_rules5rules6no_nfd5NoNfdNtNtB8_10rule_trait4Rule7fixableBa_
FN:41,_RNvYNtNtNtNtCs47f85yxqTTa_14tsuzulint_core12native_rules5rules7no_todo6NoTodoNtNtB8_10rule_trait4Rule15needs_sentencesBa_
FN:36,_RNvYNtNtNtNtCs47f85yxqTTa_14tsuzulint_core12native_rules5rules7no_todo6NoTodoNtNtB8_10rule_trait4Rule16needs_morphologyBa_
FN:27,_RNvYNtNtNtNtCs47f85yxqTTa_14tsuzulint_core12native_rules5rules7no_todo6NoTodoNtNtB8_10rule_trait4Rule7fixableBa_
FN:41,_RNvYNtNtNtNtCs47f85yxqTTa_14tsuzulint_core12native_rules5rules24max_kanji_continuous_len21MaxKanjiContinuousLenNtNtB8_10rule_trait4Rule15needs_sentencesBa_
FN:36,_RNvYNtNtNtNtCs47f85yxqTTa_14tsuzulint_core12native_rules5rules24max_kanji_continuous_len21MaxKanjiContinuousLenNtNtB8_10rule_trait4Rule16needs_morphologyBa_
FN:27,_RNvYNtNtNtNtCs47f85yxqTTa_14tsuzulint_core12native_rules5rules24max_kanji_continuous_len21MaxKanjiContinuousLenNtNtB8_10rule_trait4Rule7fixableBa_
FN:41,_RNvYNtNtNtNtCs47f85yxqTTa_14tsuzulint_core12native_rules5rules20no_zero_width_spaces17NoZeroWidthSpacesNtNtB8_10rule_trait4Rule15needs_sentencesBa_
FN:36,_RNvYNtNtNtNtCs47f85yxqTTa_14tsuzulint_core12native_rules5rules20no_zero_width_spaces17NoZeroWidthSpacesNtNtB8_10rule_trait4Rule16needs_morphologyBa_
FN:27,_RNvYNtNtNtNtCs47f85yxqTTa_14tsuzulint_core12native_rules5rules20no_zero_width_spaces17NoZeroWidthSpacesNtNtB8_10rule_trait4Rule7fixableBa_
FNDA:0,_RNvYNtNtNtNtCsdHNy3eV5zAX_14tsuzulint_core12native_rules5rules16no_doubled_joshi14NoDoubledJoshiNtNtB8_10rule_trait4Rule15needs_sentencesBa_
FNDA:0,_RNvYNtNtNtNtCsdHNy3eV5zAX_14tsuzulint_core12native_rules5rules16no_doubled_joshi14NoDoubledJoshiNtNtB8_10rule_trait4Rule7fixableBa_
FNDA:0,_RNvYNtNtNtNtCsdHNy3eV5zAX_14tsuzulint_core12native_rules5rules6no_nfd5NoNfdNtNtB8_10rule_trait4Rule15needs_sentencesBa_
FNDA:0,_RNvYNtNtNtNtCsdHNy3eV5zAX_14tsuzulint_core12native_rules5rules6no_nfd5NoNfdNtNtB8_10rule_trait4Rule16needs_morphologyBa_
FNDA:0,_RNvYNtNtNtNtCsdHNy3eV5zAX_14tsuzulint_core12native_rules5rules6no_nfd5NoNfdNtNtB8_10rule_trait4Rule7fixableBa_
FNDA:0,_RNvYNtNtNtNtCsdHNy3eV5zAX_14tsuzulint_core12native_rules5rules18ja_no_mixed_period15JaNoMixedPeriodNtNtB8_10rule_trait4Rule15needs_sentencesBa_
FNDA:0,_RNvYNtNtNtNtCsdHNy3eV5zAX_14tsuzulint_core12native_rules5rules18ja_no_mixed_period15JaNoMixedPeriodNtNtB8_10rule_trait4Rule16needs_morphologyBa_
FNDA:0,_RNvYNtNtNtNtCsdHNy3eV5zAX_14tsuzulint_core12native_rules5rules18ja_no_mixed_period15JaNoMixedPeriodNtNtB8_10rule_trait4Rule7fixableBa_
FNDA:0,_RNvYpNtNtNtCsdHNy3eV5zAX_14tsuzulint_core12native_rules10rule_trait4Rule11descriptionB9_
FNDA:0,_RNvYNtNtNtNtCsdHNy3eV5zAX_14tsuzulint_core12native_rules5rules15no_hankaku_kana13NoHankakuKanaNtNtB8_10rule_trait4Rule15needs_sentencesBa_
FNDA:0,_RNvYNtNtNtNtCsdHNy3eV5zAX_14tsuzulint_core12native_rules5rules15no_hankaku_kana13NoHankakuKanaNtNtB8_10rule_trait4Rule16needs_morphologyBa_
FNDA:0,_RNvYNtNtNtNtCsdHNy3eV5zAX_14tsuzulint_core12native_rules5rules15no_hankaku_kana13NoHankakuKanaNtNtB8_10rule_trait4Rule7fixableBa_
FNDA:0,_RNvYNtNtNtNtCsdHNy3eV5zAX_14tsuzulint_core12native_rules5rules28no_exclamation_question_mark25NoExclamationQuestionMarkNtNtB8_10rule_trait4Rule15needs_sentencesBa_
FNDA:0,_RNvYNtNtNtNtCsdHNy3eV5zAX_14tsuzulint_core12native_rules5rules28no_exclamation_question_mark25NoExclamationQuestionMarkNtNtB8_10rule_trait4Rule16needs_morphologyBa_
FNDA:0,_RNvYNtNtNtNtCsdHNy3eV5zAX_14tsuzulint_core12native_rules5rules28no_exclamation_question_mark25NoExclamationQuestionMarkNtNtB8_10rule_trait4Rule7fixableBa_
FNDA:0,_RNvYNtNtNtNtCsdHNy3eV5zAX_14tsuzulint_core12native_rules5rules33no_mixed_zenkaku_hankaku_alphabet29NoMixedZenkakuHankakuAlphabetNtNtB8_10rule_trait4Rule15needs_sentencesBa_
FNDA:0,_RNvYNtNtNtNtCsdHNy3eV5zAX_14tsuzulint_core12native_rules5rules33no_mixed_zenkaku_hankaku_alphabet29NoMixedZenkakuHankakuAlphabetNtNtB8_10rule_trait4Rule16needs_morphologyBa_
FNDA:0,_RNvYNtNtNtNtCsdHNy3eV5zAX_14tsuzulint_core12native_rules5rules33no_mixed_zenkaku_hankaku_alphabet29NoMixedZenkakuHankakuAlphabetNtNtB8_10rule_trait4Rule7fixableBa_
FNDA:0,_RNvYNtNtNtNtCsdHNy3eV5zAX_14tsuzulint_core12native_rules5rules15sentence_length14SentenceLengthNtNtB8_10rule_trait4Rule16needs_morphologyBa_
FNDA:0,_RNvYNtNtNtNtCsdHNy3eV5zAX_14tsuzulint_core12native_rules5rules15sentence_length14SentenceLengthNtNtB8_10rule_trait4Rule7fixableBa_
FNDA:0,_RNvYNtNtNtNtCsdHNy3eV5zAX_14tsuzulint_core12native_rules5rules24max_kanji_continuous_len21MaxKanjiContinuousLenNtNtB8_10rule_trait4Rule15needs_sentencesBa_
FNDA:0,_RNvYNtNtNtNtCsdHNy3eV5zAX_14tsuzulint_core12native_rules5rules24max_kanji_continuous_len21MaxKanjiContinuousLenNtNtB8_10rule_trait4Rule16needs_morphologyBa_
FNDA:0,_RNvYNtNtNtNtCsdHNy3eV5zAX_14tsuzulint_core12native_rules5rules24max_kanji_continuous_len21MaxKanjiContinuousLenNtNtB8_10rule_trait4Rule7fixableBa_
FNDA:0,_RNvYNtNtNtNtCsdHNy3eV5zAX_14tsuzulint_core12native_rules5rules7no_todo6NoTodoNtNtB8_10rule_trait4Rule15needs_sentencesBa_
FNDA:0,_RNvYNtNtNtNtCsdHNy3eV5zAX_14tsuzulint_core12native_rules5rules7no_todo6NoTodoNtNtB8_10rule_trait4Rule16needs_morphologyBa_
FNDA:0,_RNvYNtNtNtNtCsdHNy3eV5zAX_14tsuzulint_core12native_rules5rules7no_todo6NoTodoNtNtB8_10rule_trait4Rule7fixableBa_
FNDA:0,_RNvYNtNtNtNtCsdHNy3eV5zAX_14tsuzulint_core12native_rules5rules20no_zero_width_spaces17NoZeroWidthSpacesNtNtB8_10rule_trait4Rule15needs_sentencesBa_
FNDA:0,_RNvYNtNtNtNtCsdHNy3eV5zAX_14tsuzulint_core12native_rules5rules20no_zero_width_spaces17NoZeroWidthSpacesNtNtB8_10rule_trait4Rule16needs_morphologyBa_
FNDA:0,_RNvYNtNtNtNtCsdHNy3eV5zAX_14tsuzulint_core12native_rules5rules20no_zero_width_spaces17NoZeroWidthSpacesNtNtB8_10rule_trait4Rule7fixableBa_
FNDA:0,_RNvYNtNtNtNtCsdHNy3eV5zAX_14tsuzulint_core12native_rules5rules7max_ten6MaxTenNtNtB8_10rule_trait4Rule15needs_sentencesBa_
FNDA:0,_RNvYNtNtNtNtCsdHNy3eV5zAX_14tsuzulint_core12native_rules5rules7max_ten6MaxTenNtNtB8_10rule_trait4Rule16needs_morphologyBa_
FNDA:0,_RNvYNtNtNtNtCsdHNy3eV5zAX_14tsuzulint_core12native_rules5rules7max_ten6MaxTenNtNtB8_10rule_trait4Rule7fixableBa_
FNDA:0,_RNvYNtNtNtNtCs47f85yxqTTa_14tsuzulint_core12native_rules5rules15sentence_length14SentenceLengthNtNtB8_10rule_trait4Rule16needs_morphologyBa_
FNDA:0,_RNvYNtNtNtNtCs47f85yxqTTa_14tsuzulint_core12native_rules5rules15sentence_length14SentenceLengthNtNtB8_10rule_trait4Rule7fixableBa_
FNDA:0,_RNvYNtNtNtNtCs47f85yxqTTa_14tsuzulint_core12native_rules5rules7max_ten6MaxTenNtNtB8_10rule_trait4Rule15needs_sentencesBa_
FNDA:0,_RNvYNtNtNtNtCs47f85yxqTTa_14tsuzulint_core12native_rules5rules7max_ten6MaxTenNtNtB8_10rule_trait4Rule16needs_morphologyBa_
FNDA:0,_RNvYNtNtNtNtCs47f85yxqTTa_14tsuzulint_core12native_rules5rules7max_ten6MaxTenNtNtB8_10rule_trait4Rule7fixableBa_
FNDA:0,_RNvYNtNtNtNtCs47f85yxqTTa_14tsuzulint_core12native_rules5rules33no_mixed_zenkaku_hankaku_alphabet29NoMixedZenkakuHankakuAlphabetNtNtB8_10rule_trait4Rule15needs_sentencesBa_
FNDA:0,_RNvYNtNtNtNtCs47f85yxqTTa_14tsuzulint_core12native_rules5rules33no_mixed_zenkaku_hankaku_alphabet29NoMixedZenkakuHankakuAlphabetNtNtB8_10rule_trait4Rule16needs_morphologyBa_
FNDA:0,_RNvYNtNtNtNtCs47f85yxqTTa_14tsuzulint_core12native_rules5rules33no_mixed_zenkaku_hankaku_alphabet29NoMixedZenkakuHankakuAlphabetNtNtB8_10rule_trait4Rule7fixableBa_
FNDA:0,_RNvYNtNtNtNtCs47f85yxqTTa_14tsuzulint_core12native_rules5rules18ja_no_mixed_period15JaNoMixedPeriodNtNtB8_10rule_trait4Rule15needs_sentencesBa_
FNDA:0,_RNvYNtNtNtNtCs47f85yxqTTa_14tsuzulint_core12native_rules5rules18ja_no_mixed_period15JaNoMixedPeriodNtNtB8_10rule_trait4Rule16needs_morphologyBa_
FNDA:0,_RNvYNtNtNtNtCs47f85yxqTTa_14tsuzulint_core12native_rules5rules18ja_no_mixed_period15JaNoMixedPeriodNtNtB8_10rule_trait4Rule7fixableBa_
FNDA:0,_RNvYNtNtNtNtCs47f85yxqTTa_14tsuzulint_core12native_rules5rules16no_doubled_joshi14NoDoubledJoshiNtNtB8_10rule_trait4Rule15needs_sentencesBa_
FNDA:0,_RNvYNtNtNtNtCs47f85yxqTTa_14tsuzulint_core12native_rules5rules16no_doubled_joshi14NoDoubledJoshiNtNtB8_10rule_trait4Rule7fixableBa_
FNDA:0,_RNvYNtNtNtNtCs47f85yxqTTa_14tsuzulint_core12native_rules5rules28no_exclamation_question_mark25NoExclamationQuestionMarkNtNtB8_10rule_trait4Rule15needs_sentencesBa_
FNDA:0,_RNvYNtNtNtNtCs47f85yxqTTa_14tsuzulint_core12native_rules5rules28no_exclamation_question_mark25NoExclamationQuestionMarkNtNtB8_10rule_trait4Rule16needs_morphologyBa_
FNDA:0,_RNvYNtNtNtNtCs47f85yxqTTa_14tsuzulint_core12native_rules5rules28no_exclamation_question_mark25NoExclamationQuestionMarkNtNtB8_10rule_trait4Rule7fixableBa_
FNDA:0,_RNvYpNtNtNtCs47f85yxqTTa_14tsuzulint_core12native_rules10rule_trait4Rule11descriptionB9_
FNDA:0,_RNvYNtNtNtNtCs47f85yxqTTa_14tsuzulint_core12native_rules5rules15no_hankaku_kana13NoHankakuKanaNtNtB8_10rule_trait4Rule15needs_sentencesBa_
FNDA:0,_RNvYNtNtNtNtCs47f85yxqTTa_14tsuzulint_core12native_rules5rules15no_hankaku_kana13NoHankakuKanaNtNtB8_10rule_trait4Rule16needs_morphologyBa_
FNDA:0,_RNvYNtNtNtNtCs47f85yxqTTa_14tsuzulint_core12native_rules5rules15no_hankaku_kana13NoHankakuKanaNtNtB8_10rule_trait4Rule7fixableBa_
FNDA:0,_RNvYNtNtNtNtCs47f85yxqTTa_14tsuzulint_core12native_rules5rules6no_nfd5NoNfdNtNtB8_10rule_trait4Rule15needs_sentencesBa_
FNDA:0,_RNvYNtNtNtNtCs47f85yxqTTa_14tsuzulint_core12native_rules5rules6no_nfd5NoNfdNtNtB8_10rule_trait4Rule16needs_morphologyBa_
FNDA:0,_RNvYNtNtNtNtCs47f85yxqTTa_14tsuzulint_core12native_rules5rules6no_nfd5NoNfdNtNtB8_10rule_trait4Rule7fixableBa_
FNDA:0,_RNvYNtNtNtNtCs47f85yxqTTa_14tsuzulint_core12native_rules5rules7no_todo6NoTodoNtNtB8_10rule_trait4Rule15needs_sentencesBa_
FNDA:0,_RNvYNtNtNtNtCs47f85yxqTTa_14tsuzulint_core12native_rules5rules7no_todo6NoTodoNtNtB8_10rule_trait4Rule16needs_morphologyBa_
FNDA:0,_RNvYNtNtNtNtCs47f85yxqTTa_14tsuzulint_core12native_rules5rules7no_todo6NoTodoNtNtB8_10rule_trait4Rule7fixableBa_
FNDA:0,_RNvYNtNtNtNtCs47f85yxqTTa_14tsuzulint_core12native_rules5rules24max_kanji_continuous_len21MaxKanjiContinuousLenNtNtB8_10rule_trait4Rule15needs_sentencesBa_
FNDA:0,_RNvYNtNtNtNtCs47f85yxqTTa_14tsuzulint_core12native_rules5rules24max_kanji_continuous_len21MaxKanjiContinuousLenNtNtB8_10rule_trait4Rule16needs_morphologyBa_
FNDA:0,_RNvYNtNtNtNtCs47f85yxqTTa_14tsuzulint_core12native_rules5rules24max_kanji_continuous_len21MaxKanjiContinuousLenNtNtB8_10rule_trait4Rule7fixableBa_
FNDA:0,_RNvYNtNtNtNtCs47f85yxqTTa_14tsuzulint_core12native_rules5rules20no_zero_width_spaces17NoZeroWidthSpacesNtNtB8_10rule_trait4Rule15needs_sentencesBa_
FNDA:0,_RNvYNtNtNtNtCs47f85yxqTTa_14tsuzulint_core12native_rules5rules20no_zero_width_spaces17NoZeroWidthSpacesNtNtB8_10rule_trait4Rule16needs_morphologyBa_
FNDA:0,_RNvYNtNtNtNtCs47f85yxqTTa_14tsuzulint_core12native_rules5rules20no_zero_width_spaces17NoZeroWidthSpacesNtNtB8_10rule_trait4Rule7fixableBa_
FNF:4
FNH:0
DA:22,0
DA:23,0
DA:24,0
DA:27,0
DA:28,0
DA:29,0
DA:36,0
DA:37,0
DA:38,0
DA:41,0
DA:42,0
DA:43,0
BRF:0
BRH:0
LF:12
LH:0
end_of_record
SF:/app/crates/tsuzulint_core/src/native_rules/rules/ja_no_mixed_period.rs
FN:99,_RNCNvNtNtNtCsdHNy3eV5zAX_14tsuzulint_core12native_rules5rules18ja_no_mixed_period7collect0B9_
FN:100,_RNCNvNtNtNtCsdHNy3eV5zAX_14tsuzulint_core12native_rules5rules18ja_no_mixed_period7collects_0B9_
FN:51,_RNCNvXNtNtNtCsdHNy3eV5zAX_14tsuzulint_core12native_rules5rules18ja_no_mixed_periodNtB4_15JaNoMixedPeriodNtNtB8_10rule_trait4Rule4lint0Ba_
FN:66,_RNvNtNtNtCsdHNy3eV5zAX_14tsuzulint_core12native_rules5rules18ja_no_mixed_period7collect
FN:23,_RNvXNtNtNtCsdHNy3eV5zAX_14tsuzulint_core12native_rules5rules18ja_no_mixed_periodNtB2_15JaNoMixedPeriodNtNtB6_10rule_trait4Rule11description
FN:27,_RNvXNtNtNtCsdHNy3eV5zAX_14tsuzulint_core12native_rules5rules18ja_no_mixed_periodNtB2_15JaNoMixedPeriodNtNtB6_10rule_trait4Rule4lint
FN:19,_RNvXNtNtNtCsdHNy3eV5zAX_14tsuzulint_core12native_rules5rules18ja_no_mixed_periodNtB2_15JaNoMixedPeriodNtNtB6_10rule_trait4Rule4name
FN:122,_RNvNtNtNtNtCs47f85yxqTTa_14tsuzulint_core12native_rules5rules18ja_no_mixed_period5tests4lint
FN:165,_RNvNtNtNtNtCs47f85yxqTTa_14tsuzulint_core12native_rules5rules18ja_no_mixed_period5testss_16ignores_decimals
FN:154,_RNvNtNtNtNtCs47f85yxqTTa_14tsuzulint_core12native_rules5rules18ja_no_mixed_period5testss_19passes_when_only_en
FN:149,_RNvNtNtNtNtCs47f85yxqTTa_14tsuzulint_core12native_rules5rules18ja_no_mixed_period5testss_19passes_when_only_ja
FN:159,_RNvNtNtNtNtCs47f85yxqTTa_14tsuzulint_core12native_rules5rules18ja_no_mixed_period5testss_24flags_minority_en_period
FN:66,_RNvNtNtNtCs47f85yxqTTa_14tsuzulint_core12native_rules5rules18ja_no_mixed_period7collect
FN:23,_RNvXNtNtNtCs47f85yxqTTa_14tsuzulint_core12native_rules5rules18ja_no_mixed_periodNtB2_15JaNoMixedPeriodNtNtB6_10rule_trait4Rule11description
FN:27,_RNvXNtNtNtCs47f85yxqTTa_14tsuzulint_core12native_rules5rules18ja_no_mixed_periodNtB2_15JaNoMixedPeriodNtNtB6_10rule_trait4Rule4lint
FN:19,_RNvXNtNtNtCs47f85yxqTTa_14tsuzulint_core12native_rules5rules18ja_no_mixed_periodNtB2_15JaNoMixedPeriodNtNtB6_10rule_trait4Rule4name
FN:99,_RNCNvNtNtNtCs47f85yxqTTa_14tsuzulint_core12native_rules5rules18ja_no_mixed_period7collect0B9_
FN:100,_RNCNvNtNtNtCs47f85yxqTTa_14tsuzulint_core12native_rules5rules18ja_no_mixed_period7collects_0B9_
FN:51,_RNCNvXNtNtNtCs47f85yxqTTa_14tsuzulint_core12native_rules5rules18ja_no_mixed_periodNtB4_15JaNoMixedPeriodNtNtB8_10rule_trait4Rule4lint0Ba_
FNDA:0,_RNCNvNtNtNtCsdHNy3eV5zAX_14tsuzulint_core12native_rules5rules18ja_no_mixed_period7collect0B9_
FNDA:0,_RNCNvNtNtNtCsdHNy3eV5zAX_14tsuzulint_core12native_rules5rules18ja_no_mixed_period7collects_0B9_
FNDA:0,_RNCNvXNtNtNtCsdHNy3eV5zAX_14tsuzulint_core12native_rules5rules18ja_no_mixed_periodNtB4_15JaNoMixedPeriodNtNtB8_10rule_trait4Rule4lint0Ba_
FNDA:0,_RNvNtNtNtCsdHNy3eV5zAX_14tsuzulint_core12native_rules5rules18ja_no_mixed_period7collect
FNDA:0,_RNvXNtNtNtCsdHNy3eV5zAX_14tsuzulint_core12native_rules5rules18ja_no_mixed_periodNtB2_15JaNoMixedPeriodNtNtB6_10rule_trait4Rule11description
FNDA:0,_RNvXNtNtNtCsdHNy3eV5zAX_14tsuzulint_core12native_rules5rules18ja_no_mixed_periodNtB2_15JaNoMixedPeriodNtNtB6_10rule_trait4Rule4lint
FNDA:14,_RNvXNtNtNtCsdHNy3eV5zAX_14tsuzulint_core12native_rules5rules18ja_no_mixed_periodNtB2_15JaNoMixedPeriodNtNtB6_10rule_trait4Rule4name
FNDA:4,_RNvNtNtNtNtCs47f85yxqTTa_14tsuzulint_core12native_rules5rules18ja_no_mixed_period5tests4lint
FNDA:1,_RNvNtNtNtNtCs47f85yxqTTa_14tsuzulint_core12native_rules5rules18ja_no_mixed_period5testss_16ignores_decimals
FNDA:1,_RNvNtNtNtNtCs47f85yxqTTa_14tsuzulint_core12native_rules5rules18ja_no_mixed_period5testss_19passes_when_only_en
FNDA:1,_RNvNtNtNtNtCs47f85yxqTTa_14tsuzulint_core12native_rules5rules18ja_no_mixed_period5testss_19passes_when_only_ja
FNDA:1,_RNvNtNtNtNtCs47f85yxqTTa_14tsuzulint_core12native_rules5rules18ja_no_mixed_period5testss_24flags_minority_en_period
FNDA:12,_RNvNtNtNtCs47f85yxqTTa_14tsuzulint_core12native_rules5rules18ja_no_mixed_period7collect
FNDA:0,_RNvXNtNtNtCs47f85yxqTTa_14tsuzulint_core12native_rules5rules18ja_no_mixed_periodNtB2_15JaNoMixedPeriodNtNtB6_10rule_trait4Rule11description
FNDA:4,_RNvXNtNtNtCs47f85yxqTTa_14tsuzulint_core12native_rules5rules18ja_no_mixed_periodNtB2_15JaNoMixedPeriodNtNtB6_10rule_trait4Rule4lint
FNDA:1,_RNvXNtNtNtCs47f85yxqTTa_14tsuzulint_core12native_rules5rules18ja_no_mixed_periodNtB2_15JaNoMixedPeriodNtNtB6_10rule_trait4Rule4name
FNDA:4,_RNCNvNtNtNtCs47f85yxqTTa_14tsuzulint_core12native_rules5rules18ja_no_mixed_period7collect0B9_
FNDA:1,_RNCNvNtNtNtCs47f85yxqTTa_14tsuzulint_core12native_rules5rules18ja_no_mixed_period7collects_0B9_
FNDA:1,_RNCNvXNtNtNtCs47f85yxqTTa_14tsuzulint_core12native_rules5rules18ja_no_mixed_periodNtB4_15JaNoMixedPeriodNtNtB8_10rule_trait4Rule4lint0Ba_
FNF:12
FNH:11
DA:19,15
DA:20,15
DA:21,15
DA:23,0
DA:24,0
DA:25,0
DA:27,4
DA:28,4
DA:29,4
DA:30,4
DA:31,4
DA:32,4
DA:33,4
DA:34,4
DA:35,4
DA:37,4
DA:38,3
DA:39,1
DA:43,1
DA:44,1
DA:45,0
DA:47,1
DA:49,1
DA:50,1
DA:51,1
DA:52,1
DA:54,1
DA:58,1
DA:60,1
DA:61,1
DA:62,1
DA:63,4
DA:66,12
DA:67,12
DA:68,12
DA:69,12
DA:70,12
DA:71,12
DA:72,12
DA:73,0
DA:74,12
DA:75,12
DA:76,4
DA:77,4
DA:78,4
DA:79,0
DA:80,4
DA:81,4
DA:82,4
DA:83,4
DA:84,4
DA:85,85
DA:86,81
DA:87,81
DA:88,6
DA:93,4
DA:94,4
DA:95,4
DA:96,2
DA:97,2
DA:99,4
DA:100,1
DA:101,4
DA:102,3
DA:103,3
DA:105,71
DA:107,81
DA:108,81
DA:110,4
DA:111,8
DA:112,8
DA:113,8
DA:114,8
DA:115,12
DA:122,4
DA:123,4
DA:124,4
DA:125,4
DA:126,4
DA:127,4
DA:129,4
DA:130,4
DA:131,4
DA:132,4
DA:133,4
DA:135,4
DA:136,4
DA:137,4
DA:138,4
DA:139,4
DA:140,4
DA:141,4
DA:142,4
DA:143,4
DA:144,4
DA:145,4
DA:146,4
DA:149,1
DA:150,1
DA:151,1
DA:154,1
DA:155,1
DA:156,1
DA:159,1
DA:160,1
DA:161,1
DA:162,1
DA:165,1
DA:167,1
DA:168,1
DA:169,1
BRF:0
BRH:0
LF:114
LH:108
end_of_record
SF:/app/crates/tsuzulint_core/src/native_rules/rules/max_kanji_continuous_len.rs
FN:27,_RNvMNtNtNtCsdHNy3eV5zAX_14tsuzulint_core12native_rules5rules24max_kanji_continuous_lenNtB2_6Config12from_options
FN:59,_RNvNtNtNtCsdHNy3eV5zAX_14tsuzulint_core12native_rules5rules24max_kanji_continuous_len4scan
FN:16,_RNvNtNtNtCsdHNy3eV5zAX_14tsuzulint_core12native_rules5rules24max_kanji_continuous_len8is_kanji
FN:47,_RNvXs_NtNtNtCsdHNy3eV5zAX_14tsuzulint_core12native_rules5rules24max_kanji_continuous_lenNtB4_21MaxKanjiContinuousLenNtNtB8_10rule_trait4Rule11description
FN:51,_RNvXs_NtNtNtCsdHNy3eV5zAX_14tsuzulint_core12native_rules5rules24max_kanji_continuous_lenNtB4_21MaxKanjiContinuousLenNtNtB8_10rule_trait4Rule4lint
FN:43,_RNvXs_NtNtNtCsdHNy3eV5zAX_14tsuzulint_core12native_rules5rules24max_kanji_continuous_lenNtB4_21MaxKanjiContinuousLenNtNtB8_10rule_trait4Rule4name
FN:27,_RNvMNtNtNtCs47f85yxqTTa_14tsuzulint_core12native_rules5rules24max_kanji_continuous_lenNtB2_6Config12from_options
FN:59,_RNvNtNtNtCs47f85yxqTTa_14tsuzulint_core12native_rules5rules24max_kanji_continuous_len4scan
FN:16,_RNvNtNtNtCs47f85yxqTTa_14tsuzulint_core12native_rules5rules24max_kanji_continuous_len8is_kanji
FN:47,_RNvXs_NtNtNtCs47f85yxqTTa_14tsuzulint_core12native_rules5rules24max_kanji_continuous_lenNtB4_21MaxKanjiContinuousLenNtNtB8_10rule_trait4Rule11description
FN:51,_RNvXs_NtNtNtCs47f85yxqTTa_14tsuzulint_core12native_rules5rules24max_kanji_continuous_lenNtB4_21MaxKanjiContinuousLenNtNtB8_10rule_trait4Rule4lint
FN:43,_RNvXs_NtNtNtCs47f85yxqTTa_14tsuzulint_core12native_rules5rules24max_kanji_continuous_lenNtB4_21MaxKanjiContinuousLenNtNtB8_10rule_trait4Rule4name
FN:127,_RNvNtNtNtNtCs47f85yxqTTa_14tsuzulint_core12native_rules5rules24max_kanji_continuous_len5tests4lint
FN:160,_RNvNtNtNtNtCs47f85yxqTTa_14tsuzulint_core12native_rules5rules24max_kanji_continuous_len5testss_16long_run_flagged
FN:155,_RNvNtNtNtNtCs47f85yxqTTa_14tsuzulint_core12native_rules5rules24max_kanji_continuous_len5testss_16short_run_passes
FN:168,_RNvNtNtNtNtCs47f85yxqTTa_14tsuzulint_core12native_rules5rules24max_kanji_continuous_len5testss_17run_at_max_passes
FN:174,_RNvNtNtNtNtCs47f85yxqTTa_14tsuzulint_core12native_rules5rules24max_kanji_continuous_len5testss_19hiragana_breaks_run
FNDA:0,_RNvMNtNtNtCsdHNy3eV5zAX_14tsuzulint_core12native_rules5rules24max_kanji_continuous_lenNtB2_6Config12from_options
FNDA:0,_RNvNtNtNtCsdHNy3eV5zAX_14tsuzulint_core12native_rules5rules24max_kanji_continuous_len4scan
FNDA:0,_RNvNtNtNtCsdHNy3eV5zAX_14tsuzulint_core12native_rules5rules24max_kanji_continuous_len8is_kanji
FNDA:0,_RNvXs_NtNtNtCsdHNy3eV5zAX_14tsuzulint_core12native_rules5rules24max_kanji_continuous_lenNtB4_21MaxKanjiContinuousLenNtNtB8_10rule_trait4Rule11description
FNDA:0,_RNvXs_NtNtNtCsdHNy3eV5zAX_14tsuzulint_core12native_rules5rules24max_kanji_continuous_lenNtB4_21MaxKanjiContinuousLenNtNtB8_10rule_trait4Rule4lint
FNDA:14,_RNvXs_NtNtNtCsdHNy3eV5zAX_14tsuzulint_core12native_rules5rules24max_kanji_continuous_lenNtB4_21MaxKanjiContinuousLenNtNtB8_10rule_trait4Rule4name
FNDA:4,_RNvMNtNtNtCs47f85yxqTTa_14tsuzulint_core12native_rules5rules24max_kanji_continuous_lenNtB2_6Config12from_options
FNDA:12,_RNvNtNtNtCs47f85yxqTTa_14tsuzulint_core12native_rules5rules24max_kanji_continuous_len4scan
FNDA:29,_RNvNtNtNtCs47f85yxqTTa_14tsuzulint_core12native_rules5rules24max_kanji_continuous_len8is_kanji
FNDA:0,_RNvXs_NtNtNtCs47f85yxqTTa_14tsuzulint_core12native_rules5rules24max_kanji_continuous_lenNtB4_21MaxKanjiContinuousLenNtNtB8_10rule_trait4Rule11description
FNDA:4,_RNvXs_NtNtNtCs47f85yxqTTa_14tsuzulint_core12native_rules5rules24max_kanji_continuous_lenNtB4_21MaxKanjiContinuousLenNtNtB8_10rule_trait4Rule4lint
FNDA:1,_RNvXs_NtNtNtCs47f85yxqTTa_14tsuzulint_core12native_rules5rules24max_kanji_continuous_lenNtB4_21MaxKanjiContinuousLenNtNtB8_10rule_trait4Rule4name
FNDA:4,_RNvNtNtNtNtCs47f85yxqTTa_14tsuzulint_core12native_rules5rules24max_kanji_continuous_len5tests4lint
FNDA:1,_RNvNtNtNtNtCs47f85yxqTTa_14tsuzulint_core12native_rules5rules24max_kanji_continuous_len5testss_16long_run_flagged
FNDA:1,_RNvNtNtNtNtCs47f85yxqTTa_14tsuzulint_core12native_rules5rules24max_kanji_continuous_len5testss_16short_run_passes
FNDA:1,_RNvNtNtNtNtCs47f85yxqTTa_14tsuzulint_core12native_rules5rules24max_kanji_continuous_len5testss_17run_at_max_passes
FNDA:1,_RNvNtNtNtNtCs47f85yxqTTa_14tsuzulint_core12native_rules5rules24max_kanji_continuous_len5testss_19hiragana_breaks_run
FNF:11
FNH:10
DA:16,29
DA:18,29
DA:19,29
DA:20,29
DA:27,4
DA:28,4
DA:29,4
DA:30,4
DA:31,4
DA:32,4
DA:33,4
DA:34,4
DA:35,4
DA:36,4
DA:43,15
DA:44,15
DA:45,15
DA:47,0
DA:48,0
DA:49,0
DA:51,4
DA:52,4
DA:53,4
DA:54,4
DA:55,4
DA:56,4
DA:59,12
DA:60,12
DA:61,0
DA:62,12
DA:63,12
DA:64,4
DA:65,4
DA:66,4
DA:67,0
DA:68,4
DA:69,4
DA:70,4
DA:71,4
DA:72,4
DA:73,29
DA:74,29
DA:75,29
DA:76,23
DA:77,6
DA:78,6
DA:79,17
DA:80,17
DA:81,17
DA:82,6
DA:83,4
DA:84,1
DA:85,1
DA:86,1
DA:87,1
DA:88,1
DA:89,1
DA:90,1
DA:91,1
DA:92,1
DA:93,1
DA:94,1
DA:95,3
DA:96,4
DA:97,2
DA:98,29
DA:100,4
DA:101,2
DA:102,0
DA:103,0
DA:104,0
DA:105,0
DA:106,0
DA:107,0
DA:108,0
DA:109,0
DA:110,0
DA:111,0
DA:112,0
DA:113,0
DA:114,4
DA:115,4
DA:116,8
DA:117,8
DA:118,8
DA:119,8
DA:120,12
DA:127,4
DA:128,4
DA:129,4
DA:130,4
DA:131,4
DA:132,4
DA:134,4
DA:135,4
DA:136,4
DA:137,4
DA:138,4
DA:140,4
DA:141,4
DA:142,4
DA:143,4
DA:144,4
DA:145,4
DA:146,4
DA:147,4
DA:148,4
DA:149,4
DA:150,4
DA:151,4
DA:152,4
DA:155,1
DA:156,1
DA:157,1
DA:160,1
DA:163,1
DA:164,1
DA:165,1
DA:168,1
DA:170,1
DA:171,1
DA:174,1
DA:176,1
DA:177,1
DA:178,1
BRF:0
BRH:0
LF:125
LH:108
end_of_record
SF:/app/crates/tsuzulint_core/src/native_rules/rules/max_ten.rs
FN:24,_RNvMNtNtNtCsdHNy3eV5zAX_14tsuzulint_core12native_rules5rules7max_tenNtB2_6Config12from_options
FN:90,_RNvNtNtNtCsdHNy3eV5zAX_14tsuzulint_core12native_rules5rules7max_ten11check_block
FN:73,_RNvNtNtNtCsdHNy3eV5zAX_14tsuzulint_core12native_rules5rules7max_ten4scan
FN:61,_RNvXs_NtNtNtCsdHNy3eV5zAX_14tsuzulint_core12native_rules5rules7max_tenNtB4_6MaxTenNtNtB8_10rule_trait4Rule11description
FN:65,_RNvXs_NtNtNtCsdHNy3eV5zAX_14tsuzulint_core12native_rules5rules7max_tenNtB4_6MaxTenNtNtB8_10rule_trait4Rule4lint
FN:57,_RNvXs_NtNtNtCsdHNy3eV5zAX_14tsuzulint_core12native_rules5rules7max_tenNtB4_6MaxTenNtNtB8_10rule_trait4Rule4name
FN:149,_RNvNtNtNtNtCs47f85yxqTTa_14tsuzulint_core12native_rules5rules7max_ten5tests3run
FN:177,_RNvNtNtNtNtCs47f85yxqTTa_14tsuzulint_core12native_rules5rules7max_ten5testss_16allows_up_to_max
FN:189,_RNvNtNtNtNtCs47f85yxqTTa_14tsuzulint_core12native_rules5rules7max_ten5testss_18per_sentence_reset
FN:183,_RNvNtNtNtNtCs47f85yxqTTa_14tsuzulint_core12native_rules5rules7max_ten5testss_21flags_too_many_commas
FN:196,_RNvNtNtNtNtCs47f85yxqTTa_14tsuzulint_core12native_rules5rules7max_ten5testss_37flags_trailing_sentence_without_kuten
FN:202,_RNvNtNtNtNtCs47f85yxqTTa_14tsuzulint_core12native_rules5rules7max_ten5testss_48nested_list_item_paragraph_is_not_double_counted
FN:24,_RNvMNtNtNtCs47f85yxqTTa_14tsuzulint_core12native_rules5rules7max_tenNtB2_6Config12from_options
FN:90,_RNvNtNtNtCs47f85yxqTTa_14tsuzulint_core12native_rules5rules7max_ten11check_block
FN:73,_RNvNtNtNtCs47f85yxqTTa_14tsuzulint_core12native_rules5rules7max_ten4scan
FN:61,_RNvXs_NtNtNtCs47f85yxqTTa_14tsuzulint_core12native_rules5rules7max_tenNtB4_6MaxTenNtNtB8_10rule_trait4Rule11description
FN:65,_RNvXs_NtNtNtCs47f85yxqTTa_14tsuzulint_core12native_rules5rules7max_tenNtB4_6MaxTenNtNtB8_10rule_trait4Rule4lint
FN:57,_RNvXs_NtNtNtCs47f85yxqTTa_14tsuzulint_core12native_rules5rules7max_tenNtB4_6MaxTenNtNtB8_10rule_trait4Rule4name
FNDA:0,_RNvMNtNtNtCsdHNy3eV5zAX_14tsuzulint_core12native_rules5rules7max_tenNtB2_6Config12from_options
FNDA:0,_RNvNtNtNtCsdHNy3eV5zAX_14tsuzulint_core12native_rules5rules7max_ten11check_block
FNDA:0,_RNvNtNtNtCsdHNy3eV5zAX_14tsuzulint_core12native_rules5rules7max_ten4scan
FNDA:0,_RNvXs_NtNtNtCsdHNy3eV5zAX_14tsuzulint_core12native_rules5rules7max_tenNtB4_6MaxTenNtNtB8_10rule_trait4Rule11description
FNDA:0,_RNvXs_NtNtNtCsdHNy3eV5zAX_14tsuzulint_core12native_rules5rules7max_tenNtB4_6MaxTenNtNtB8_10rule_trait4Rule4lint
FNDA:14,_RNvXs_NtNtNtCsdHNy3eV5zAX_14tsuzulint_core12native_rules5rules7max_tenNtB4_6MaxTenNtNtB8_10rule_trait4Rule4name
FNDA:4,_RNvNtNtNtNtCs47f85yxqTTa_14tsuzulint_core12native_rules5rules7max_ten5tests3run
FNDA:1,_RNvNtNtNtNtCs47f85yxqTTa_14tsuzulint_core12native_rules5rules7max_ten5testss_16allows_up_to_max
FNDA:1,_RNvNtNtNtNtCs47f85yxqTTa_14tsuzulint_core12native_rules5rules7max_ten5testss_18per_sentence_reset
FNDA:1,_RNvNtNtNtNtCs47f85yxqTTa_14tsuzulint_core12native_rules5rules7max_ten5testss_21flags_too_many_commas
FNDA:1,_RNvNtNtNtNtCs47f85yxqTTa_14tsuzulint_core12native_rules5rules7max_ten5testss_37flags_trailing_sentence_without_kuten
FNDA:1,_RNvNtNtNtNtCs47f85yxqTTa_14tsuzulint_core12native_rules5rules7max_ten5testss_48nested_list_item_paragraph_is_not_double_counted
FNDA:5,_RNvMNtNtNtCs47f85yxqTTa_14tsuzulint_core12native_rules5rules7max_tenNtB2_6Config12from_options
FNDA:5,_RNvNtNtNtCs47f85yxqTTa_14tsuzulint_core12native_rules5rules7max_ten11check_block
FNDA:11,_RNvNtNtNtCs47f85yxqTTa_14tsuzulint_core12native_rules5rules7max_ten4scan
FNDA:0,_RNvXs_NtNtNtCs47f85yxqTTa_14tsuzulint_core12native_rules5rules7max_tenNtB4_6MaxTenNtNtB8_10rule_trait4Rule11description
FNDA:5,_RNvXs_NtNtNtCs47f85yxqTTa_14tsuzulint_core12native_rules5rules7max_tenNtB4_6MaxTenNtNtB8_10rule_trait4Rule4lint
FNDA:1,_RNvXs_NtNtNtCs47f85yxqTTa_14tsuzulint_core12native_rules5rules7max_tenNtB4_6MaxTenNtNtB8_10rule_trait4Rule4name
FNF:12
FNH:11
DA:24,5
DA:25,5
DA:26,5
DA:27,5
DA:28,5
DA:29,5
DA:30,5
DA:31,0
DA:33,5
DA:34,5
DA:35,5
DA:36,5
DA:37,5
DA:38,5
DA:39,0
DA:40,0
DA:41,0
DA:42,5
DA:43,5
DA:44,0
DA:45,0
DA:46,0
DA:47,5
DA:48,5
DA:49,5
DA:57,15
DA:58,15
DA:59,15
DA:61,0
DA:62,0
DA:63,0
DA:65,5
DA:66,5
DA:67,5
DA:68,5
DA:69,5
DA:70,5
DA:73,11
DA:74,11
DA:75,0
DA:79,5
DA:80,5
DA:81,5
DA:83,6
DA:84,6
DA:85,6
DA:88,11
DA:90,5
DA:91,5
DA:92,5
DA:93,5
DA:94,0
DA:95,5
DA:96,5
DA:98,5
DA:99,5
DA:100,5
DA:101,49
DA:102,49
DA:103,49
DA:104,19
DA:105,30
DA:106,5
DA:107,2
DA:108,2
DA:109,2
DA:110,2
DA:111,2
DA:112,2
DA:113,2
DA:114,2
DA:115,2
DA:116,2
DA:117,2
DA:118,2
DA:119,2
DA:120,3
DA:121,5
DA:122,5
DA:123,25
DA:124,49
DA:127,5
DA:128,1
DA:129,1
DA:130,1
DA:131,1
DA:132,1
DA:133,1
DA:134,1
DA:135,1
DA:136,1
DA:137,1
DA:138,1
DA:139,1
DA:140,1
DA:141,4
DA:142,5
DA:149,4
DA:150,4
DA:151,4
DA:152,4
DA:153,4
DA:154,4
DA:156,4
DA:157,4
DA:158,4
DA:159,4
DA:160,4
DA:162,4
DA:163,4
DA:164,4
DA:165,4
DA:166,4
DA:167,4
DA:168,4
DA:169,4
DA:170,4
DA:171,4
DA:172,4
DA:173,4
DA:174,4
DA:177,1
DA:178,1
DA:179,1
DA:180,1
DA:183,1
DA:184,1
DA:185,1
DA:186,1
DA:189,1
DA:191,1
DA:192,1
DA:193,1
DA:196,1
DA:197,1
DA:198,1
DA:199,1
DA:202,1
DA:205,1
DA:206,1
DA:207,1
DA:208,1
DA:209,1
DA:210,1
DA:212,1
DA:213,1
DA:214,1
DA:215,1
DA:216,1
DA:218,1
DA:219,1
DA:220,1
DA:221,1
DA:222,1
DA:224,1
DA:225,1
DA:226,1
DA:227,1
DA:228,1
DA:230,1
DA:231,1
DA:232,1
DA:233,1
DA:234,1
DA:235,1
DA:236,1
DA:237,1
DA:238,1
DA:239,1
DA:240,1
DA:241,1
BRF:0
BRH:0
LF:171
LH:159
end_of_record
SF:/app/crates/tsuzulint_core/src/native_rules/rules/mod.rs
FN:22,_RNvNtNtCsdHNy3eV5zAX_14tsuzulint_core12native_rules5rules3all
FN:22,_RNvNtNtCs47f85yxqTTa_14tsuzulint_core12native_rules5rules3all
FNDA:14,_RNvNtNtCsdHNy3eV5zAX_14tsuzulint_core12native_rules5rules3all
FNDA:1,_RNvNtNtCs47f85yxqTTa_14tsuzulint_core12native_rules5rules3all
FNF:1
FNH:1
DA:22,15
DA:36,15
DA:37,15
BRF:0
BRH:0
LF:3
LH:3
end_of_record
SF:/app/crates/tsuzulint_core/src/native_rules/rules/no_doubled_joshi.rs
FN:63,_RNCNCNvMNtNtNtCsdHNy3eV5zAX_14tsuzulint_core12native_rules5rules16no_doubled_joshiNtB6_6Config12from_optionss0_00Bc_
FN:57,_RNCNCNvMNtNtNtCsdHNy3eV5zAX_14tsuzulint_core12native_rules5rules16no_doubled_joshiNtB6_6Config12from_optionss_00Bc_
FN:51,_RNCNvMNtNtNtCsdHNy3eV5zAX_14tsuzulint_core12native_rules5rules16no_doubled_joshiNtB4_6Config12from_options0Ba_
FN:63,_RNCNvMNtNtNtCsdHNy3eV5zAX_14tsuzulint_core12native_rules5rules16no_doubled_joshiNtB4_6Config12from_optionss0_0Ba_
FN:57,_RNCNvMNtNtNtCsdHNy3eV5zAX_14tsuzulint_core12native_rules5rules16no_doubled_joshiNtB4_6Config12from_optionss_0Ba_
FN:227,_RNCNvNtNtNtCsdHNy3eV5zAX_14tsuzulint_core12native_rules5rules16no_doubled_joshi14detect_doubles0B9_
FN:29,_RNvMNtNtNtCsdHNy3eV5zAX_14tsuzulint_core12native_rules5rules16no_doubled_joshiNtB2_6Config12from_options
FN:115,_RNvNtNtNtCsdHNy3eV5zAX_14tsuzulint_core12native_rules5rules16no_doubled_joshi11is_particle
FN:133,_RNvNtNtNtCsdHNy3eV5zAX_14tsuzulint_core12native_rules5rules16no_doubled_joshi12particle_key
FN:258,_RNvNtNtNtCsdHNy3eV5zAX_14tsuzulint_core12native_rules5rules16no_doubled_joshi13build_message
FN:214,_RNvNtNtNtCsdHNy3eV5zAX_14tsuzulint_core12native_rules5rules16no_doubled_joshi14detect_doubles
FN:173,_RNvNtNtNtCsdHNy3eV5zAX_14tsuzulint_core12native_rules5rules16no_doubled_joshi15concat_adjacent
FN:210,_RNvNtNtNtCsdHNy3eV5zAX_14tsuzulint_core12native_rules5rules16no_doubled_joshi16is_ka_douka_pair
FN:119,_RNvNtNtNtCsdHNy3eV5zAX_14tsuzulint_core12native_rules5rules16no_doubled_joshi16particle_subtype
FN:141,_RNvNtNtNtCsdHNy3eV5zAX_14tsuzulint_core12native_rules5rules16no_doubled_joshi17extract_particles
FN:190,_RNvNtNtNtCsdHNy3eV5zAX_14tsuzulint_core12native_rules5rules16no_doubled_joshi18calculate_interval
FN:125,_RNvNtNtNtCsdHNy3eV5zAX_14tsuzulint_core12native_rules5rules16no_doubled_joshi21is_exception_particle
FN:78,_RNvXs_NtNtNtCsdHNy3eV5zAX_14tsuzulint_core12native_rules5rules16no_doubled_joshiNtB4_14NoDoubledJoshiNtNtB8_10rule_trait4Rule11description
FN:82,_RNvXs_NtNtNtCsdHNy3eV5zAX_14tsuzulint_core12native_rules5rules16no_doubled_joshiNtB4_14NoDoubledJoshiNtNtB8_10rule_trait4Rule16needs_morphology
FN:86,_RNvXs_NtNtNtCsdHNy3eV5zAX_14tsuzulint_core12native_rules5rules16no_doubled_joshiNtB4_14NoDoubledJoshiNtNtB8_10rule_trait4Rule4lint
FN:74,_RNvXs_NtNtNtCsdHNy3eV5zAX_14tsuzulint_core12native_rules5rules16no_doubled_joshiNtB4_14NoDoubledJoshiNtNtB8_10rule_trait4Rule4name
FN:63,_RNCNCNvMNtNtNtCs47f85yxqTTa_14tsuzulint_core12native_rules5rules16no_doubled_joshiNtB6_6Config12from_optionss0_00Bc_
FN:57,_RNCNCNvMNtNtNtCs47f85yxqTTa_14tsuzulint_core12native_rules5rules16no_doubled_joshiNtB6_6Config12from_optionss_00Bc_
FN:51,_RNCNvMNtNtNtCs47f85yxqTTa_14tsuzulint_core12native_rules5rules16no_doubled_joshiNtB4_6Config12from_options0Ba_
FN:63,_RNCNvMNtNtNtCs47f85yxqTTa_14tsuzulint_core12native_rules5rules16no_doubled_joshiNtB4_6Config12from_optionss0_0Ba_
FN:57,_RNCNvMNtNtNtCs47f85yxqTTa_14tsuzulint_core12native_rules5rules16no_doubled_joshiNtB4_6Config12from_optionss_0Ba_
FN:227,_RNCNvNtNtNtCs47f85yxqTTa_14tsuzulint_core12native_rules5rules16no_doubled_joshi14detect_doubles0B9_
FN:284,_RNCNvNtNtNtNtCs47f85yxqTTa_14tsuzulint_core12native_rules5rules16no_doubled_joshi5tests10make_token0Bb_
FN:29,_RNvMNtNtNtCs47f85yxqTTa_14tsuzulint_core12native_rules5rules16no_doubled_joshiNtB2_6Config12from_options
FN:115,_RNvNtNtNtCs47f85yxqTTa_14tsuzulint_core12native_rules5rules16no_doubled_joshi11is_particle
FN:133,_RNvNtNtNtCs47f85yxqTTa_14tsuzulint_core12native_rules5rules16no_doubled_joshi12particle_key
FN:258,_RNvNtNtNtCs47f85yxqTTa_14tsuzulint_core12native_rules5rules16no_doubled_joshi13build_message
FN:214,_RNvNtNtNtCs47f85yxqTTa_14tsuzulint_core12native_rules5rules16no_doubled_joshi14detect_doubles
FN:173,_RNvNtNtNtCs47f85yxqTTa_14tsuzulint_core12native_rules5rules16no_doubled_joshi15concat_adjacent
FN:210,_RNvNtNtNtCs47f85yxqTTa_14tsuzulint_core12native_rules5rules16no_doubled_joshi16is_ka_douka_pair
FN:119,_RNvNtNtNtCs47f85yxqTTa_14tsuzulint_core12native_rules5rules16no_doubled_joshi16particle_subtype
FN:141,_RNvNtNtNtCs47f85yxqTTa_14tsuzulint_core12native_rules5rules16no_doubled_joshi17extract_particles
FN:190,_RNvNtNtNtCs47f85yxqTTa_14tsuzulint_core12native_rules5rules16no_doubled_joshi18calculate_interval
FN:125,_RNvNtNtNtCs47f85yxqTTa_14tsuzulint_core12native_rules5rules16no_doubled_joshi21is_exception_particle
FN:78,_RNvXs_NtNtNtCs47f85yxqTTa_14tsuzulint_core12native_rules5rules16no_doubled_joshiNtB4_14NoDoubledJoshiNtNtB8_10rule_trait4Rule11description
FN:82,_RNvXs_NtNtNtCs47f85yxqTTa_14tsuzulint_core12native_rules5rules16no_doubled_joshiNtB4_14NoDoubledJoshiNtNtB8_10rule_trait4Rule16needs_morphology
FN:86,_RNvXs_NtNtNtCs47f85yxqTTa_14tsuzulint_core12native_rules5rules16no_doubled_joshiNtB4_14NoDoubledJoshiNtNtB8_10rule_trait4Rule4lint
FN:74,_RNvXs_NtNtNtCs47f85yxqTTa_14tsuzulint_core12native_rules5rules16no_doubled_joshiNtB4_14NoDoubledJoshiNtNtB8_10rule_trait4Rule4name
FN:281,_RNvNtNtNtNtCs47f85yxqTTa_14tsuzulint_core12native_rules5rules16no_doubled_joshi5tests10make_token
FN:339,_RNvNtNtNtNtCs47f85yxqTTa_14tsuzulint_core12native_rules5rules16no_doubled_joshi5testss_12concat_ni_ha
FN:366,_RNvNtNtNtNtCs47f85yxqTTa_14tsuzulint_core12native_rules5rules16no_doubled_joshi5testss_16allow_suppresses
FN:291,_RNvNtNtNtNtCs47f85yxqTTa_14tsuzulint_core12native_rules5rules16no_doubled_joshi5testss_16flags_doubled_ha
FN:308,_RNvNtNtNtNtCs47f85yxqTTa_14tsuzulint_core12native_rules5rules16no_doubled_joshi5testss_18skips_no_exception
FN:397,_RNvNtNtNtNtCs47f85yxqTTa_14tsuzulint_core12native_rules5rules16no_doubled_joshi5testss_22interval_at_min_passes
FN:322,_RNvNtNtNtNtCs47f85yxqTTa_14tsuzulint_core12native_rules5rules16no_doubled_joshi5testss_22strict_mode_catches_no
FN:380,_RNvNtNtNtNtCs47f85yxqTTa_14tsuzulint_core12native_rules5rules16no_doubled_joshi5testss_29interval_below_min_is_flagged
FN:415,_RNvNtNtNtNtCs47f85yxqTTa_14tsuzulint_core12native_rules5rules16no_doubled_joshi5testss_40interval_one_below_custom_min_is_flagged
FNDA:0,_RNCNCNvMNtNtNtCsdHNy3eV5zAX_14tsuzulint_core12native_rules5rules16no_doubled_joshiNtB6_6Config12from_optionss0_00Bc_
FNDA:0,_RNCNCNvMNtNtNtCsdHNy3eV5zAX_14tsuzulint_core12native_rules5rules16no_doubled_joshiNtB6_6Config12from_optionss_00Bc_
FNDA:0,_RNCNvMNtNtNtCsdHNy3eV5zAX_14tsuzulint_core12native_rules5rules16no_doubled_joshiNtB4_6Config12from_options0Ba_
FNDA:0,_RNCNvMNtNtNtCsdHNy3eV5zAX_14tsuzulint_core12native_rules5rules16no_doubled_joshiNtB4_6Config12from_optionss0_0Ba_
FNDA:0,_RNCNvMNtNtNtCsdHNy3eV5zAX_14tsuzulint_core12native_rules5rules16no_doubled_joshiNtB4_6Config12from_optionss_0Ba_
FNDA:0,_RNCNvNtNtNtCsdHNy3eV5zAX_14tsuzulint_core12native_rules5rules16no_doubled_joshi14detect_doubles0B9_
FNDA:0,_RNvMNtNtNtCsdHNy3eV5zAX_14tsuzulint_core12native_rules5rules16no_doubled_joshiNtB2_6Config12from_options
FNDA:0,_RNvNtNtNtCsdHNy3eV5zAX_14tsuzulint_core12native_rules5rules16no_doubled_joshi11is_particle
FNDA:0,_RNvNtNtNtCsdHNy3eV5zAX_14tsuzulint_core12native_rules5rules16no_doubled_joshi12particle_key
FNDA:0,_RNvNtNtNtCsdHNy3eV5zAX_14tsuzulint_core12native_rules5rules16no_doubled_joshi13build_message
FNDA:0,_RNvNtNtNtCsdHNy3eV5zAX_14tsuzulint_core12native_rules5rules16no_doubled_joshi14detect_doubles
FNDA:0,_RNvNtNtNtCsdHNy3eV5zAX_14tsuzulint_core12native_rules5rules16no_doubled_joshi15concat_adjacent
FNDA:0,_RNvNtNtNtCsdHNy3eV5zAX_14tsuzulint_core12native_rules5rules16no_doubled_joshi16is_ka_douka_pair
FNDA:0,_RNvNtNtNtCsdHNy3eV5zAX_14tsuzulint_core12native_rules5rules16no_doubled_joshi16particle_subtype
FNDA:0,_RNvNtNtNtCsdHNy3eV5zAX_14tsuzulint_core12native_rules5rules16no_doubled_joshi17extract_particles
FNDA:0,_RNvNtNtNtCsdHNy3eV5zAX_14tsuzulint_core12native_rules5rules16no_doubled_joshi18calculate_interval
FNDA:0,_RNvNtNtNtCsdHNy3eV5zAX_14tsuzulint_core12native_rules5rules16no_doubled_joshi21is_exception_particle
FNDA:0,_RNvXs_NtNtNtCsdHNy3eV5zAX_14tsuzulint_core12native_rules5rules16no_doubled_joshiNtB4_14NoDoubledJoshiNtNtB8_10rule_trait4Rule11description
FNDA:0,_RNvXs_NtNtNtCsdHNy3eV5zAX_14tsuzulint_core12native_rules5rules16no_doubled_joshiNtB4_14NoDoubledJoshiNtNtB8_10rule_trait4Rule16needs_morphology
FNDA:0,_RNvXs_NtNtNtCsdHNy3eV5zAX_14tsuzulint_core12native_rules5rules16no_doubled_joshiNtB4_14NoDoubledJoshiNtNtB8_10rule_trait4Rule4lint
FNDA:14,_RNvXs_NtNtNtCsdHNy3eV5zAX_14tsuzulint_core12native_rules5rules16no_doubled_joshiNtB4_14NoDoubledJoshiNtNtB8_10rule_trait4Rule4name
FNDA:0,_RNCNCNvMNtNtNtCs47f85yxqTTa_14tsuzulint_core12native_rules5rules16no_doubled_joshiNtB6_6Config12from_optionss0_00Bc_
FNDA:0,_RNCNCNvMNtNtNtCs47f85yxqTTa_14tsuzulint_core12native_rules5rules16no_doubled_joshiNtB6_6Config12from_optionss_00Bc_
FNDA:1,_RNCNvMNtNtNtCs47f85yxqTTa_14tsuzulint_core12native_rules5rules16no_doubled_joshiNtB4_6Config12from_options0Ba_
FNDA:0,_RNCNvMNtNtNtCs47f85yxqTTa_14tsuzulint_core12native_rules5rules16no_doubled_joshiNtB4_6Config12from_optionss0_0Ba_
FNDA:0,_RNCNvMNtNtNtCs47f85yxqTTa_14tsuzulint_core12native_rules5rules16no_doubled_joshiNtB4_6Config12from_optionss_0Ba_
FNDA:4,_RNCNvNtNtNtCs47f85yxqTTa_14tsuzulint_core12native_rules5rules16no_doubled_joshi14detect_doubles0B9_
FNDA:52,_RNCNvNtNtNtNtCs47f85yxqTTa_14tsuzulint_core12native_rules5rules16no_doubled_joshi5tests10make_token0Bb_
FNDA:7,_RNvMNtNtNtCs47f85yxqTTa_14tsuzulint_core12native_rules5rules16no_doubled_joshiNtB2_6Config12from_options
FNDA:36,_RNvNtNtNtCs47f85yxqTTa_14tsuzulint_core12native_rules5rules16no_doubled_joshi11is_particle
FNDA:10,_RNvNtNtNtCs47f85yxqTTa_14tsuzulint_core12native_rules5rules16no_doubled_joshi12particle_key
FNDA:4,_RNvNtNtNtCs47f85yxqTTa_14tsuzulint_core12native_rules5rules16no_doubled_joshi13build_message
FNDA:5,_RNvNtNtNtCs47f85yxqTTa_14tsuzulint_core12native_rules5rules16no_doubled_joshi14detect_doubles
FNDA:1,_RNvNtNtNtCs47f85yxqTTa_14tsuzulint_core12native_rules5rules16no_doubled_joshi15concat_adjacent
FNDA:4,_RNvNtNtNtCs47f85yxqTTa_14tsuzulint_core12native_rules5rules16no_doubled_joshi16is_ka_douka_pair
FNDA:30,_RNvNtNtNtCs47f85yxqTTa_14tsuzulint_core12native_rules5rules16no_doubled_joshi16particle_subtype
FNDA:7,_RNvNtNtNtCs47f85yxqTTa_14tsuzulint_core12native_rules5rules16no_doubled_joshi17extract_particles
FNDA:5,_RNvNtNtNtCs47f85yxqTTa_14tsuzulint_core12native_rules5rules16no_doubled_joshi18calculate_interval
FNDA:10,_RNvNtNtNtCs47f85yxqTTa_14tsuzulint_core12native_rules5rules16no_doubled_joshi21is_exception_particle
FNDA:0,_RNvXs_NtNtNtCs47f85yxqTTa_14tsuzulint_core12native_rules5rules16no_doubled_joshiNtB4_14NoDoubledJoshiNtNtB8_10rule_trait4Rule11description
FNDA:0,_RNvXs_NtNtNtCs47f85yxqTTa_14tsuzulint_core12native_rules5rules16no_doubled_joshiNtB4_14NoDoubledJoshiNtNtB8_10rule_trait4Rule16needs_morphology
FNDA:0,_RNvXs_NtNtNtCs47f85yxqTTa_14tsuzulint_core12native_rules5rules16no_doubled_joshiNtB4_14NoDoubledJoshiNtNtB8_10rule_trait4Rule4lint
FNDA:1,_RNvXs_NtNtNtCs47f85yxqTTa_14tsuzulint_core12native_rules5rules16no_doubled_joshiNtB4_14NoDoubledJoshiNtNtB8_10rule_trait4Rule4name
FNDA:36,_RNvNtNtNtNtCs47f85yxqTTa_14tsuzulint_core12native_rules5rules16no_doubled_joshi5tests10make_token
FNDA:1,_RNvNtNtNtNtCs47f85yxqTTa_14tsuzulint_core12native_rules5rules16no_doubled_joshi5testss_12concat_ni_ha
FNDA:1,_RNvNtNtNtNtCs47f85yxqTTa_14tsuzulint_core12native_rules5rules16no_doubled_joshi5testss_16allow_suppresses
FNDA:1,_RNvNtNtNtNtCs47f85yxqTTa_14tsuzulint_core12native_rules5rules16no_doubled_joshi5testss_16flags_doubled_ha
FNDA:1,_RNvNtNtNtNtCs47f85yxqTTa_14tsuzulint_core12native_rules5rules16no_doubled_joshi5testss_18skips_no_exception
FNDA:1,_RNvNtNtNtNtCs47f85yxqTTa_14tsuzulint_core12native_rules5rules16no_doubled_joshi5testss_22interval_at_min_passes
FNDA:1,_RNvNtNtNtNtCs47f85yxqTTa_14tsuzulint_core12native_rules5rules16no_doubled_joshi5testss_22strict_mode_catches_no
FNDA:1,_RNvNtNtNtNtCs47f85yxqTTa_14tsuzulint_core12native_rules5rules16no_doubled_joshi5testss_29interval_below_min_is_flagged
FNDA:1,_RNvNtNtNtNtCs47f85yxqTTa_14tsuzulint_core12native_rules5rules16no_doubled_joshi5testss_40interval_one_below_custom_min_is_flagged
FNF:31
FNH:24
DA:29,7
DA:30,7
DA:31,7
DA:32,7
DA:33,7
DA:34,7
DA:35,7
DA:36,7
DA:37,7
DA:38,4
DA:40,3
DA:41,1
DA:42,1
DA:43,1
DA:44,2
DA:45,3
DA:46,1
DA:47,2
DA:48,3
DA:49,1
DA:50,1
DA:51,1
DA:52,1
DA:53,2
DA:54,3
DA:55,0
DA:56,0
DA:57,0
DA:58,0
DA:59,3
DA:60,3
DA:61,0
DA:62,0
DA:63,0
DA:64,0
DA:65,3
DA:66,3
DA:67,7
DA:74,15
DA:75,15
DA:76,15
DA:78,0
DA:79,0
DA:80,0
DA:82,0
DA:83,0
DA:84,0
DA:86,0
DA:87,0
DA:88,0
DA:89,0
DA:92,0
DA:93,0
DA:94,0
DA:95,0
DA:96,0
DA:97,0
DA:115,36
DA:116,36
DA:117,36
DA:119,30
DA:120,30
DA:121,30
DA:125,10
DA:126,10
DA:127,2
DA:128,10
DA:129,10
DA:131,10
DA:133,10
DA:134,10
DA:135,10
DA:136,10
DA:137,0
DA:139,10
DA:141,7
DA:142,7
DA:143,36
DA:144,36
DA:145,22
DA:146,14
DA:147,14
DA:148,2
DA:149,12
DA:150,12
DA:151,2
DA:152,10
DA:153,10
DA:154,0
DA:156,10
DA:158,10
DA:159,10
DA:160,10
DA:161,10
DA:162,10
DA:163,10
DA:164,10
DA:165,10
DA:166,10
DA:168,7
DA:169,7
DA:173,1
DA:174,1
DA:175,2
DA:176,2
DA:177,1
DA:179,1
DA:180,1
DA:181,1
DA:182,1
DA:183,1
DA:184,1
DA:185,1
DA:187,1
DA:188,1
DA:190,5
DA:191,5
DA:192,0
DA:193,5
DA:194,5
DA:195,5
DA:196,8
DA:197,8
DA:198,0
DA:199,8
DA:200,8
DA:201,2
DA:202,6
DA:203,8
DA:204,0
DA:205,8
DA:207,5
DA:208,5
DA:210,4
DA:211,4
DA:212,4
DA:214,5
DA:215,5
DA:216,5
DA:217,10
DA:218,10
DA:219,10
DA:220,5
DA:221,5
DA:222,0
DA:223,5
DA:224,5
DA:225,4
DA:226,4
DA:227,4
DA:229,0
DA:230,5
DA:231,5
DA:232,5
DA:233,5
DA:234,5
DA:235,5
DA:236,0
DA:237,5
DA:238,5
DA:239,5
DA:240,4
DA:241,4
DA:242,4
DA:243,4
DA:244,4
DA:245,4
DA:246,4
DA:247,4
DA:248,4
DA:249,4
DA:253,5
DA:254,5
DA:255,5
DA:256,5
DA:258,4
DA:259,4
DA:263,8
DA:264,8
DA:265,0
DA:266,8
DA:267,8
DA:268,8
DA:270,4
DA:271,4
DA:272,4
DA:274,4
DA:275,4
DA:281,36
DA:283,36
DA:284,52
DA:285,36
DA:286,36
DA:288,36
DA:291,1
DA:292,1
DA:293,1
DA:294,1
DA:295,1
DA:296,1
DA:297,1
DA:298,1
DA:300,1
DA:301,1
DA:302,1
DA:303,1
DA:304,1
DA:305,1
DA:308,1
DA:309,1
DA:310,1
DA:311,1
DA:312,1
DA:313,1
DA:314,1
DA:316,1
DA:317,1
DA:318,1
DA:319,1
DA:322,1
DA:323,1
DA:324,1
DA:325,1
DA:326,1
DA:327,1
DA:328,1
DA:329,1
DA:331,1
DA:332,1
DA:333,1
DA:334,1
DA:335,1
DA:336,1
DA:339,1
DA:340,1
DA:341,1
DA:342,1
DA:343,1
DA:344,1
DA:345,1
DA:346,1
DA:347,1
DA:348,1
DA:349,1
DA:350,1
DA:351,1
DA:352,1
DA:353,1
DA:354,1
DA:355,1
DA:356,1
DA:357,1
DA:358,1
DA:360,1
DA:361,1
DA:362,1
DA:363,1
DA:366,1
DA:367,1
DA:368,1
DA:369,1
DA:370,1
DA:371,1
DA:373,1
DA:374,1
DA:375,1
DA:376,1
DA:377,1
DA:380,1
DA:382,1
DA:383,1
DA:384,1
DA:385,1
DA:386,1
DA:387,1
DA:388,1
DA:390,1
DA:391,1
DA:392,1
DA:393,1
DA:394,1
DA:397,1
DA:399,1
DA:400,1
DA:401,1
DA:402,1
DA:403,1
DA:404,1
DA:405,1
DA:406,1
DA:408,1
DA:409,1
DA:410,1
DA:411,1
DA:412,1
DA:415,1
DA:418,1
DA:419,1
DA:420,1
DA:421,1
DA:422,1
DA:423,1
DA:424,1
DA:425,1
DA:427,1
DA:428,1
DA:429,1
DA:430,1
DA:431,1
DA:432,1
BRF:0
BRH:0
LF:317
LH:280
end_of_record
SF:/app/crates/tsuzulint_core/src/native_rules/rules/no_exclamation_question_mark.rs
FN:23,_RNvMNtNtNtCsdHNy3eV5zAX_14tsuzulint_core12native_rules5rules28no_exclamation_question_markNtB2_6Config12from_options
FN:70,_RNvNtNtNtCsdHNy3eV5zAX_14tsuzulint_core12native_rules5rules28no_exclamation_question_mark4scan
FN:58,_RNvXs_NtNtNtCsdHNy3eV5zAX_14tsuzulint_core12native_rules5rules28no_exclamation_question_markNtB4_25NoExclamationQuestionMarkNtNtB8_10rule_trait4Rule11description
FN:62,_RNvXs_NtNtNtCsdHNy3eV5zAX_14tsuzulint_core12native_rules5rules28no_exclamation_question_markNtB4_25NoExclamationQuestionMarkNtNtB8_10rule_trait4Rule4lint
FN:54,_RNvXs_NtNtNtCsdHNy3eV5zAX_14tsuzulint_core12native_rules5rules28no_exclamation_question_markNtB4_25NoExclamationQuestionMarkNtNtB8_10rule_trait4Rule4name
FN:117,_RNvNtNtNtNtCs47f85yxqTTa_14tsuzulint_core12native_rules5rules28no_exclamation_question_mark5tests3run
FN:160,_RNvNtNtNtNtCs47f85yxqTTa_14tsuzulint_core12native_rules5rules28no_exclamation_question_mark5testss_17clean_text_passes
FN:154,_RNvNtNtNtNtCs47f85yxqTTa_14tsuzulint_core12native_rules5rules28no_exclamation_question_mark5testss_27detects_full_width_question
FN:148,_RNvNtNtNtNtCs47f85yxqTTa_14tsuzulint_core12native_rules5rules28no_exclamation_question_mark5testss_30detects_half_width_exclamation
FN:23,_RNvMNtNtNtCs47f85yxqTTa_14tsuzulint_core12native_rules5rules28no_exclamation_question_markNtB2_6Config12from_options
FN:70,_RNvNtNtNtCs47f85yxqTTa_14tsuzulint_core12native_rules5rules28no_exclamation_question_mark4scan
FN:58,_RNvXs_NtNtNtCs47f85yxqTTa_14tsuzulint_core12native_rules5rules28no_exclamation_question_markNtB4_25NoExclamationQuestionMarkNtNtB8_10rule_trait4Rule11description
FN:62,_RNvXs_NtNtNtCs47f85yxqTTa_14tsuzulint_core12native_rules5rules28no_exclamation_question_markNtB4_25NoExclamationQuestionMarkNtNtB8_10rule_trait4Rule4lint
FN:54,_RNvXs_NtNtNtCs47f85yxqTTa_14tsuzulint_core12native_rules5rules28no_exclamation_question_markNtB4_25NoExclamationQuestionMarkNtNtB8_10rule_trait4Rule4name
FNDA:0,_RNvMNtNtNtCsdHNy3eV5zAX_14tsuzulint_core12native_rules5rules28no_exclamation_question_markNtB2_6Config12from_options
FNDA:0,_RNvNtNtNtCsdHNy3eV5zAX_14tsuzulint_core12native_rules5rules28no_exclamation_question_mark4scan
FNDA:0,_RNvXs_NtNtNtCsdHNy3eV5zAX_14tsuzulint_core12native_rules5rules28no_exclamation_question_markNtB4_25NoExclamationQuestionMarkNtNtB8_10rule_trait4Rule11description
FNDA:0,_RNvXs_NtNtNtCsdHNy3eV5zAX_14tsuzulint_core12native_rules5rules28no_exclamation_question_markNtB4_25NoExclamationQuestionMarkNtNtB8_10rule_trait4Rule4lint
FNDA:14,_RNvXs_NtNtNtCsdHNy3eV5zAX_14tsuzulint_core12native_rules5rules28no_exclamation_question_markNtB4_25NoExclamationQuestionMarkNtNtB8_10rule_trait4Rule4name
FNDA:3,_RNvNtNtNtNtCs47f85yxqTTa_14tsuzulint_core12native_rules5rules28no_exclamation_question_mark5tests3run
FNDA:1,_RNvNtNtNtNtCs47f85yxqTTa_14tsuzulint_core12native_rules5rules28no_exclamation_question_mark5testss_17clean_text_passes
FNDA:1,_RNvNtNtNtNtCs47f85yxqTTa_14tsuzulint_core12native_rules5rules28no_exclamation_question_mark5testss_27detects_full_width_question
FNDA:1,_RNvNtNtNtNtCs47f85yxqTTa_14tsuzulint_core12native_rules5rules28no_exclamation_question_mark5testss_30detects_half_width_exclamation
FNDA:3,_RNvMNtNtNtCs47f85yxqTTa_14tsuzulint_core12native_rules5rules28no_exclamation_question_markNtB2_6Config12from_options
FNDA:9,_RNvNtNtNtCs47f85yxqTTa_14tsuzulint_core12native_rules5rules28no_exclamation_question_mark4scan
FNDA:0,_RNvXs_NtNtNtCs47f85yxqTTa_14tsuzulint_core12native_rules5rules28no_exclamation_question_markNtB4_25NoExclamationQuestionMarkNtNtB8_10rule_trait4Rule11description
FNDA:3,_RNvXs_NtNtNtCs47f85yxqTTa_14tsuzulint_core12native_rules5rules28no_exclamation_question_markNtB4_25NoExclamationQuestionMarkNtNtB8_10rule_trait4Rule4lint
FNDA:1,_RNvXs_NtNtNtCs47f85yxqTTa_14tsuzulint_core12native_rules5rules28no_exclamation_question_markNtB4_25NoExclamationQuestionMarkNtNtB8_10rule_trait4Rule4name
FNF:9
FNH:8
DA:23,3
DA:24,3
DA:25,3
DA:26,3
DA:27,3
DA:28,3
DA:29,3
DA:30,3
DA:31,3
DA:33,0
DA:34,0
DA:35,0
DA:36,0
DA:37,0
DA:38,0
DA:39,0
DA:40,0
DA:41,0
DA:42,0
DA:43,0
DA:44,0
DA:45,0
DA:46,3
DA:54,15
DA:55,15
DA:56,15
DA:58,0
DA:59,0
DA:60,0
DA:62,3
DA:63,3
DA:64,3
DA:65,3
DA:66,3
DA:67,3
DA:70,9
DA:71,9
DA:72,0
DA:73,9
DA:74,9
DA:75,3
DA:76,3
DA:77,3
DA:78,0
DA:79,3
DA:80,3
DA:81,3
DA:82,20
DA:83,20
DA:84,20
DA:85,1
DA:86,0
DA:87,0
DA:88,1
DA:89,18
DA:91,20
DA:92,2
DA:93,2
DA:94,2
DA:95,2
DA:96,2
DA:97,2
DA:98,2
DA:99,2
DA:100,2
DA:101,2
DA:102,18
DA:103,20
DA:105,3
DA:106,6
DA:107,6
DA:108,6
DA:109,6
DA:110,9
DA:117,3
DA:118,3
DA:119,3
DA:120,3
DA:121,3
DA:122,3
DA:124,3
DA:125,3
DA:126,3
DA:127,3
DA:128,3
DA:130,3
DA:131,3
DA:132,3
DA:133,3
DA:134,3
DA:136,3
DA:137,3
DA:138,3
DA:139,3
DA:140,3
DA:141,3
DA:142,3
DA:143,3
DA:144,3
DA:145,3
DA:148,1
DA:149,1
DA:150,1
DA:151,1
DA:154,1
DA:155,1
DA:156,1
DA:157,1
DA:160,1
DA:161,1
DA:162,1
DA:163,1
BRF:0
BRH:0
LF:112
LH:92
end_of_record
SF:/app/crates/tsuzulint_core/src/native_rules/rules/no_hankaku_kana.rs
FN:14,_RNvNtNtNtCsdHNy3eV5zAX_14tsuzulint_core12native_rules5rules15no_hankaku_kana17is_halfwidth_kana
FN:39,_RNvNtNtNtCsdHNy3eV5zAX_14tsuzulint_core12native_rules5rules15no_hankaku_kana4scan
FN:27,_RNvXNtNtNtCsdHNy3eV5zAX_14tsuzulint_core12native_rules5rules15no_hankaku_kanaNtB2_13NoHankakuKanaNtNtB6_10rule_trait4Rule11description
FN:31,_RNvXNtNtNtCsdHNy3eV5zAX_14tsuzulint_core12native_rules5rules15no_hankaku_kanaNtB2_13NoHankakuKanaNtNtB6_10rule_trait4Rule4lint
FN:23,_RNvXNtNtNtCsdHNy3eV5zAX_14tsuzulint_core12native_rules5rules15no_hankaku_kanaNtB2_13NoHankakuKanaNtNtB6_10rule_trait4Rule4name
FN:14,_RNvNtNtNtCs47f85yxqTTa_14tsuzulint_core12native_rules5rules15no_hankaku_kana17is_halfwidth_kana
FN:39,_RNvNtNtNtCs47f85yxqTTa_14tsuzulint_core12native_rules5rules15no_hankaku_kana4scan
FN:27,_RNvXNtNtNtCs47f85yxqTTa_14tsuzulint_core12native_rules5rules15no_hankaku_kanaNtB2_13NoHankakuKanaNtNtB6_10rule_trait4Rule11description
FN:31,_RNvXNtNtNtCs47f85yxqTTa_14tsuzulint_core12native_rules5rules15no_hankaku_kanaNtB2_13NoHankakuKanaNtNtB6_10rule_trait4Rule4lint
FN:23,_RNvXNtNtNtCs47f85yxqTTa_14tsuzulint_core12native_rules5rules15no_hankaku_kanaNtB2_13NoHankakuKanaNtNtB6_10rule_trait4Rule4name
FN:92,_RNvNtNtNtNtCs47f85yxqTTa_14tsuzulint_core12native_rules5rules15no_hankaku_kana5tests3run
FN:125,_RNvNtNtNtNtCs47f85yxqTTa_14tsuzulint_core12native_rules5rules15no_hankaku_kana5testss_16fullwidth_passes
FN:119,_RNvNtNtNtNtCs47f85yxqTTa_14tsuzulint_core12native_rules5rules15no_hankaku_kana5testss_26detects_halfwidth_katakana
FNDA:0,_RNvNtNtNtCsdHNy3eV5zAX_14tsuzulint_core12native_rules5rules15no_hankaku_kana17is_halfwidth_kana
FNDA:0,_RNvNtNtNtCsdHNy3eV5zAX_14tsuzulint_core12native_rules5rules15no_hankaku_kana4scan
FNDA:0,_RNvXNtNtNtCsdHNy3eV5zAX_14tsuzulint_core12native_rules5rules15no_hankaku_kanaNtB2_13NoHankakuKanaNtNtB6_10rule_trait4Rule11description
FNDA:0,_RNvXNtNtNtCsdHNy3eV5zAX_14tsuzulint_core12native_rules5rules15no_hankaku_kanaNtB2_13NoHankakuKanaNtNtB6_10rule_trait4Rule4lint
FNDA:14,_RNvXNtNtNtCsdHNy3eV5zAX_14tsuzulint_core12native_rules5rules15no_hankaku_kanaNtB2_13NoHankakuKanaNtNtB6_10rule_trait4Rule4name
FNDA:10,_RNvNtNtNtCs47f85yxqTTa_14tsuzulint_core12native_rules5rules15no_hankaku_kana17is_halfwidth_kana
FNDA:6,_RNvNtNtNtCs47f85yxqTTa_14tsuzulint_core12native_rules5rules15no_hankaku_kana4scan
FNDA:0,_RNvXNtNtNtCs47f85yxqTTa_14tsuzulint_core12native_rules5rules15no_hankaku_kanaNtB2_13NoHankakuKanaNtNtB6_10rule_trait4Rule11description
FNDA:2,_RNvXNtNtNtCs47f85yxqTTa_14tsuzulint_core12native_rules5rules15no_hankaku_kanaNtB2_13NoHankakuKanaNtNtB6_10rule_trait4Rule4lint
FNDA:1,_RNvXNtNtNtCs47f85yxqTTa_14tsuzulint_core12native_rules5rules15no_hankaku_kanaNtB2_13NoHankakuKanaNtNtB6_10rule_trait4Rule4name
FNDA:2,_RNvNtNtNtNtCs47f85yxqTTa_14tsuzulint_core12native_rules5rules15no_hankaku_kana5tests3run
FNDA:1,_RNvNtNtNtNtCs47f85yxqTTa_14tsuzulint_core12native_rules5rules15no_hankaku_kana5testss_16fullwidth_passes
FNDA:1,_RNvNtNtNtNtCs47f85yxqTTa_14tsuzulint_core12native_rules5rules15no_hankaku_kana5testss_26detects_halfwidth_katakana
FNF:8
FNH:7
DA:14,10
DA:15,10
DA:16,10
DA:17,10
DA:23,15
DA:24,15
DA:25,15
DA:27,0
DA:28,0
DA:29,0
DA:31,2
DA:32,2
DA:33,2
DA:34,2
DA:35,2
DA:36,2
DA:39,6
DA:40,6
DA:41,0
DA:42,6
DA:43,6
DA:44,2
DA:45,2
DA:46,2
DA:47,0
DA:48,2
DA:49,2
DA:50,2
DA:51,2
DA:52,10
DA:53,10
DA:54,10
DA:55,5
DA:56,1
DA:57,4
DA:58,5
DA:59,0
DA:60,0
DA:61,0
DA:62,0
DA:63,0
DA:64,0
DA:65,0
DA:66,0
DA:67,5
DA:68,10
DA:70,2
DA:71,1
DA:72,1
DA:73,1
DA:74,1
DA:75,1
DA:76,1
DA:77,1
DA:78,1
DA:79,1
DA:80,2
DA:81,4
DA:82,4
DA:83,4
DA:84,4
DA:85,6
DA:92,2
DA:93,2
DA:94,2
DA:95,2
DA:96,2
DA:97,2
DA:99,2
DA:100,2
DA:101,2
DA:102,2
DA:103,2
DA:105,2
DA:106,2
DA:107,2
DA:108,2
DA:109,2
DA:110,2
DA:111,2
DA:112,2
DA:113,2
DA:114,2
DA:115,2
DA:116,2
DA:119,1
DA:120,1
DA:121,1
DA:122,1
DA:125,1
DA:126,1
DA:127,1
DA:128,1
BRF:0
BRH:0
LF:93
LH:80
end_of_record
SF:/app/crates/tsuzulint_core/src/native_rules/rules/no_mixed_zenkaku_hankaku_alphabet.rs
FN:60,_RNCNvXNtNtNtCsdHNy3eV5zAX_14tsuzulint_core12native_rules5rules33no_mixed_zenkaku_hankaku_alphabetNtB4_29NoMixedZenkakuHankakuAlphabetNtNtB8_10rule_trait4Rule4lint0Ba_
FN:22,_RNvNtNtNtCsdHNy3eV5zAX_14tsuzulint_core12native_rules5rules33no_mixed_zenkaku_hankaku_alphabet18is_fullwidth_alpha
FN:18,_RNvNtNtNtCsdHNy3eV5zAX_14tsuzulint_core12native_rules5rules33no_mixed_zenkaku_hankaku_alphabet18is_halfwidth_alpha
FN:75,_RNvNtNtNtCsdHNy3eV5zAX_14tsuzulint_core12native_rules5rules33no_mixed_zenkaku_hankaku_alphabet7collect
FN:37,_RNvXNtNtNtCsdHNy3eV5zAX_14tsuzulint_core12native_rules5rules33no_mixed_zenkaku_hankaku_alphabetNtB2_29NoMixedZenkakuHankakuAlphabetNtNtB6_10rule_trait4Rule11description
FN:41,_RNvXNtNtNtCsdHNy3eV5zAX_14tsuzulint_core12native_rules5rules33no_mixed_zenkaku_hankaku_alphabetNtB2_29NoMixedZenkakuHankakuAlphabetNtNtB6_10rule_trait4Rule4lint
FN:33,_RNvXNtNtNtCsdHNy3eV5zAX_14tsuzulint_core12native_rules5rules33no_mixed_zenkaku_hankaku_alphabetNtB2_29NoMixedZenkakuHankakuAlphabetNtNtB6_10rule_trait4Rule4name
FN:60,_RNCNvXNtNtNtCs47f85yxqTTa_14tsuzulint_core12native_rules5rules33no_mixed_zenkaku_hankaku_alphabetNtB4_29NoMixedZenkakuHankakuAlphabetNtNtB8_10rule_trait4Rule4lint0Ba_
FN:22,_RNvNtNtNtCs47f85yxqTTa_14tsuzulint_core12native_rules5rules33no_mixed_zenkaku_hankaku_alphabet18is_fullwidth_alpha
FN:18,_RNvNtNtNtCs47f85yxqTTa_14tsuzulint_core12native_rules5rules33no_mixed_zenkaku_hankaku_alphabet18is_halfwidth_alpha
FN:75,_RNvNtNtNtCs47f85yxqTTa_14tsuzulint_core12native_rules5rules33no_mixed_zenkaku_hankaku_alphabet7collect
FN:37,_RNvXNtNtNtCs47f85yxqTTa_14tsuzulint_core12native_rules5rules33no_mixed_zenkaku_hankaku_alphabetNtB2_29NoMixedZenkakuHankakuAlphabetNtNtB6_10rule_trait4Rule11description
FN:41,_RNvXNtNtNtCs47f85yxqTTa_14tsuzulint_core12native_rules5rules33no_mixed_zenkaku_hankaku_alphabetNtB2_29NoMixedZenkakuHankakuAlphabetNtNtB6_10rule_trait4Rule4lint
FN:33,_RNvXNtNtNtCs47f85yxqTTa_14tsuzulint_core12native_rules5rules33no_mixed_zenkaku_hankaku_alphabetNtB2_29NoMixedZenkakuHankakuAlphabetNtNtB6_10rule_trait4Rule4name
FN:114,_RNvNtNtNtNtCs47f85yxqTTa_14tsuzulint_core12native_rules5rules33no_mixed_zenkaku_hankaku_alphabet5tests13one_paragraph
FN:132,_RNvNtNtNtNtCs47f85yxqTTa_14tsuzulint_core12native_rules5rules33no_mixed_zenkaku_hankaku_alphabet5tests15multi_paragraph
FN:164,_RNvNtNtNtNtCs47f85yxqTTa_14tsuzulint_core12native_rules5rules33no_mixed_zenkaku_hankaku_alphabet5tests3run
FN:208,_RNvNtNtNtNtCs47f85yxqTTa_14tsuzulint_core12native_rules5rules33no_mixed_zenkaku_hankaku_alphabet5testss_21fullwidth_only_passes
FN:200,_RNvNtNtNtNtCs47f85yxqTTa_14tsuzulint_core12native_rules5rules33no_mixed_zenkaku_hankaku_alphabet5testss_21halfwidth_only_passes
FN:188,_RNvNtNtNtNtCs47f85yxqTTa_14tsuzulint_core12native_rules5rules33no_mixed_zenkaku_hankaku_alphabet5testss_32flags_minority_across_paragraphs
FN:177,_RNvNtNtNtNtCs47f85yxqTTa_14tsuzulint_core12native_rules5rules33no_mixed_zenkaku_hankaku_alphabet5testss_42flags_minority_fullwidth_in_same_paragraph
FN:216,_RNvNtNtNtNtCs47f85yxqTTa_14tsuzulint_core12native_rules5rules33no_mixed_zenkaku_hankaku_alphabet5testss_42single_minority_across_the_file_is_flagged
FNDA:0,_RNCNvXNtNtNtCsdHNy3eV5zAX_14tsuzulint_core12native_rules5rules33no_mixed_zenkaku_hankaku_alphabetNtB4_29NoMixedZenkakuHankakuAlphabetNtNtB8_10rule_trait4Rule4lint0Ba_
FNDA:0,_RNvNtNtNtCsdHNy3eV5zAX_14tsuzulint_core12native_rules5rules33no_mixed_zenkaku_hankaku_alphabet18is_fullwidth_alpha
FNDA:0,_RNvNtNtNtCsdHNy3eV5zAX_14tsuzulint_core12native_rules5rules33no_mixed_zenkaku_hankaku_alphabet18is_halfwidth_alpha
FNDA:0,_RNvNtNtNtCsdHNy3eV5zAX_14tsuzulint_core12native_rules5rules33no_mixed_zenkaku_hankaku_alphabet7collect
FNDA:0,_RNvXNtNtNtCsdHNy3eV5zAX_14tsuzulint_core12native_rules5rules33no_mixed_zenkaku_hankaku_alphabetNtB2_29NoMixedZenkakuHankakuAlphabetNtNtB6_10rule_trait4Rule11description
FNDA:0,_RNvXNtNtNtCsdHNy3eV5zAX_14tsuzulint_core12native_rules5rules33no_mixed_zenkaku_hankaku_alphabetNtB2_29NoMixedZenkakuHankakuAlphabetNtNtB6_10rule_trait4Rule4lint
FNDA:14,_RNvXNtNtNtCsdHNy3eV5zAX_14tsuzulint_core12native_rules5rules33no_mixed_zenkaku_hankaku_alphabetNtB2_29NoMixedZenkakuHankakuAlphabetNtNtB6_10rule_trait4Rule4name
FNDA:5,_RNCNvXNtNtNtCs47f85yxqTTa_14tsuzulint_core12native_rules5rules33no_mixed_zenkaku_hankaku_alphabetNtB4_29NoMixedZenkakuHankakuAlphabetNtNtB8_10rule_trait4Rule4lint0Ba_
FNDA:50,_RNvNtNtNtCs47f85yxqTTa_14tsuzulint_core12native_rules5rules33no_mixed_zenkaku_hankaku_alphabet18is_fullwidth_alpha
FNDA:68,_RNvNtNtNtCs47f85yxqTTa_14tsuzulint_core12native_rules5rules33no_mixed_zenkaku_hankaku_alphabet18is_halfwidth_alpha
FNDA:21,_RNvNtNtNtCs47f85yxqTTa_14tsuzulint_core12native_rules5rules33no_mixed_zenkaku_hankaku_alphabet7collect
FNDA:0,_RNvXNtNtNtCs47f85yxqTTa_14tsuzulint_core12native_rules5rules33no_mixed_zenkaku_hankaku_alphabetNtB2_29NoMixedZenkakuHankakuAlphabetNtNtB6_10rule_trait4Rule11description
FNDA:5,_RNvXNtNtNtCs47f85yxqTTa_14tsuzulint_core12native_rules5rules33no_mixed_zenkaku_hankaku_alphabetNtB2_29NoMixedZenkakuHankakuAlphabetNtNtB6_10rule_trait4Rule4lint
FNDA:1,_RNvXNtNtNtCs47f85yxqTTa_14tsuzulint_core12native_rules5rules33no_mixed_zenkaku_hankaku_alphabetNtB2_29NoMixedZenkakuHankakuAlphabetNtNtB6_10rule_trait4Rule4name
FNDA:3,_RNvNtNtNtNtCs47f85yxqTTa_14tsuzulint_core12native_rules5rules33no_mixed_zenkaku_hankaku_alphabet5tests13one_paragraph
FNDA:2,_RNvNtNtNtNtCs47f85yxqTTa_14tsuzulint_core12native_rules5rules33no_mixed_zenkaku_hankaku_alphabet5tests15multi_paragraph
FNDA:5,_RNvNtNtNtNtCs47f85yxqTTa_14tsuzulint_core12native_rules5rules33no_mixed_zenkaku_hankaku_alphabet5tests3run
FNDA:1,_RNvNtNtNtNtCs47f85yxqTTa_14tsuzulint_core12native_rules5rules33no_mixed_zenkaku_hankaku_alphabet5testss_21fullwidth_only_passes
FNDA:1,_RNvNtNtNtNtCs47f85yxqTTa_14tsuzulint_core12native_rules5rules33no_mixed_zenkaku_hankaku_alphabet5testss_21halfwidth_only_passes
FNDA:1,_RNvNtNtNtNtCs47f85yxqTTa_14tsuzulint_core12native_rules5rules33no_mixed_zenkaku_hankaku_alphabet5testss_32flags_minority_across_paragraphs
FNDA:1,_RNvNtNtNtNtCs47f85yxqTTa_14tsuzulint_core12native_rules5rules33no_mixed_zenkaku_hankaku_alphabet5testss_42flags_minority_fullwidth_in_same_paragraph
FNDA:1,_RNvNtNtNtNtCs47f85yxqTTa_14tsuzulint_core12native_rules5rules33no_mixed_zenkaku_hankaku_alphabet5testss_42single_minority_across_the_file_is_flagged
FNF:15
FNH:14
DA:18,68
DA:19,68
DA:20,68
DA:22,50
DA:24,50
DA:25,50
DA:26,50
DA:33,15
DA:34,15
DA:35,15
DA:37,0
DA:38,0
DA:39,0
DA:41,5
DA:42,5
DA:43,5
DA:44,5
DA:45,5
DA:46,5
DA:47,2
DA:48,3
DA:53,3
DA:54,3
DA:56,0
DA:58,3
DA:59,3
DA:60,5
DA:61,5
DA:63,5
DA:67,5
DA:69,5
DA:70,5
DA:71,3
DA:72,5
DA:75,21
DA:76,21
DA:77,21
DA:78,21
DA:79,21
DA:80,21
DA:81,21
DA:82,0
DA:83,21
DA:84,21
DA:85,8
DA:86,8
DA:87,8
DA:88,0
DA:89,8
DA:90,8
DA:91,8
DA:92,68
DA:93,68
DA:94,68
DA:95,18
DA:96,50
DA:97,8
DA:98,42
DA:99,68
DA:101,8
DA:102,13
DA:103,16
DA:104,16
DA:105,16
DA:106,21
DA:114,3
DA:115,3
DA:116,3
DA:117,3
DA:118,3
DA:120,3
DA:121,3
DA:122,3
DA:123,3
DA:124,3
DA:126,3
DA:127,3
DA:128,3
DA:132,2
DA:133,2
DA:134,2
DA:135,5
DA:137,11
DA:138,6
DA:139,6
DA:140,6
DA:141,0
DA:144,5
DA:145,5
DA:146,5
DA:148,5
DA:149,5
DA:150,5
DA:151,5
DA:153,5
DA:154,5
DA:155,5
DA:156,5
DA:157,5
DA:158,5
DA:160,2
DA:161,2
DA:162,2
DA:164,5
DA:165,5
DA:166,5
DA:167,5
DA:168,5
DA:169,5
DA:170,5
DA:171,5
DA:172,5
DA:173,5
DA:174,5
DA:177,1
DA:180,1
DA:181,1
DA:182,1
DA:183,1
DA:184,1
DA:185,1
DA:188,1
DA:192,1
DA:193,1
DA:194,1
DA:195,1
DA:196,1
DA:197,1
DA:200,1
DA:201,1
DA:202,1
DA:203,1
DA:204,1
DA:205,1
DA:208,1
DA:209,1
DA:210,1
DA:211,1
DA:212,1
DA:213,1
DA:216,1
DA:220,1
DA:221,1
DA:222,1
DA:223,1
DA:224,1
DA:225,1
DA:227,1
DA:228,1
DA:229,1
BRF:0
BRH:0
LF:151
LH:144
end_of_record
SF:/app/crates/tsuzulint_core/src/native_rules/rules/no_nfd.rs
FN:18,_RNvNtNtNtCsdHNy3eV5zAX_14tsuzulint_core12native_rules5rules6no_nfd17is_combining_mark
FN:56,_RNvNtNtNtCsdHNy3eV5zAX_14tsuzulint_core12native_rules5rules6no_nfd4scan
FN:44,_RNvXNtNtNtCsdHNy3eV5zAX_14tsuzulint_core12native_rules5rules6no_nfdNtB2_5NoNfdNtNtB6_10rule_trait4Rule11description
FN:48,_RNvXNtNtNtCsdHNy3eV5zAX_14tsuzulint_core12native_rules5rules6no_nfdNtB2_5NoNfdNtNtB6_10rule_trait4Rule4lint
FN:40,_RNvXNtNtNtCsdHNy3eV5zAX_14tsuzulint_core12native_rules5rules6no_nfdNtB2_5NoNfdNtNtB6_10rule_trait4Rule4name
FN:100,_RNvNtNtNtNtCs47f85yxqTTa_14tsuzulint_core12native_rules5rules6no_nfd5tests4lint
FN:134,_RNvNtNtNtNtCs47f85yxqTTa_14tsuzulint_core12native_rules5rules6no_nfd5testss_10nfc_passes
FN:140,_RNvNtNtNtNtCs47f85yxqTTa_14tsuzulint_core12native_rules5rules6no_nfd5testss_26detects_accented_latin_nfd
FN:127,_RNvNtNtNtNtCs47f85yxqTTa_14tsuzulint_core12native_rules5rules6no_nfd5testss_28detects_nfd_japanese_dakuten
FN:18,_RNvNtNtNtCs47f85yxqTTa_14tsuzulint_core12native_rules5rules6no_nfd17is_combining_mark
FN:56,_RNvNtNtNtCs47f85yxqTTa_14tsuzulint_core12native_rules5rules6no_nfd4scan
FN:44,_RNvXNtNtNtCs47f85yxqTTa_14tsuzulint_core12native_rules5rules6no_nfdNtB2_5NoNfdNtNtB6_10rule_trait4Rule11description
FN:48,_RNvXNtNtNtCs47f85yxqTTa_14tsuzulint_core12native_rules5rules6no_nfdNtB2_5NoNfdNtNtB6_10rule_trait4Rule4lint
FN:40,_RNvXNtNtNtCs47f85yxqTTa_14tsuzulint_core12native_rules5rules6no_nfdNtB2_5NoNfdNtNtB6_10rule_trait4Rule4name
FNDA:0,_RNvNtNtNtCsdHNy3eV5zAX_14tsuzulint_core12native_rules5rules6no_nfd17is_combining_mark
FNDA:0,_RNvNtNtNtCsdHNy3eV5zAX_14tsuzulint_core12native_rules5rules6no_nfd4scan
FNDA:0,_RNvXNtNtNtCsdHNy3eV5zAX_14tsuzulint_core12native_rules5rules6no_nfdNtB2_5NoNfdNtNtB6_10rule_trait4Rule11description
FNDA:0,_RNvXNtNtNtCsdHNy3eV5zAX_14tsuzulint_core12native_rules5rules6no_nfdNtB2_5NoNfdNtNtB6_10rule_trait4Rule4lint
FNDA:14,_RNvXNtNtNtCsdHNy3eV5zAX_14tsuzulint_core12native_rules5rules6no_nfdNtB2_5NoNfdNtNtB6_10rule_trait4Rule4name
FNDA:3,_RNvNtNtNtNtCs47f85yxqTTa_14tsuzulint_core12native_rules5rules6no_nfd5tests4lint
FNDA:1,_RNvNtNtNtNtCs47f85yxqTTa_14tsuzulint_core12native_rules5rules6no_nfd5testss_10nfc_passes
FNDA:1,_RNvNtNtNtNtCs47f85yxqTTa_14tsuzulint_core12native_rules5rules6no_nfd5testss_26detects_accented_latin_nfd
FNDA:1,_RNvNtNtNtNtCs47f85yxqTTa_14tsuzulint_core12native_rules5rules6no_nfd5testss_28detects_nfd_japanese_dakuten
FNDA:15,_RNvNtNtNtCs47f85yxqTTa_14tsuzulint_core12native_rules5rules6no_nfd17is_combining_mark
FNDA:9,_RNvNtNtNtCs47f85yxqTTa_14tsuzulint_core12native_rules5rules6no_nfd4scan
FNDA:0,_RNvXNtNtNtCs47f85yxqTTa_14tsuzulint_core12native_rules5rules6no_nfdNtB2_5NoNfdNtNtB6_10rule_trait4Rule11description
FNDA:3,_RNvXNtNtNtCs47f85yxqTTa_14tsuzulint_core12native_rules5rules6no_nfdNtB2_5NoNfdNtNtB6_10rule_trait4Rule4lint
FNDA:1,_RNvXNtNtNtCs47f85yxqTTa_14tsuzulint_core12native_rules5rules6no_nfdNtB2_5NoNfdNtNtB6_10rule_trait4Rule4name
FNF:9
FNH:8
DA:18,15
DA:19,15
DA:26,15
DA:27,8
DA:28,7
DA:29,7
DA:30,7
DA:31,0
DA:32,1
DA:34,15
DA:40,15
DA:41,15
DA:42,15
DA:44,0
DA:45,0
DA:46,0
DA:48,3
DA:49,3
DA:50,3
DA:51,3
DA:52,3
DA:53,3
DA:56,9
DA:57,9
DA:58,0
DA:59,9
DA:60,9
DA:61,3
DA:62,3
DA:63,3
DA:64,0
DA:65,3
DA:66,3
DA:67,3
DA:68,15
DA:69,15
DA:70,15
DA:71,2
DA:72,2
DA:73,2
DA:74,2
DA:75,2
DA:76,2
DA:77,2
DA:78,2
DA:79,2
DA:80,2
DA:81,2
DA:82,2
DA:83,2
DA:84,2
DA:85,13
DA:86,15
DA:88,3
DA:89,6
DA:90,6
DA:91,6
DA:92,6
DA:93,9
DA:100,3
DA:101,3
DA:102,3
DA:103,3
DA:104,3
DA:105,3
DA:107,3
DA:108,3
DA:109,3
DA:110,3
DA:111,3
DA:113,3
DA:114,3
DA:115,3
DA:116,3
DA:117,3
DA:118,3
DA:119,3
DA:120,3
DA:121,3
DA:122,3
DA:123,3
DA:124,3
DA:127,1
DA:129,1
DA:130,1
DA:131,1
DA:134,1
DA:135,1
DA:136,1
DA:137,1
DA:140,1
DA:142,1
DA:143,1
DA:144,1
BRF:0
BRH:0
LF:94
LH:88
end_of_record
SF:/app/crates/tsuzulint_core/src/native_rules/rules/no_todo.rs
FN:26,_RNvMNtNtNtCsdHNy3eV5zAX_14tsuzulint_core12native_rules5rules7no_todoNtB2_6Config12from_options
FN:151,_RNvNtNtNtCsdHNy3eV5zAX_14tsuzulint_core12native_rules5rules7no_todo12find_pattern
FN:106,_RNvNtNtNtCsdHNy3eV5zAX_14tsuzulint_core12native_rules5rules7no_todo14report_matches
FN:197,_RNvNtNtNtCsdHNy3eV5zAX_14tsuzulint_core12native_rules5rules7no_todo16contains_pattern
FN:207,_RNvNtNtNtCsdHNy3eV5zAX_14tsuzulint_core12native_rules5rules7no_todo23chars_equal_ignore_case
FN:83,_RNvNtNtNtCsdHNy3eV5zAX_14tsuzulint_core12native_rules5rules7no_todo4scan
FN:71,_RNvXs_NtNtNtCsdHNy3eV5zAX_14tsuzulint_core12native_rules5rules7no_todoNtB4_6NoTodoNtNtB8_10rule_trait4Rule11description
FN:75,_RNvXs_NtNtNtCsdHNy3eV5zAX_14tsuzulint_core12native_rules5rules7no_todoNtB4_6NoTodoNtNtB8_10rule_trait4Rule4lint
FN:67,_RNvXs_NtNtNtCsdHNy3eV5zAX_14tsuzulint_core12native_rules5rules7no_todoNtB4_6NoTodoNtNtB8_10rule_trait4Rule4name
FN:28,_RNCNvMNtNtNtCsdHNy3eV5zAX_14tsuzulint_core12native_rules5rules7no_todoNtB4_6Config12from_options0Ba_
FN:50,_RNCNvMNtNtNtCsdHNy3eV5zAX_14tsuzulint_core12native_rules5rules7no_todoNtB4_6Config12from_optionss0_0Ba_
FN:40,_RNCNvMNtNtNtCsdHNy3eV5zAX_14tsuzulint_core12native_rules5rules7no_todoNtB4_6Config12from_optionss_0Ba_
FN:114,_RNCNvNtNtNtCsdHNy3eV5zAX_14tsuzulint_core12native_rules5rules7no_todo14report_matches0B9_
FN:26,_RNvMNtNtNtCs47f85yxqTTa_14tsuzulint_core12native_rules5rules7no_todoNtB2_6Config12from_options
FN:151,_RNvNtNtNtCs47f85yxqTTa_14tsuzulint_core12native_rules5rules7no_todo12find_pattern
FN:106,_RNvNtNtNtCs47f85yxqTTa_14tsuzulint_core12native_rules5rules7no_todo14report_matches
FN:197,_RNvNtNtNtCs47f85yxqTTa_14tsuzulint_core12native_rules5rules7no_todo16contains_pattern
FN:207,_RNvNtNtNtCs47f85yxqTTa_14tsuzulint_core12native_rules5rules7no_todo23chars_equal_ignore_case
FN:83,_RNvNtNtNtCs47f85yxqTTa_14tsuzulint_core12native_rules5rules7no_todo4scan
FN:71,_RNvXs_NtNtNtCs47f85yxqTTa_14tsuzulint_core12native_rules5rules7no_todoNtB4_6NoTodoNtNtB8_10rule_trait4Rule11description
FN:75,_RNvXs_NtNtNtCs47f85yxqTTa_14tsuzulint_core12native_rules5rules7no_todoNtB4_6NoTodoNtNtB8_10rule_trait4Rule4lint
FN:67,_RNvXs_NtNtNtCs47f85yxqTTa_14tsuzulint_core12native_rules5rules7no_todoNtB4_6NoTodoNtNtB8_10rule_trait4Rule4name
FN:224,_RNvNtNtNtNtCs47f85yxqTTa_14tsuzulint_core12native_rules5rules7no_todo5tests12make_str_ast
FN:242,_RNvNtNtNtNtCs47f85yxqTTa_14tsuzulint_core12native_rules5rules7no_todo5tests3run
FN:257,_RNvNtNtNtNtCs47f85yxqTTa_14tsuzulint_core12native_rules5rules7no_todo5testss_12detects_todo
FN:304,_RNvNtNtNtNtCs47f85yxqTTa_14tsuzulint_core12native_rules5rules7no_todo5testss_16skips_code_block
FN:298,_RNvNtNtNtNtCs47f85yxqTTa_14tsuzulint_core12native_rules5rules7no_todo5testss_23no_match_for_clean_text
FN:264,_RNvNtNtNtNtCs47f85yxqTTa_14tsuzulint_core12native_rules5rules7no_todo5testss_30detects_fixme_case_insensitive
FN:270,_RNvNtNtNtNtCs47f85yxqTTa_14tsuzulint_core12native_rules5rules7no_todo5testss_54does_not_panic_on_multi_byte_lowercase_expanding_chars
FN:28,_RNCNvMNtNtNtCs47f85yxqTTa_14tsuzulint_core12native_rules5rules7no_todoNtB4_6Config12from_options0Ba_
FN:50,_RNCNvMNtNtNtCs47f85yxqTTa_14tsuzulint_core12native_rules5rules7no_todoNtB4_6Config12from_optionss0_0Ba_
FN:40,_RNCNvMNtNtNtCs47f85yxqTTa_14tsuzulint_core12native_rules5rules7no_todoNtB4_6Config12from_optionss_0Ba_
FN:114,_RNCNvNtNtNtCs47f85yxqTTa_14tsuzulint_core12native_rules5rules7no_todo14report_matches0B9_
FNDA:0,_RNvMNtNtNtCsdHNy3eV5zAX_14tsuzulint_core12native_rules5rules7no_todoNtB2_6Config12from_options
FNDA:0,_RNvNtNtNtCsdHNy3eV5zAX_14tsuzulint_core12native_rules5rules7no_todo12find_pattern
FNDA:0,_RNvNtNtNtCsdHNy3eV5zAX_14tsuzulint_core12native_rules5rules7no_todo14report_matches
FNDA:0,_RNvNtNtNtCsdHNy3eV5zAX_14tsuzulint_core12native_rules5rules7no_todo16contains_pattern
FNDA:0,_RNvNtNtNtCsdHNy3eV5zAX_14tsuzulint_core12native_rules5rules7no_todo23chars_equal_ignore_case
FNDA:0,_RNvNtNtNtCsdHNy3eV5zAX_14tsuzulint_core12native_rules5rules7no_todo4scan
FNDA:0,_RNvXs_NtNtNtCsdHNy3eV5zAX_14tsuzulint_core12native_rules5rules7no_todoNtB4_6NoTodoNtNtB8_10rule_trait4Rule11description
FNDA:0,_RNvXs_NtNtNtCsdHNy3eV5zAX_14tsuzulint_core12native_rules5rules7no_todoNtB4_6NoTodoNtNtB8_10rule_trait4Rule4lint
FNDA:14,_RNvXs_NtNtNtCsdHNy3eV5zAX_14tsuzulint_core12native_rules5rules7no_todoNtB4_6NoTodoNtNtB8_10rule_trait4Rule4name
FNDA:0,_RNCNvMNtNtNtCsdHNy3eV5zAX_14tsuzulint_core12native_rules5rules7no_todoNtB4_6Config12from_options0Ba_
FNDA:0,_RNCNvMNtNtNtCsdHNy3eV5zAX_14tsuzulint_core12native_rules5rules7no_todoNtB4_6Config12from_optionss0_0Ba_
FNDA:0,_RNCNvMNtNtNtCsdHNy3eV5zAX_14tsuzulint_core12native_rules5rules7no_todoNtB4_6Config12from_optionss_0Ba_
FNDA:0,_RNCNvNtNtNtCsdHNy3eV5zAX_14tsuzulint_core12native_rules5rules7no_todo14report_matches0B9_
FNDA:7,_RNvMNtNtNtCs47f85yxqTTa_14tsuzulint_core12native_rules5rules7no_todoNtB2_6Config12from_options
FNDA:55,_RNvNtNtNtCs47f85yxqTTa_14tsuzulint_core12native_rules5rules7no_todo12find_pattern
FNDA:7,_RNvNtNtNtCs47f85yxqTTa_14tsuzulint_core12native_rules5rules7no_todo14report_matches
FNDA:0,_RNvNtNtNtCs47f85yxqTTa_14tsuzulint_core12native_rules5rules7no_todo16contains_pattern
FNDA:779,_RNvNtNtNtCs47f85yxqTTa_14tsuzulint_core12native_rules5rules7no_todo23chars_equal_ignore_case
FNDA:22,_RNvNtNtNtCs47f85yxqTTa_14tsuzulint_core12native_rules5rules7no_todo4scan
FNDA:0,_RNvXs_NtNtNtCs47f85yxqTTa_14tsuzulint_core12native_rules5rules7no_todoNtB4_6NoTodoNtNtB8_10rule_trait4Rule11description
FNDA:7,_RNvXs_NtNtNtCs47f85yxqTTa_14tsuzulint_core12native_rules5rules7no_todoNtB4_6NoTodoNtNtB8_10rule_trait4Rule4lint
FNDA:2,_RNvXs_NtNtNtCs47f85yxqTTa_14tsuzulint_core12native_rules5rules7no_todoNtB4_6NoTodoNtNtB8_10rule_trait4Rule4name
FNDA:6,_RNvNtNtNtNtCs47f85yxqTTa_14tsuzulint_core12native_rules5rules7no_todo5tests12make_str_ast
FNDA:6,_RNvNtNtNtNtCs47f85yxqTTa_14tsuzulint_core12native_rules5rules7no_todo5tests3run
FNDA:1,_RNvNtNtNtNtCs47f85yxqTTa_14tsuzulint_core12native_rules5rules7no_todo5testss_12detects_todo
FNDA:1,_RNvNtNtNtNtCs47f85yxqTTa_14tsuzulint_core12native_rules5rules7no_todo5testss_16skips_code_block
FNDA:1,_RNvNtNtNtNtCs47f85yxqTTa_14tsuzulint_core12native_rules5rules7no_todo5testss_23no_match_for_clean_text
FNDA:1,_RNvNtNtNtNtCs47f85yxqTTa_14tsuzulint_core12native_rules5rules7no_todo5testss_30detects_fixme_case_insensitive
FNDA:1,_RNvNtNtNtNtCs47f85yxqTTa_14tsuzulint_core12native_rules5rules7no_todo5testss_54does_not_panic_on_multi_byte_lowercase_expanding_chars
FNDA:49,_RNCNvMNtNtNtCs47f85yxqTTa_14tsuzulint_core12native_rules5rules7no_todoNtB4_6Config12from_options0Ba_
FNDA:0,_RNCNvMNtNtNtCs47f85yxqTTa_14tsuzulint_core12native_rules5rules7no_todoNtB4_6Config12from_optionss0_0Ba_
FNDA:0,_RNCNvMNtNtNtCs47f85yxqTTa_14tsuzulint_core12native_rules5rules7no_todoNtB4_6Config12from_optionss_0Ba_
FNDA:0,_RNCNvNtNtNtCs47f85yxqTTa_14tsuzulint_core12native_rules5rules7no_todo14report_matches0B9_
FNF:20
FNH:15
DA:26,7
DA:27,7
DA:28,49
DA:29,7
DA:33,7
DA:34,7
DA:37,0
DA:38,0
DA:39,0
DA:40,0
DA:41,0
DA:42,0
DA:43,0
DA:44,0
DA:45,0
DA:47,0
DA:48,0
DA:49,0
DA:50,0
DA:51,0
DA:52,0
DA:54,0
DA:55,0
DA:56,0
DA:58,0
DA:59,7
DA:67,16
DA:68,16
DA:69,16
DA:71,0
DA:72,0
DA:73,0
DA:75,7
DA:76,7
DA:77,7
DA:78,7
DA:79,7
DA:80,7
DA:83,22
DA:86,22
DA:87,1
DA:88,21
DA:90,21
DA:91,7
DA:92,7
DA:93,7
DA:94,0
DA:95,7
DA:96,7
DA:97,7
DA:98,7
DA:99,14
DA:101,15
DA:102,15
DA:103,15
DA:104,22
DA:106,7
DA:107,49
DA:108,49
DA:109,6
DA:110,55
DA:112,6
DA:114,6
DA:115,0
DA:116,0
DA:118,6
DA:119,6
DA:120,6
DA:121,6
DA:122,6
DA:123,6
DA:124,6
DA:125,6
DA:126,6
DA:127,6
DA:128,6
DA:129,6
DA:130,6
DA:131,6
DA:132,6
DA:133,6
DA:134,6
DA:136,6
DA:139,7
DA:151,55
DA:152,55
DA:153,55
DA:154,55
DA:155,55
DA:156,55
DA:157,55
DA:158,0
DA:159,0
DA:160,0
DA:161,55
DA:166,55
DA:167,55
DA:168,0
DA:169,55
DA:171,55
DA:172,778
DA:173,778
DA:174,778
DA:175,55
DA:177,709
DA:178,55
DA:179,55
DA:181,709
DA:182,785
DA:183,785
DA:184,6
DA:186,779
DA:187,697
DA:188,82
DA:189,82
DA:191,6
DA:192,6
DA:194,49
DA:195,55
DA:197,0
DA:198,0
DA:199,0
DA:207,779
DA:208,779
DA:209,52
DA:210,727
DA:211,727
DA:212,727
DA:213,727
DA:214,0
DA:216,727
DA:217,779
DA:224,6
DA:225,6
DA:226,6
DA:227,6
DA:228,6
DA:229,6
DA:230,6
DA:232,6
DA:233,6
DA:234,6
DA:235,6
DA:236,6
DA:238,6
DA:239,6
DA:240,6
DA:242,6
DA:243,6
DA:244,6
DA:245,6
DA:246,6
DA:247,6
DA:248,6
DA:249,6
DA:250,6
DA:251,6
DA:252,6
DA:253,6
DA:254,6
DA:257,1
DA:258,1
DA:259,1
DA:260,1
DA:261,1
DA:264,1
DA:265,1
DA:266,1
DA:267,1
DA:270,1
DA:278,1
DA:279,1
DA:280,1
DA:281,1
DA:282,1
DA:283,3
DA:284,3
DA:285,3
DA:286,3
DA:290,3
DA:291,3
DA:292,3
DA:293,3
DA:295,1
DA:298,1
DA:299,1
DA:300,1
DA:301,1
DA:304,1
DA:305,1
DA:306,1
DA:307,1
DA:308,1
DA:309,1
DA:310,1
DA:311,1
DA:312,1
DA:314,1
DA:315,1
DA:316,1
DA:317,1
DA:318,1
DA:320,1
DA:321,1
DA:322,1
DA:323,1
DA:324,1
DA:325,1
DA:327,1
DA:328,1
DA:329,1
DA:330,1
DA:331,1
DA:332,1
DA:333,1
DA:334,1
DA:335,1
DA:336,1
DA:337,1
DA:338,1
DA:339,1
BRF:0
BRH:0
LF:225
LH:189
end_of_record
SF:/app/crates/tsuzulint_core/src/native_rules/rules/no_zero_width_spaces.rs
FN:47,_RNvNtNtNtCsdHNy3eV5zAX_14tsuzulint_core12native_rules5rules20no_zero_width_spaces4scan
FN:35,_RNvXNtNtNtCsdHNy3eV5zAX_14tsuzulint_core12native_rules5rules20no_zero_width_spacesNtB2_17NoZeroWidthSpacesNtNtB6_10rule_trait4Rule11description
FN:39,_RNvXNtNtNtCsdHNy3eV5zAX_14tsuzulint_core12native_rules5rules20no_zero_width_spacesNtB2_17NoZeroWidthSpacesNtNtB6_10rule_trait4Rule4lint
FN:31,_RNvXNtNtNtCsdHNy3eV5zAX_14tsuzulint_core12native_rules5rules20no_zero_width_spacesNtB2_17NoZeroWidthSpacesNtNtB6_10rule_trait4Rule4name
FN:92,_RNvNtNtNtNtCs47f85yxqTTa_14tsuzulint_core12native_rules5rules20no_zero_width_spaces5tests3run
FN:119,_RNvNtNtNtNtCs47f85yxqTTa_14tsuzulint_core12native_rules5rules20no_zero_width_spaces5testss_11detects_zws
FN:126,_RNvNtNtNtNtCs47f85yxqTTa_14tsuzulint_core12native_rules5rules20no_zero_width_spaces5testss_17clean_text_passes
FN:132,_RNvNtNtNtNtCs47f85yxqTTa_14tsuzulint_core12native_rules5rules20no_zero_width_spaces5testss_20detects_bom_mid_text
FN:47,_RNvNtNtNtCs47f85yxqTTa_14tsuzulint_core12native_rules5rules20no_zero_width_spaces4scan
FN:35,_RNvXNtNtNtCs47f85yxqTTa_14tsuzulint_core12native_rules5rules20no_zero_width_spacesNtB2_17NoZeroWidthSpacesNtNtB6_10rule_trait4Rule11description
FN:39,_RNvXNtNtNtCs47f85yxqTTa_14tsuzulint_core12native_rules5rules20no_zero_width_spacesNtB2_17NoZeroWidthSpacesNtNtB6_10rule_trait4Rule4lint
FN:31,_RNvXNtNtNtCs47f85yxqTTa_14tsuzulint_core12native_rules5rules20no_zero_width_spacesNtB2_17NoZeroWidthSpacesNtNtB6_10rule_trait4Rule4name
FNDA:0,_RNvNtNtNtCsdHNy3eV5zAX_14tsuzulint_core12native_rules5rules20no_zero_width_spaces4scan
FNDA:0,_RNvXNtNtNtCsdHNy3eV5zAX_14tsuzulint_core12native_rules5rules20no_zero_width_spacesNtB2_17NoZeroWidthSpacesNtNtB6_10rule_trait4Rule11description
FNDA:0,_RNvXNtNtNtCsdHNy3eV5zAX_14tsuzulint_core12native_rules5rules20no_zero_width_spacesNtB2_17NoZeroWidthSpacesNtNtB6_10rule_trait4Rule4lint
FNDA:14,_RNvXNtNtNtCsdHNy3eV5zAX_14tsuzulint_core12native_rules5rules20no_zero_width_spacesNtB2_17NoZeroWidthSpacesNtNtB6_10rule_trait4Rule4name
FNDA:3,_RNvNtNtNtNtCs47f85yxqTTa_14tsuzulint_core12native_rules5rules20no_zero_width_spaces5tests3run
FNDA:1,_RNvNtNtNtNtCs47f85yxqTTa_14tsuzulint_core12native_rules5rules20no_zero_width_spaces5testss_11detects_zws
FNDA:1,_RNvNtNtNtNtCs47f85yxqTTa_14tsuzulint_core12native_rules5rules20no_zero_width_spaces5testss_17clean_text_passes
FNDA:1,_RNvNtNtNtNtCs47f85yxqTTa_14tsuzulint_core12native_rules5rules20no_zero_width_spaces5testss_20detects_bom_mid_text
FNDA:9,_RNvNtNtNtCs47f85yxqTTa_14tsuzulint_core12native_rules5rules20no_zero_width_spaces4scan
FNDA:0,_RNvXNtNtNtCs47f85yxqTTa_14tsuzulint_core12native_rules5rules20no_zero_width_spacesNtB2_17NoZeroWidthSpacesNtNtB6_10rule_trait4Rule11description
FNDA:3,_RNvXNtNtNtCs47f85yxqTTa_14tsuzulint_core12native_rules5rules20no_zero_width_spacesNtB2_17NoZeroWidthSpacesNtNtB6_10rule_trait4Rule4lint
FNDA:1,_RNvXNtNtNtCs47f85yxqTTa_14tsuzulint_core12native_rules5rules20no_zero_width_spacesNtB2_17NoZeroWidthSpacesNtNtB6_10rule_trait4Rule4name
FNF:8
FNH:7
DA:31,15
DA:32,15
DA:33,15
DA:35,0
DA:36,0
DA:37,0
DA:39,3
DA:40,3
DA:41,3
DA:42,3
DA:43,3
DA:44,3
DA:47,9
DA:50,9
DA:51,0
DA:52,9
DA:53,9
DA:54,3
DA:55,3
DA:56,3
DA:57,0
DA:58,3
DA:59,3
DA:60,3
DA:61,26
DA:62,26
DA:63,26
DA:64,2
DA:65,2
DA:66,2
DA:67,2
DA:68,2
DA:69,2
DA:70,2
DA:71,2
DA:72,2
DA:73,2
DA:74,2
DA:75,2
DA:76,2
DA:77,24
DA:78,26
DA:80,3
DA:81,6
DA:82,6
DA:83,6
DA:84,6
DA:85,9
DA:92,3
DA:93,3
DA:94,3
DA:95,3
DA:96,3
DA:97,3
DA:99,3
DA:100,3
DA:101,3
DA:102,3
DA:103,3
DA:105,3
DA:106,3
DA:107,3
DA:108,3
DA:109,3
DA:110,3
DA:111,3
DA:112,3
DA:113,3
DA:114,3
DA:115,3
DA:116,3
DA:119,1
DA:120,1
DA:121,1
DA:122,1
DA:123,1
DA:126,1
DA:127,1
DA:128,1
DA:129,1
DA:132,1
DA:133,1
DA:134,1
DA:135,1
BRF:0
BRH:0
LF:84
LH:79
end_of_record
SF:/app/crates/tsuzulint_core/src/native_rules/rules/sentence_length.rs
FN:22,_RNvMNtNtNtCsdHNy3eV5zAX_14tsuzulint_core12native_rules5rules15sentence_lengthNtB2_6Config12from_options
FN:159,_RNvNtNtNtCsdHNy3eV5zAX_14tsuzulint_core12native_rules5rules15sentence_length10strip_urls
FN:94,_RNvNtNtNtCsdHNy3eV5zAX_14tsuzulint_core12native_rules5rules15sentence_length11check_block
FN:131,_RNvNtNtNtCsdHNy3eV5zAX_14tsuzulint_core12native_rules5rules15sentence_length15split_sentences
FN:80,_RNvNtNtNtCsdHNy3eV5zAX_14tsuzulint_core12native_rules5rules15sentence_length4scan
FN:51,_RNvXs_NtNtNtCsdHNy3eV5zAX_14tsuzulint_core12native_rules5rules15sentence_lengthNtB4_14SentenceLengthNtNtB8_10rule_trait4Rule11description
FN:55,_RNvXs_NtNtNtCsdHNy3eV5zAX_14tsuzulint_core12native_rules5rules15sentence_lengthNtB4_14SentenceLengthNtNtB8_10rule_trait4Rule15needs_sentences
FN:64,_RNvXs_NtNtNtCsdHNy3eV5zAX_14tsuzulint_core12native_rules5rules15sentence_lengthNtB4_14SentenceLengthNtNtB8_10rule_trait4Rule4lint
FN:47,_RNvXs_NtNtNtCsdHNy3eV5zAX_14tsuzulint_core12native_rules5rules15sentence_lengthNtB4_14SentenceLengthNtNtB8_10rule_trait4Rule4name
FN:171,_RNCNvNtNtNtCsdHNy3eV5zAX_14tsuzulint_core12native_rules5rules15sentence_length10strip_urls0B9_
FN:171,_RNCNvNtNtNtCs47f85yxqTTa_14tsuzulint_core12native_rules5rules15sentence_length10strip_urls0B9_
FN:191,_RNvNtNtNtNtCs47f85yxqTTa_14tsuzulint_core12native_rules5rules15sentence_length5tests3run
FN:223,_RNvNtNtNtNtCs47f85yxqTTa_14tsuzulint_core12native_rules5rules15sentence_length5testss_30sentence_at_exact_limit_passes
FN:248,_RNvNtNtNtNtCs47f85yxqTTa_14tsuzulint_core12native_rules5rules15sentence_length5testss_31url_is_collapsed_when_skip_urls
FN:231,_RNvNtNtNtNtCs47f85yxqTTa_14tsuzulint_core12native_rules5rules15sentence_length5testss_34sentence_one_char_over_limit_fails
FN:239,_RNvNtNtNtNtCs47f85yxqTTa_14tsuzulint_core12native_rules5rules15sentence_length5testss_35only_over_limit_sentence_is_flagged
FN:261,_RNvNtNtNtNtCs47f85yxqTTa_14tsuzulint_core12native_rules5rules15sentence_length5testss_48nested_list_item_paragraph_is_not_double_counted
FN:22,_RNvMNtNtNtCs47f85yxqTTa_14tsuzulint_core12native_rules5rules15sentence_lengthNtB2_6Config12from_options
FN:159,_RNvNtNtNtCs47f85yxqTTa_14tsuzulint_core12native_rules5rules15sentence_length10strip_urls
FN:94,_RNvNtNtNtCs47f85yxqTTa_14tsuzulint_core12native_rules5rules15sentence_length11check_block
FN:131,_RNvNtNtNtCs47f85yxqTTa_14tsuzulint_core12native_rules5rules15sentence_length15split_sentences
FN:80,_RNvNtNtNtCs47f85yxqTTa_14tsuzulint_core12native_rules5rules15sentence_length4scan
FN:51,_RNvXs_NtNtNtCs47f85yxqTTa_14tsuzulint_core12native_rules5rules15sentence_lengthNtB4_14SentenceLengthNtNtB8_10rule_trait4Rule11description
FN:55,_RNvXs_NtNtNtCs47f85yxqTTa_14tsuzulint_core12native_rules5rules15sentence_lengthNtB4_14SentenceLengthNtNtB8_10rule_trait4Rule15needs_sentences
FN:64,_RNvXs_NtNtNtCs47f85yxqTTa_14tsuzulint_core12native_rules5rules15sentence_lengthNtB4_14SentenceLengthNtNtB8_10rule_trait4Rule4lint
FN:47,_RNvXs_NtNtNtCs47f85yxqTTa_14tsuzulint_core12native_rules5rules15sentence_lengthNtB4_14SentenceLengthNtNtB8_10rule_trait4Rule4name
FNDA:0,_RNvMNtNtNtCsdHNy3eV5zAX_14tsuzulint_core12native_rules5rules15sentence_lengthNtB2_6Config12from_options
FNDA:0,_RNvNtNtNtCsdHNy3eV5zAX_14tsuzulint_core12native_rules5rules15sentence_length10strip_urls
FNDA:0,_RNvNtNtNtCsdHNy3eV5zAX_14tsuzulint_core12native_rules5rules15sentence_length11check_block
FNDA:0,_RNvNtNtNtCsdHNy3eV5zAX_14tsuzulint_core12native_rules5rules15sentence_length15split_sentences
FNDA:0,_RNvNtNtNtCsdHNy3eV5zAX_14tsuzulint_core12native_rules5rules15sentence_length4scan
FNDA:0,_RNvXs_NtNtNtCsdHNy3eV5zAX_14tsuzulint_core12native_rules5rules15sentence_lengthNtB4_14SentenceLengthNtNtB8_10rule_trait4Rule11description
FNDA:0,_RNvXs_NtNtNtCsdHNy3eV5zAX_14tsuzulint_core12native_rules5rules15sentence_lengthNtB4_14SentenceLengthNtNtB8_10rule_trait4Rule15needs_sentences
FNDA:0,_RNvXs_NtNtNtCsdHNy3eV5zAX_14tsuzulint_core12native_rules5rules15sentence_lengthNtB4_14SentenceLengthNtNtB8_10rule_trait4Rule4lint
FNDA:14,_RNvXs_NtNtNtCsdHNy3eV5zAX_14tsuzulint_core12native_rules5rules15sentence_lengthNtB4_14SentenceLengthNtNtB8_10rule_trait4Rule4name
FNDA:0,_RNCNvNtNtNtCsdHNy3eV5zAX_14tsuzulint_core12native_rules5rules15sentence_length10strip_urls0B9_
FNDA:221,_RNCNvNtNtNtCs47f85yxqTTa_14tsuzulint_core12native_rules5rules15sentence_length10strip_urls0B9_
FNDA:4,_RNvNtNtNtNtCs47f85yxqTTa_14tsuzulint_core12native_rules5rules15sentence_length5tests3run
FNDA:1,_RNvNtNtNtNtCs47f85yxqTTa_14tsuzulint_core12native_rules5rules15sentence_length5testss_30sentence_at_exact_limit_passes
FNDA:1,_RNvNtNtNtNtCs47f85yxqTTa_14tsuzulint_core12native_rules5rules15sentence_length5testss_31url_is_collapsed_when_skip_urls
FNDA:1,_RNvNtNtNtNtCs47f85yxqTTa_14tsuzulint_core12native_rules5rules15sentence_length5testss_34sentence_one_char_over_limit_fails
FNDA:1,_RNvNtNtNtNtCs47f85yxqTTa_14tsuzulint_core12native_rules5rules15sentence_length5testss_35only_over_limit_sentence_is_flagged
FNDA:1,_RNvNtNtNtNtCs47f85yxqTTa_14tsuzulint_core12native_rules5rules15sentence_length5testss_48nested_list_item_paragraph_is_not_double_counted
FNDA:5,_RNvMNtNtNtCs47f85yxqTTa_14tsuzulint_core12native_rules5rules15sentence_lengthNtB2_6Config12from_options
FNDA:5,_RNvNtNtNtCs47f85yxqTTa_14tsuzulint_core12native_rules5rules15sentence_length10strip_urls
FNDA:5,_RNvNtNtNtCs47f85yxqTTa_14tsuzulint_core12native_rules5rules15sentence_length11check_block
FNDA:5,_RNvNtNtNtCs47f85yxqTTa_14tsuzulint_core12native_rules5rules15sentence_length15split_sentences
FNDA:11,_RNvNtNtNtCs47f85yxqTTa_14tsuzulint_core12native_rules5rules15sentence_length4scan
FNDA:0,_RNvXs_NtNtNtCs47f85yxqTTa_14tsuzulint_core12native_rules5rules15sentence_lengthNtB4_14SentenceLengthNtNtB8_10rule_trait4Rule11description
FNDA:0,_RNvXs_NtNtNtCs47f85yxqTTa_14tsuzulint_core12native_rules5rules15sentence_lengthNtB4_14SentenceLengthNtNtB8_10rule_trait4Rule15needs_sentences
FNDA:5,_RNvXs_NtNtNtCs47f85yxqTTa_14tsuzulint_core12native_rules5rules15sentence_lengthNtB4_14SentenceLengthNtNtB8_10rule_trait4Rule4lint
FNDA:1,_RNvXs_NtNtNtCs47f85yxqTTa_14tsuzulint_core12native_rules5rules15sentence_lengthNtB4_14SentenceLengthNtNtB8_10rule_trait4Rule4name
FNF:16
FNH:14
DA:22,5
DA:23,5
DA:24,5
DA:25,5
DA:26,5
DA:27,5
DA:28,0
DA:30,5
DA:31,5
DA:32,5
DA:33,5
DA:34,5
DA:35,5
DA:36,0
DA:37,5
DA:38,5
DA:39,5
DA:47,15
DA:48,15
DA:49,15
DA:51,0
DA:52,0
DA:53,0
DA:55,0
DA:61,0
DA:62,0
DA:64,5
DA:65,5
DA:66,5
DA:67,5
DA:68,5
DA:69,5
DA:80,11
DA:81,11
DA:82,0
DA:83,5
DA:84,5
DA:85,5
DA:87,6
DA:88,6
DA:89,6
DA:92,11
DA:94,5
DA:95,5
DA:96,5
DA:97,5
DA:98,0
DA:99,5
DA:100,5
DA:105,5
DA:106,5
DA:108,0
DA:110,6
DA:111,6
DA:112,6
DA:113,3
DA:114,3
DA:115,3
DA:116,3
DA:117,3
DA:118,3
DA:119,3
DA:120,3
DA:121,3
DA:122,3
DA:123,3
DA:124,3
DA:125,3
DA:126,3
DA:127,3
DA:129,5
DA:131,5
DA:132,5
DA:133,5
DA:134,5
DA:135,5
DA:136,520
DA:137,520
DA:138,520
DA:139,6
DA:140,6
DA:141,6
DA:142,6
DA:143,6
DA:144,6
DA:145,6
DA:146,514
DA:147,520
DA:149,5
DA:150,0
DA:151,0
DA:152,0
DA:153,0
DA:154,0
DA:155,5
DA:156,5
DA:157,5
DA:159,5
DA:163,5
DA:164,5
DA:165,5
DA:166,525
DA:167,520
DA:168,520
DA:169,1
DA:170,1
DA:171,221
DA:172,1
DA:173,1
DA:174,1
DA:175,519
DA:176,519
DA:177,519
DA:178,519
DA:179,519
DA:180,0
DA:183,5
DA:184,5
DA:191,4
DA:192,4
DA:193,4
DA:194,4
DA:195,4
DA:196,4
DA:198,4
DA:199,4
DA:200,4
DA:201,4
DA:202,4
DA:204,4
DA:205,4
DA:206,4
DA:207,4
DA:208,4
DA:210,4
DA:211,4
DA:212,4
DA:213,4
DA:214,4
DA:215,4
DA:216,4
DA:217,4
DA:218,4
DA:219,4
DA:220,4
DA:223,1
DA:225,1
DA:226,1
DA:227,1
DA:228,1
DA:231,1
DA:233,1
DA:234,1
DA:235,1
DA:236,1
DA:239,1
DA:242,1
DA:243,1
DA:244,1
DA:245,1
DA:248,1
DA:252,1
DA:254,1
DA:256,1
DA:257,1
DA:258,1
DA:261,1
DA:265,1
DA:266,1
DA:267,1
DA:268,1
DA:269,1
DA:270,1
DA:272,1
DA:273,1
DA:274,1
DA:275,1
DA:276,1
DA:278,1
DA:279,1
DA:280,1
DA:281,1
DA:282,1
DA:284,1
DA:285,1
DA:286,1
DA:287,1
DA:288,1
DA:290,1
DA:291,1
DA:292,1
DA:293,1
DA:294,1
DA:295,1
DA:296,1
DA:297,1
DA:298,1
DA:299,1
DA:300,1
DA:301,1
BRF:0
BRH:0
LF:201
LH:184
end_of_record
SF:/app/crates/tsuzulint_core/src/parallel_linter.rs
FN:18,_RNvNtCsdHNy3eV5zAX_14tsuzulint_core15parallel_linter10lint_files
FN:40,_RNCNCNvNtCsdHNy3eV5zAX_14tsuzulint_core15parallel_linter10lint_filess0_00B7_
FN:74,_RNCNCNvNtCsdHNy3eV5zAX_14tsuzulint_core15parallel_linter10lint_filess1_00B7_
FN:38,_RNCNvNtCsdHNy3eV5zAX_14tsuzulint_core15parallel_linter10lint_filess0_0B5_
FN:48,_RNCNvNtCsdHNy3eV5zAX_14tsuzulint_core15parallel_linter10lint_filess1_0B5_
FN:31,_RNCNvNtCsdHNy3eV5zAX_14tsuzulint_core15parallel_linter10lint_filess_0B5_
FN:18,_RNvNtCs47f85yxqTTa_14tsuzulint_core15parallel_linter10lint_files
FN:40,_RNCNCNvNtCs47f85yxqTTa_14tsuzulint_core15parallel_linter10lint_filess0_00B7_
FN:74,_RNCNCNvNtCs47f85yxqTTa_14tsuzulint_core15parallel_linter10lint_filess1_00B7_
FN:38,_RNCNvNtCs47f85yxqTTa_14tsuzulint_core15parallel_linter10lint_filess0_0B5_
FN:48,_RNCNvNtCs47f85yxqTTa_14tsuzulint_core15parallel_linter10lint_filess1_0B5_
FN:31,_RNCNvNtCs47f85yxqTTa_14tsuzulint_core15parallel_linter10lint_filess_0B5_
FN:113,_RNvNtNtCs47f85yxqTTa_14tsuzulint_core15parallel_linter5testss_30test_lint_files_parallel_empty
FNDA:15,_RNvNtCsdHNy3eV5zAX_14tsuzulint_core15parallel_linter10lint_files
FNDA:17,_RNCNCNvNtCsdHNy3eV5zAX_14tsuzulint_core15parallel_linter10lint_filess0_00B7_
FNDA:0,_RNCNCNvNtCsdHNy3eV5zAX_14tsuzulint_core15parallel_linter10lint_filess1_00B7_
FNDA:17,_RNCNvNtCsdHNy3eV5zAX_14tsuzulint_core15parallel_linter10lint_filess0_0B5_
FNDA:16,_RNCNvNtCsdHNy3eV5zAX_14tsuzulint_core15parallel_linter10lint_filess1_0B5_
FNDA:11,_RNCNvNtCsdHNy3eV5zAX_14tsuzulint_core15parallel_linter10lint_filess_0B5_
FNDA:7,_RNvNtCs47f85yxqTTa_14tsuzulint_core15parallel_linter10lint_files
FNDA:9,_RNCNCNvNtCs47f85yxqTTa_14tsuzulint_core15parallel_linter10lint_filess0_00B7_
FNDA:3,_RNCNCNvNtCs47f85yxqTTa_14tsuzulint_core15parallel_linter10lint_filess1_00B7_
FNDA:10,_RNCNvNtCs47f85yxqTTa_14tsuzulint_core15parallel_linter10lint_filess0_0B5_
FNDA:8,_RNCNvNtCs47f85yxqTTa_14tsuzulint_core15parallel_linter10lint_filess1_0B5_
FNDA:0,_RNCNvNtCs47f85yxqTTa_14tsuzulint_core15parallel_linter10lint_filess_0B5_
FNDA:1,_RNvNtNtCs47f85yxqTTa_14tsuzulint_core15parallel_linter5testss_30test_lint_files_parallel_empty
FNF:7
FNH:7
DA:18,22
DA:19,22
DA:20,22
DA:21,22
DA:22,22
DA:23,22
DA:24,22
DA:25,22
DA:26,22
DA:27,22
DA:28,22
DA:29,22
DA:30,22
DA:31,22
DA:32,22
DA:33,22
DA:35,22
DA:36,22
DA:37,22
DA:38,27
DA:39,27
DA:40,27
DA:44,26
DA:45,26
DA:46,26
DA:47,27
DA:48,24
DA:49,24
DA:50,23
DA:51,1
DA:52,1
DA:53,1
DA:54,1
DA:55,1
DA:56,1
DA:57,1
DA:58,1
DA:62,23
DA:63,23
DA:64,23
DA:65,23
DA:66,23
DA:67,23
DA:68,23
DA:69,23
DA:70,23
DA:71,23
DA:72,23
DA:74,23
DA:75,24
DA:77,22
DA:79,22
DA:80,22
DA:81,24
DA:82,24
DA:83,20
DA:84,4
DA:85,4
DA:86,4
DA:91,22
DA:92,22
DA:93,22
DA:94,0
DA:95,22
DA:97,0
DA:98,0
DA:99,0
DA:100,0
DA:101,0
DA:105,22
DA:106,22
DA:113,1
DA:114,1
DA:115,1
DA:116,1
DA:117,1
DA:118,1
DA:119,1
DA:120,1
DA:122,1
DA:123,1
DA:124,1
DA:125,1
DA:126,1
DA:127,1
DA:128,1
DA:129,1
DA:131,1
DA:133,1
DA:134,1
DA:135,1
DA:136,1
BRF:0
BRH:0
LF:95
LH:89
end_of_record
SF:/app/crates/tsuzulint_core/src/pool.rs
FN:77,_RINvMNtCsdHNy3eV5zAX_14tsuzulint_core4poolNtB3_14PluginHostPool16with_initializerpEB5_
FN:95,_RNCNvMNtCsdHNy3eV5zAX_14tsuzulint_core4poolNtB4_14PluginHostPool7acquire0B6_
FN:140,_RNCNvXs0_NtCsdHNy3eV5zAX_14tsuzulint_core4poolNtB7_10PooledHostNtNtNtCs4kUJL3MZFFz_4core3ops5deref5Deref5deref0B9_
FN:150,_RNCNvXs1_NtCsdHNy3eV5zAX_14tsuzulint_core4poolNtB7_10PooledHostNtNtNtCs4kUJL3MZFFz_4core3ops5deref8DerefMut9deref_mut0B9_
FN:155,_RNvXs2_NtCsdHNy3eV5zAX_14tsuzulint_core4poolNtB5_10PooledHostNtNtNtCs4kUJL3MZFFz_4core3ops4drop4Drop4drop
FN:315,_RNCNvNtNtCs47f85yxqTTa_14tsuzulint_core4pool5testss_23test_pool_thread_safety0B7_
FN:320,_RNCNvNtNtCs47f85yxqTTa_14tsuzulint_core4pool5testss_23test_pool_thread_safetys_0B7_
FN:370,_RNCNvNtNtCs47f85yxqTTa_14tsuzulint_core4pool5testss_24test_panic_discards_host0B7_
FN:269,_RNCNvNtNtCs47f85yxqTTa_14tsuzulint_core4pool5testss_51test_with_initializer_calls_initializer_on_new_host0B7_
FN:287,_RNCNvNtNtCs47f85yxqTTa_14tsuzulint_core4pool5testss_61test_with_initializer_reuses_host_without_calling_initializer0B7_
FN:150,_RNCNvXs1_NtCs47f85yxqTTa_14tsuzulint_core4poolNtB7_10PooledHostNtNtNtCs4kUJL3MZFFz_4core3ops5deref8DerefMut9deref_mut0B9_
FN:145,_RNvXs1_NtCs47f85yxqTTa_14tsuzulint_core4poolNtB5_10PooledHostNtNtNtCs4kUJL3MZFFz_4core3ops5deref8DerefMut9deref_mut
FN:155,_RNvXs2_NtCs47f85yxqTTa_14tsuzulint_core4poolNtB5_10PooledHostNtNtNtCs4kUJL3MZFFz_4core3ops4drop4Drop4drop
FN:110,_RNvMNtCs47f85yxqTTa_14tsuzulint_core4poolNtB2_14PluginHostPool15available_count
FN:57,_RNvMNtCs47f85yxqTTa_14tsuzulint_core4poolNtB2_14PluginHostPool3new
FN:115,_RNvMNtCs47f85yxqTTa_14tsuzulint_core4poolNtB2_14PluginHostPool5clear
FN:92,_RNvMNtCs47f85yxqTTa_14tsuzulint_core4poolNtB2_14PluginHostPool7acquire
FN:135,_RNvXs0_NtCs47f85yxqTTa_14tsuzulint_core4poolNtB5_10PooledHostNtNtNtCs4kUJL3MZFFz_4core3ops5deref5Deref5deref
FN:121,_RNvXs_NtCs47f85yxqTTa_14tsuzulint_core4poolNtB4_14PluginHostPoolNtNtCs4kUJL3MZFFz_4core7default7Default7default
FN:77,_RINvMNtCs47f85yxqTTa_14tsuzulint_core4poolNtB3_14PluginHostPool16with_initializerNCNvNtB3_5testss_51test_with_initializer_calls_initializer_on_new_host0EB5_
FN:77,_RINvMNtCs47f85yxqTTa_14tsuzulint_core4poolNtB3_14PluginHostPool16with_initializerNCNvNtB3_5testss_61test_with_initializer_reuses_host_without_calling_initializer0EB5_
FN:95,_RNCNvMNtCs47f85yxqTTa_14tsuzulint_core4poolNtB4_14PluginHostPool7acquire0B6_
FN:140,_RNCNvXs0_NtCs47f85yxqTTa_14tsuzulint_core4poolNtB7_10PooledHostNtNtNtCs4kUJL3MZFFz_4core3ops5deref5Deref5deref0B9_
FN:216,_RNvNtNtCs47f85yxqTTa_14tsuzulint_core4pool5testss_15test_clear_pool
FN:177,_RNvNtNtCs47f85yxqTTa_14tsuzulint_core4pool5testss_22test_pool_new_is_empty
FN:307,_RNvNtNtCs47f85yxqTTa_14tsuzulint_core4pool5testss_23test_pool_thread_safety
FN:358,_RNvNtNtCs47f85yxqTTa_14tsuzulint_core4pool5testss_24test_panic_discards_host
FN:202,_RNvNtNtCs47f85yxqTTa_14tsuzulint_core4pool5testss_25test_reuse_host_from_pool
FN:230,_RNvNtNtCs47f85yxqTTa_14tsuzulint_core4pool5testss_31test_default_creates_empty_pool
FN:190,_RNvNtNtCs47f85yxqTTa_14tsuzulint_core4pool5testss_34test_host_returned_to_pool_on_drop
FN:249,_RNvNtNtCs47f85yxqTTa_14tsuzulint_core4pool5testss_35test_fresh_host_has_no_loaded_rules
FN:236,_RNvNtNtCs47f85yxqTTa_14tsuzulint_core4pool5testss_35test_multiple_hosts_can_be_acquired
FN:183,_RNvNtNtCs47f85yxqTTa_14tsuzulint_core4pool5testss_40test_acquire_creates_new_host_when_empty
FN:265,_RNvNtNtCs47f85yxqTTa_14tsuzulint_core4pool5testss_51test_with_initializer_calls_initializer_on_new_host
FN:338,_RNvNtNtCs47f85yxqTTa_14tsuzulint_core4pool5testss_52test_lifo_semantics_most_recently_returned_is_reused
FN:283,_RNvNtNtCs47f85yxqTTa_14tsuzulint_core4pool5testss_61test_with_initializer_reuses_host_without_calling_initializer
FNDA:0,_RINvMNtCsdHNy3eV5zAX_14tsuzulint_core4poolNtB3_14PluginHostPool16with_initializerpEB5_
FNDA:0,_RNCNvMNtCsdHNy3eV5zAX_14tsuzulint_core4poolNtB4_14PluginHostPool7acquire0B6_
FNDA:0,_RNCNvXs0_NtCsdHNy3eV5zAX_14tsuzulint_core4poolNtB7_10PooledHostNtNtNtCs4kUJL3MZFFz_4core3ops5deref5Deref5deref0B9_
FNDA:0,_RNCNvXs1_NtCsdHNy3eV5zAX_14tsuzulint_core4poolNtB7_10PooledHostNtNtNtCs4kUJL3MZFFz_4core3ops5deref8DerefMut9deref_mut0B9_
FNDA:0,_RNvXs2_NtCsdHNy3eV5zAX_14tsuzulint_core4poolNtB5_10PooledHostNtNtNtCs4kUJL3MZFFz_4core3ops4drop4Drop4drop
FNDA:1,_RNCNvNtNtCs47f85yxqTTa_14tsuzulint_core4pool5testss_23test_pool_thread_safety0B7_
FNDA:1,_RNCNvNtNtCs47f85yxqTTa_14tsuzulint_core4pool5testss_23test_pool_thread_safetys_0B7_
FNDA:1,_RNCNvNtNtCs47f85yxqTTa_14tsuzulint_core4pool5testss_24test_panic_discards_host0B7_
FNDA:2,_RNCNvNtNtCs47f85yxqTTa_14tsuzulint_core4pool5testss_51test_with_initializer_calls_initializer_on_new_host0B7_
FNDA:1,_RNCNvNtNtCs47f85yxqTTa_14tsuzulint_core4pool5testss_61test_with_initializer_reuses_host_without_calling_initializer0B7_
FNDA:0,_RNCNvXs1_NtCs47f85yxqTTa_14tsuzulint_core4poolNtB7_10PooledHostNtNtNtCs4kUJL3MZFFz_4core3ops5deref8DerefMut9deref_mut0B9_
FNDA:0,_RNvXs1_NtCs47f85yxqTTa_14tsuzulint_core4poolNtB5_10PooledHostNtNtNtCs4kUJL3MZFFz_4core3ops5deref8DerefMut9deref_mut
FNDA:22,_RNvXs2_NtCs47f85yxqTTa_14tsuzulint_core4poolNtB5_10PooledHostNtNtNtCs4kUJL3MZFFz_4core3ops4drop4Drop4drop
FNDA:15,_RNvMNtCs47f85yxqTTa_14tsuzulint_core4poolNtB2_14PluginHostPool15available_count
FNDA:11,_RNvMNtCs47f85yxqTTa_14tsuzulint_core4poolNtB2_14PluginHostPool3new
FNDA:1,_RNvMNtCs47f85yxqTTa_14tsuzulint_core4poolNtB2_14PluginHostPool5clear
FNDA:22,_RNvMNtCs47f85yxqTTa_14tsuzulint_core4poolNtB2_14PluginHostPool7acquire
FNDA:3,_RNvXs0_NtCs47f85yxqTTa_14tsuzulint_core4poolNtB5_10PooledHostNtNtNtCs4kUJL3MZFFz_4core3ops5deref5Deref5deref
FNDA:1,_RNvXs_NtCs47f85yxqTTa_14tsuzulint_core4poolNtB4_14PluginHostPoolNtNtCs4kUJL3MZFFz_4core7default7Default7default
FNDA:1,_RINvMNtCs47f85yxqTTa_14tsuzulint_core4poolNtB3_14PluginHostPool16with_initializerNCNvNtB3_5testss_51test_with_initializer_calls_initializer_on_new_host0EB5_
FNDA:1,_RINvMNtCs47f85yxqTTa_14tsuzulint_core4poolNtB3_14PluginHostPool16with_initializerNCNvNtB3_5testss_61test_with_initializer_reuses_host_without_calling_initializer0EB5_
FNDA:16,_RNCNvMNtCs47f85yxqTTa_14tsuzulint_core4poolNtB4_14PluginHostPool7acquire0B6_
FNDA:0,_RNCNvXs0_NtCs47f85yxqTTa_14tsuzulint_core4poolNtB7_10PooledHostNtNtNtCs4kUJL3MZFFz_4core3ops5deref5Deref5deref0B9_
FNDA:1,_RNvNtNtCs47f85yxqTTa_14tsuzulint_core4pool5testss_15test_clear_pool
FNDA:1,_RNvNtNtCs47f85yxqTTa_14tsuzulint_core4pool5testss_22test_pool_new_is_empty
FNDA:1,_RNvNtNtCs47f85yxqTTa_14tsuzulint_core4pool5testss_23test_pool_thread_safety
FNDA:1,_RNvNtNtCs47f85yxqTTa_14tsuzulint_core4pool5testss_24test_panic_discards_host
FNDA:1,_RNvNtNtCs47f85yxqTTa_14tsuzulint_core4pool5testss_25test_reuse_host_from_pool
FNDA:1,_RNvNtNtCs47f85yxqTTa_14tsuzulint_core4pool5testss_31test_default_creates_empty_pool
FNDA:1,_RNvNtNtCs47f85yxqTTa_14tsuzulint_core4pool5testss_34test_host_returned_to_pool_on_drop
FNDA:1,_RNvNtNtCs47f85yxqTTa_14tsuzulint_core4pool5testss_35test_fresh_host_has_no_loaded_rules
FNDA:1,_RNvNtNtCs47f85yxqTTa_14tsuzulint_core4pool5testss_35test_multiple_hosts_can_be_acquired
FNDA:1,_RNvNtNtCs47f85yxqTTa_14tsuzulint_core4pool5testss_40test_acquire_creates_new_host_when_empty
FNDA:1,_RNvNtNtCs47f85yxqTTa_14tsuzulint_core4pool5testss_51test_with_initializer_calls_initializer_on_new_host
FNDA:1,_RNvNtNtCs47f85yxqTTa_14tsuzulint_core4pool5testss_52test_lifo_semantics_most_recently_returned_is_reused
FNDA:1,_RNvNtNtCs47f85yxqTTa_14tsuzulint_core4pool5testss_61test_with_initializer_reuses_host_without_calling_initializer
FNF:30
FNH:27
DA:57,11
DA:58,11
DA:59,11
DA:60,11
DA:61,11
DA:62,11
DA:77,2
DA:78,2
DA:79,2
DA:81,2
DA:82,2
DA:83,2
DA:84,2
DA:85,2
DA:92,22
DA:93,22
DA:94,22
DA:95,22
DA:96,16
DA:97,16
DA:98,3
DA:99,13
DA:100,16
DA:101,16
DA:103,22
DA:104,22
DA:105,22
DA:106,22
DA:107,22
DA:110,15
DA:111,15
DA:112,15
DA:115,1
DA:116,1
DA:117,1
DA:121,1
DA:122,1
DA:123,1
DA:135,3
DA:138,3
DA:139,3
DA:140,3
DA:141,3
DA:145,0
DA:148,0
DA:149,0
DA:150,0
DA:151,0
DA:155,22
DA:156,22
DA:164,22
DA:165,21
DA:166,21
DA:167,0
DA:168,22
DA:177,1
DA:178,1
DA:179,1
DA:180,1
DA:183,1
DA:184,1
DA:185,1
DA:186,1
DA:187,1
DA:190,1
DA:191,1
DA:192,1
DA:194,1
DA:195,1
DA:196,1
DA:198,1
DA:199,1
DA:202,1
DA:203,1
DA:205,1
DA:206,1
DA:207,1
DA:209,1
DA:211,1
DA:212,1
DA:213,1
DA:216,1
DA:217,1
DA:219,1
DA:220,1
DA:221,1
DA:222,1
DA:224,1
DA:225,1
DA:226,1
DA:227,1
DA:230,1
DA:231,1
DA:232,1
DA:233,1
DA:236,1
DA:237,1
DA:239,1
DA:240,1
DA:241,1
DA:242,1
DA:243,1
DA:245,1
DA:246,1
DA:249,1
DA:250,1
DA:253,1
DA:254,1
DA:257,1
DA:258,1
DA:259,1
DA:262,1
DA:265,1
DA:266,1
DA:267,1
DA:269,2
DA:270,2
DA:271,2
DA:273,1
DA:275,1
DA:276,1
DA:278,1
DA:279,1
DA:280,1
DA:283,1
DA:284,1
DA:285,1
DA:287,1
DA:288,1
DA:289,1
DA:291,1
DA:292,1
DA:293,1
DA:295,1
DA:296,1
DA:298,1
DA:299,1
DA:300,1
DA:304,1
DA:307,1
DA:310,1
DA:312,1
DA:313,1
DA:315,1
DA:316,1
DA:317,1
DA:318,1
DA:320,1
DA:321,1
DA:322,1
DA:323,1
DA:325,1
DA:326,1
DA:331,1
DA:332,1
DA:335,1
DA:338,1
DA:339,1
DA:342,1
DA:343,1
DA:346,1
DA:347,1
DA:351,1
DA:353,1
DA:354,1
DA:355,1
DA:358,1
DA:361,1
DA:364,1
DA:365,1
DA:366,1
DA:367,1
DA:370,1
DA:371,1
DA:372,1
DA:375,1
DA:378,1
DA:379,1
DA:383,1
BRF:0
BRH:0
LF:187
LH:179
end_of_record
SF:/app/crates/tsuzulint_core/src/resolver.rs
FN:14,_RNvMNtCsdHNy3eV5zAX_14tsuzulint_core8resolverNtB2_14PluginResolver7resolve
FN:58,_RNvNtNtCs47f85yxqTTa_14tsuzulint_core8resolver5testss_18test_resolve_local
FN:72,_RNvNtNtCs47f85yxqTTa_14tsuzulint_core8resolver5testss_22test_resolve_not_found
FN:81,_RNvNtNtCs47f85yxqTTa_14tsuzulint_core8resolver5testss_26test_resolve_invalid_names
FN:14,_RNvMNtCs47f85yxqTTa_14tsuzulint_core8resolverNtB2_14PluginResolver7resolve
FNDA:0,_RNvMNtCsdHNy3eV5zAX_14tsuzulint_core8resolverNtB2_14PluginResolver7resolve
FNDA:1,_RNvNtNtCs47f85yxqTTa_14tsuzulint_core8resolver5testss_18test_resolve_local
FNDA:1,_RNvNtNtCs47f85yxqTTa_14tsuzulint_core8resolver5testss_22test_resolve_not_found
FNDA:1,_RNvNtNtCs47f85yxqTTa_14tsuzulint_core8resolver5testss_26test_resolve_invalid_names
FNDA:14,_RNvMNtCs47f85yxqTTa_14tsuzulint_core8resolverNtB2_14PluginResolver7resolve
FNF:4
FNH:4
DA:14,14
DA:17,14
DA:18,1
DA:19,13
DA:20,13
DA:21,13
DA:22,13
DA:23,8
DA:24,8
DA:25,8
DA:26,5
DA:29,8
DA:32,8
DA:33,2
DA:34,2
DA:35,1
DA:36,1
DA:37,6
DA:40,7
DA:41,7
DA:42,7
DA:43,0
DA:44,7
DA:45,0
DA:47,7
DA:48,14
DA:58,1
DA:59,1
DA:60,1
DA:61,1
DA:62,1
DA:64,1
DA:65,1
DA:67,1
DA:68,1
DA:69,1
DA:72,1
DA:73,1
DA:74,1
DA:76,1
DA:77,1
DA:78,1
DA:81,1
DA:82,1
DA:83,1
DA:84,1
DA:85,1
DA:86,1
DA:88,1
DA:89,1
BRF:0
BRH:0
LF:50
LH:48
end_of_record
SF:/app/crates/tsuzulint_core/src/result.rs
FN:83,_RNvMs_NtCsdHNy3eV5zAX_14tsuzulint_core6resultNtB4_11LintSummary12from_results
FN:51,_RNCNvMNtCsdHNy3eV5zAX_14tsuzulint_core6resultNtB4_10LintResult10has_errors0B6_
FN:58,_RNCNvMNtCsdHNy3eV5zAX_14tsuzulint_core6resultNtB4_10LintResult11error_count0B6_
FN:48,_RNvMNtCsdHNy3eV5zAX_14tsuzulint_core6resultNtB2_10LintResult10has_errors
FN:55,_RNvMNtCsdHNy3eV5zAX_14tsuzulint_core6resultNtB2_10LintResult11error_count
FN:28,_RNvMNtCsdHNy3eV5zAX_14tsuzulint_core6resultNtB2_10LintResult3new
FN:38,_RNvMNtCsdHNy3eV5zAX_14tsuzulint_core6resultNtB2_10LintResult6cached
FN:51,_RNCNvMNtCs47f85yxqTTa_14tsuzulint_core6resultNtB4_10LintResult10has_errors0B6_
FN:58,_RNCNvMNtCs47f85yxqTTa_14tsuzulint_core6resultNtB4_10LintResult11error_count0B6_
FN:120,_RNvNtNtCs47f85yxqTTa_14tsuzulint_core6result5testss_17test_lint_summary
FN:107,_RNvNtNtCs47f85yxqTTa_14tsuzulint_core6result5testss_20test_lint_result_new
FN:177,_RNvNtNtCs47f85yxqTTa_14tsuzulint_core6result5testss_21test_lint_result_path
FN:114,_RNvNtNtCs47f85yxqTTa_14tsuzulint_core6result5testss_23test_lint_result_cached
FN:183,_RNvNtNtCs47f85yxqTTa_14tsuzulint_core6result5testss_23test_lint_summary_empty
FN:194,_RNvNtNtCs47f85yxqTTa_14tsuzulint_core6result5testss_28test_lint_summary_all_cached
FN:138,_RNvNtNtCs47f85yxqTTa_14tsuzulint_core6result5testss_33test_lint_result_with_diagnostics
FN:230,_RNvNtNtCs47f85yxqTTa_14tsuzulint_core6result5testss_33test_lint_summary_with_heuristics
FN:164,_RNvNtNtCs47f85yxqTTa_14tsuzulint_core6result5testss_34test_lint_result_mixed_diagnostics
FN:150,_RNvNtNtCs47f85yxqTTa_14tsuzulint_core6result5testss_37test_lint_result_with_heuristics_only
FN:208,_RNvNtNtCs47f85yxqTTa_14tsuzulint_core6result5testss_38test_lint_summary_multiple_diagnostics
FN:48,_RNvMNtCs47f85yxqTTa_14tsuzulint_core6resultNtB2_10LintResult10has_errors
FN:55,_RNvMNtCs47f85yxqTTa_14tsuzulint_core6resultNtB2_10LintResult11error_count
FN:28,_RNvMNtCs47f85yxqTTa_14tsuzulint_core6resultNtB2_10LintResult3new
FN:38,_RNvMNtCs47f85yxqTTa_14tsuzulint_core6resultNtB2_10LintResult6cached
FN:83,_RNvMs_NtCs47f85yxqTTa_14tsuzulint_core6resultNtB4_11LintSummary12from_results
FNDA:0,_RNvMs_NtCsdHNy3eV5zAX_14tsuzulint_core6resultNtB4_11LintSummary12from_results
FNDA:0,_RNCNvMNtCsdHNy3eV5zAX_14tsuzulint_core6resultNtB4_10LintResult10has_errors0B6_
FNDA:0,_RNCNvMNtCsdHNy3eV5zAX_14tsuzulint_core6resultNtB4_10LintResult11error_count0B6_
FNDA:15,_RNvMNtCsdHNy3eV5zAX_14tsuzulint_core6resultNtB2_10LintResult10has_errors
FNDA:0,_RNvMNtCsdHNy3eV5zAX_14tsuzulint_core6resultNtB2_10LintResult11error_count
FNDA:16,_RNvMNtCsdHNy3eV5zAX_14tsuzulint_core6resultNtB2_10LintResult3new
FNDA:0,_RNvMNtCsdHNy3eV5zAX_14tsuzulint_core6resultNtB2_10LintResult6cached
FNDA:8,_RNCNvMNtCs47f85yxqTTa_14tsuzulint_core6resultNtB4_10LintResult10has_errors0B6_
FNDA:12,_RNCNvMNtCs47f85yxqTTa_14tsuzulint_core6resultNtB4_10LintResult11error_count0B6_
FNDA:1,_RNvNtNtCs47f85yxqTTa_14tsuzulint_core6result5testss_17test_lint_summary
FNDA:1,_RNvNtNtCs47f85yxqTTa_14tsuzulint_core6result5testss_20test_lint_result_new
FNDA:1,_RNvNtNtCs47f85yxqTTa_14tsuzulint_core6result5testss_21test_lint_result_path
FNDA:1,_RNvNtNtCs47f85yxqTTa_14tsuzulint_core6result5testss_23test_lint_result_cached
FNDA:1,_RNvNtNtCs47f85yxqTTa_14tsuzulint_core6result5testss_23test_lint_summary_empty
FNDA:1,_RNvNtNtCs47f85yxqTTa_14tsuzulint_core6result5testss_28test_lint_summary_all_cached
FNDA:1,_RNvNtNtCs47f85yxqTTa_14tsuzulint_core6result5testss_33test_lint_result_with_diagnostics
FNDA:1,_RNvNtNtCs47f85yxqTTa_14tsuzulint_core6result5testss_33test_lint_summary_with_heuristics
FNDA:1,_RNvNtNtCs47f85yxqTTa_14tsuzulint_core6result5testss_34test_lint_result_mixed_diagnostics
FNDA:1,_RNvNtNtCs47f85yxqTTa_14tsuzulint_core6result5testss_37test_lint_result_with_heuristics_only
FNDA:1,_RNvNtNtCs47f85yxqTTa_14tsuzulint_core6result5testss_38test_lint_summary_multiple_diagnostics
FNDA:12,_RNvMNtCs47f85yxqTTa_14tsuzulint_core6resultNtB2_10LintResult10has_errors
FNDA:11,_RNvMNtCs47f85yxqTTa_14tsuzulint_core6resultNtB2_10LintResult11error_count
FNDA:29,_RNvMNtCs47f85yxqTTa_14tsuzulint_core6resultNtB2_10LintResult3new
FNDA:6,_RNvMNtCs47f85yxqTTa_14tsuzulint_core6resultNtB2_10LintResult6cached
FNDA:5,_RNvMs_NtCs47f85yxqTTa_14tsuzulint_core6resultNtB4_11LintSummary12from_results
FNF:18
FNH:18
DA:28,45
DA:29,45
DA:30,45
DA:31,45
DA:32,45
DA:33,45
DA:34,45
DA:35,45
DA:38,6
DA:39,6
DA:40,6
DA:41,6
DA:42,6
DA:43,6
DA:44,6
DA:45,6
DA:48,27
DA:49,27
DA:50,27
DA:51,27
DA:52,27
DA:55,11
DA:56,11
DA:57,11
DA:58,12
DA:59,11
DA:60,11
DA:83,5
DA:84,5
DA:86,8
DA:87,8
DA:88,8
DA:89,4
DA:90,4
DA:91,8
DA:92,8
DA:93,4
DA:94,4
DA:97,5
DA:98,5
DA:107,1
DA:108,1
DA:109,1
DA:110,1
DA:111,1
DA:114,1
DA:115,1
DA:116,1
DA:117,1
DA:120,1
DA:121,1
DA:122,1
DA:123,1
DA:124,1
DA:125,1
DA:129,1
DA:131,1
DA:132,1
DA:133,1
DA:134,1
DA:135,1
DA:138,1
DA:139,1
DA:140,1
DA:141,1
DA:143,1
DA:145,1
DA:146,1
DA:147,1
DA:150,1
DA:151,1
DA:152,1
DA:153,1
DA:154,1
DA:155,1
DA:157,1
DA:159,1
DA:160,1
DA:161,1
DA:164,1
DA:165,1
DA:166,1
DA:167,1
DA:168,1
DA:170,1
DA:172,1
DA:173,1
DA:174,1
DA:177,1
DA:178,1
DA:179,1
DA:180,1
DA:183,1
DA:184,1
DA:185,1
DA:187,1
DA:188,1
DA:189,1
DA:190,1
DA:191,1
DA:194,1
DA:195,1
DA:196,1
DA:197,1
DA:198,1
DA:201,1
DA:203,1
DA:204,1
DA:205,1
DA:208,1
DA:209,1
DA:210,1
DA:211,1
DA:212,1
DA:213,1
